
schv4.o:     file format elf32-littleriscv


Disassembly of section .group:

00000000 <wm4.0.93b38209c45e37be6a68ef3c9d5f154e>:
   0:	0001                	nop
   2:	0000                	unimp
   4:	0000001b          	0x1b
   8:	001c                	0x1c
	...

Disassembly of section .group:

00000000 <wm4.0.93b38209c45e37be6a68ef3c9d5f154e>:
   0:	0001                	nop
   2:	0000                	unimp
   4:	001d                	c.nop	7
   6:	0000                	unimp
   8:	001e                	c.slli	zero,0x7
	...

Disassembly of section .group:

00000000 <wm4.0.93b38209c45e37be6a68ef3c9d5f154e>:
   0:	0001                	nop
   2:	0000                	unimp
   4:	001f 0000 0020      	0x200000001f
	...

Disassembly of section .group:

00000000 <wm4.0.93b38209c45e37be6a68ef3c9d5f154e>:
   0:	0001                	nop
   2:	0000                	unimp
   4:	0021                	c.nop	8
   6:	0000                	unimp
   8:	0022                	c.slli	zero,0x8
	...

Disassembly of section .group:

00000000 <wm4.0.93b38209c45e37be6a68ef3c9d5f154e>:
   0:	0001                	nop
   2:	0000                	unimp
   4:	00000023          	sb	zero,0(zero) # 0 <wm4.0.93b38209c45e37be6a68ef3c9d5f154e>
   8:	0024                	addi	s1,sp,8
	...

Disassembly of section .group:

00000000 <wm4.0.93b38209c45e37be6a68ef3c9d5f154e>:
   0:	0001                	nop
   2:	0000                	unimp
   4:	0025                	c.nop	9
   6:	0000                	unimp
   8:	0026                	c.slli	zero,0x9
	...

Disassembly of section .group:

00000000 <wm4.0.93b38209c45e37be6a68ef3c9d5f154e>:
   0:	0001                	nop
   2:	0000                	unimp
   4:	00000027          	0x27
   8:	0028                	addi	a0,sp,8
	...

Disassembly of section .group:

00000000 <wm4.0.93b38209c45e37be6a68ef3c9d5f154e>:
   0:	0001                	nop
   2:	0000                	unimp
   4:	0029                	c.nop	10
   6:	0000                	unimp
   8:	002a                	c.slli	zero,0xa
	...

Disassembly of section .group:

00000000 <wm4.0.93b38209c45e37be6a68ef3c9d5f154e>:
   0:	0001                	nop
   2:	0000                	unimp
   4:	0000002b          	0x2b
   8:	002c                	addi	a1,sp,8
	...

Disassembly of section .group:

00000000 <wm4.0.93b38209c45e37be6a68ef3c9d5f154e>:
   0:	0001                	nop
   2:	0000                	unimp
   4:	002d                	c.nop	11
   6:	0000                	unimp
   8:	002e                	c.slli	zero,0xb
	...

Disassembly of section .group:

00000000 <wm4.0.93b38209c45e37be6a68ef3c9d5f154e>:
   0:	0001                	nop
   2:	0000                	unimp
   4:	0000002f          	0x2f
   8:	0030                	addi	a2,sp,8
	...

Disassembly of section .group:

00000000 <wm4.0.93b38209c45e37be6a68ef3c9d5f154e>:
   0:	0001                	nop
   2:	0000                	unimp
   4:	0031                	c.nop	12
   6:	0000                	unimp
   8:	0032                	c.slli	zero,0xc
	...

Disassembly of section .group:

00000000 <wm4.0.93b38209c45e37be6a68ef3c9d5f154e>:
   0:	0001                	nop
   2:	0000                	unimp
   4:	0036                	c.slli	zero,0xd
   6:	0000                	unimp
   8:	00000037          	lui	zero,0x0

Disassembly of section .text:

00000000 <sproc_t::sproc_t(void (*)(void*), unsigned long long, unsigned char, void*)>:
   0:	7179                	addi	sp,sp,-48
   2:	d622                	sw	s0,44(sp)
   4:	1800                	addi	s0,sp,48
   6:	fea42623          	sw	a0,-20(s0)
   a:	feb42423          	sw	a1,-24(s0)
   e:	fec42023          	sw	a2,-32(s0)
  12:	fed42223          	sw	a3,-28(s0)
  16:	fcf42c23          	sw	a5,-40(s0)
  1a:	87ba                	mv	a5,a4
  1c:	fcf40fa3          	sb	a5,-33(s0)
  20:	fec42783          	lw	a5,-20(s0)
  24:	00078023          	sb	zero,0(a5)
  28:	fec42683          	lw	a3,-20(s0)
  2c:	fe042703          	lw	a4,-32(s0)
  30:	fe442783          	lw	a5,-28(s0)
  34:	ca98                	sw	a4,16(a3)
  36:	cadc                	sw	a5,20(a3)
  38:	fec42783          	lw	a5,-20(s0)
  3c:	fdf44703          	lbu	a4,-33(s0)
  40:	02e78023          	sb	a4,32(a5)
  44:	fec42783          	lw	a5,-20(s0)
  48:	fd842703          	lw	a4,-40(s0)
  4c:	c798                	sw	a4,8(a5)
  4e:	fec42783          	lw	a5,-20(s0)
  52:	fe842703          	lw	a4,-24(s0)
  56:	c3d8                	sw	a4,4(a5)
  58:	fec42783          	lw	a5,-20(s0)
  5c:	4705                	li	a4,1
  5e:	00e78023          	sb	a4,0(a5)
  62:	0001                	nop
  64:	5432                	lw	s0,44(sp)
  66:	6145                	addi	sp,sp,48
  68:	8082                	ret

0000006a <sproc_t::sproc_t(exec_base_t*, unsigned long long, unsigned char)>:
  6a:	7179                	addi	sp,sp,-48
  6c:	d622                	sw	s0,44(sp)
  6e:	1800                	addi	s0,sp,48
  70:	fea42623          	sw	a0,-20(s0)
  74:	feb42423          	sw	a1,-24(s0)
  78:	fec42023          	sw	a2,-32(s0)
  7c:	fed42223          	sw	a3,-28(s0)
  80:	87ba                	mv	a5,a4
  82:	fcf40fa3          	sb	a5,-33(s0)
  86:	fec42783          	lw	a5,-20(s0)
  8a:	00078023          	sb	zero,0(a5)
  8e:	fec42683          	lw	a3,-20(s0)
  92:	fe042703          	lw	a4,-32(s0)
  96:	fe442783          	lw	a5,-28(s0)
  9a:	ca98                	sw	a4,16(a3)
  9c:	cadc                	sw	a5,20(a3)
  9e:	fec42783          	lw	a5,-20(s0)
  a2:	fdf44703          	lbu	a4,-33(s0)
  a6:	02e78023          	sb	a4,32(a5)
  aa:	fec42783          	lw	a5,-20(s0)
  ae:	fe842703          	lw	a4,-24(s0)
  b2:	c3d8                	sw	a4,4(a5)
  b4:	fec42783          	lw	a5,-20(s0)
  b8:	4709                	li	a4,2
  ba:	00e78023          	sb	a4,0(a5)
  be:	0001                	nop
  c0:	5432                	lw	s0,44(sp)
  c2:	6145                	addi	sp,sp,48
  c4:	8082                	ret

000000c6 <sproc_t::~sproc_t()>:
  c6:	1101                	addi	sp,sp,-32
  c8:	ce06                	sw	ra,28(sp)
  ca:	cc22                	sw	s0,24(sp)
  cc:	1000                	addi	s0,sp,32
  ce:	fea42623          	sw	a0,-20(s0)
  d2:	fec42783          	lw	a5,-20(s0)
  d6:	02078023          	sb	zero,32(a5)
  da:	fec42503          	lw	a0,-20(s0)
  de:	00000097          	auipc	ra,0x0
  e2:	000080e7          	jalr	ra # de <sproc_t::~sproc_t()+0x18>
  e6:	0001                	nop
  e8:	40f2                	lw	ra,28(sp)
  ea:	4462                	lw	s0,24(sp)
  ec:	6105                	addi	sp,sp,32
  ee:	8082                	ret

000000f0 <sproc_t::srun()>:
  f0:	1101                	addi	sp,sp,-32
  f2:	ce06                	sw	ra,28(sp)
  f4:	cc22                	sw	s0,24(sp)
  f6:	1000                	addi	s0,sp,32
  f8:	fea42623          	sw	a0,-20(s0)
  fc:	fec42783          	lw	a5,-20(s0)
 100:	0007c783          	lbu	a5,0(a5)
 104:	4709                	li	a4,2
 106:	02e78363          	beq	a5,a4,12c <.L5>
 10a:	4709                	li	a4,2
 10c:	02f74c63          	blt	a4,a5,144 <.L6>
 110:	cb8d                	beqz	a5,142 <.L10>
 112:	4705                	li	a4,1
 114:	00e78363          	beq	a5,a4,11a <.L8>
 118:	a035                	j	144 <.L6>

0000011a <.L8>:
 11a:	fec42783          	lw	a5,-20(s0)
 11e:	43d8                	lw	a4,4(a5)
 120:	fec42783          	lw	a5,-20(s0)
 124:	479c                	lw	a5,8(a5)
 126:	853e                	mv	a0,a5
 128:	9702                	jalr	a4
 12a:	a829                	j	144 <.L6>

0000012c <.L5>:
 12c:	fec42783          	lw	a5,-20(s0)
 130:	43dc                	lw	a5,4(a5)
 132:	439c                	lw	a5,0(a5)
 134:	4398                	lw	a4,0(a5)
 136:	fec42783          	lw	a5,-20(s0)
 13a:	43dc                	lw	a5,4(a5)
 13c:	853e                	mv	a0,a5
 13e:	9702                	jalr	a4
 140:	a011                	j	144 <.L6>

00000142 <.L10>:
 142:	0001                	nop

00000144 <.L6>:
 144:	0001                	nop
 146:	40f2                	lw	ra,28(sp)
 148:	4462                	lw	s0,24(sp)
 14a:	6105                	addi	sp,sp,32
 14c:	8082                	ret

0000014e <sproc_t::sterminate()>:
 14e:	1101                	addi	sp,sp,-32
 150:	ce06                	sw	ra,28(sp)
 152:	cc22                	sw	s0,24(sp)
 154:	1000                	addi	s0,sp,32
 156:	fea42623          	sw	a0,-20(s0)
 15a:	fec42503          	lw	a0,-20(s0)
 15e:	00000097          	auipc	ra,0x0
 162:	000080e7          	jalr	ra # 15e <sproc_t::sterminate()+0x10>
 166:	0001                	nop
 168:	40f2                	lw	ra,28(sp)
 16a:	4462                	lw	s0,24(sp)
 16c:	6105                	addi	sp,sp,32
 16e:	8082                	ret

00000170 <sproc_t::sset_mode(unsigned char)>:
 170:	1101                	addi	sp,sp,-32
 172:	ce06                	sw	ra,28(sp)
 174:	cc22                	sw	s0,24(sp)
 176:	1000                	addi	s0,sp,32
 178:	fea42623          	sw	a0,-20(s0)
 17c:	87ae                	mv	a5,a1
 17e:	fef405a3          	sb	a5,-21(s0)
 182:	fec42783          	lw	a5,-20(s0)
 186:	feb44703          	lbu	a4,-21(s0)
 18a:	02e78023          	sb	a4,32(a5)
 18e:	feb44783          	lbu	a5,-21(s0)
 192:	eb81                	bnez	a5,1a2 <.L13>
 194:	fec42503          	lw	a0,-20(s0)
 198:	00000097          	auipc	ra,0x0
 19c:	000080e7          	jalr	ra # 198 <sproc_t::sset_mode(unsigned char)+0x28>
 1a0:	a831                	j	1bc <.L15>

000001a2 <.L13>:
 1a2:	fec42783          	lw	a5,-20(s0)
 1a6:	0207c703          	lbu	a4,32(a5)
 1aa:	4785                	li	a5,1
 1ac:	00f70863          	beq	a4,a5,1bc <.L15>
 1b0:	fec42503          	lw	a0,-20(s0)
 1b4:	00000097          	auipc	ra,0x0
 1b8:	000080e7          	jalr	ra # 1b4 <.L13+0x12>

000001bc <.L15>:
 1bc:	0001                	nop
 1be:	40f2                	lw	ra,28(sp)
 1c0:	4462                	lw	s0,24(sp)
 1c2:	6105                	addi	sp,sp,32
 1c4:	8082                	ret

000001c6 <sch::ssetup()>:
 1c6:	1141                	addi	sp,sp,-16
 1c8:	c606                	sw	ra,12(sp)
 1ca:	c422                	sw	s0,8(sp)
 1cc:	0800                	addi	s0,sp,16
 1ce:	00000097          	auipc	ra,0x0
 1d2:	000080e7          	jalr	ra # 1ce <sch::ssetup()+0x8>
 1d6:	0001                	nop
 1d8:	40b2                	lw	ra,12(sp)
 1da:	4422                	lw	s0,8(sp)
 1dc:	0141                	addi	sp,sp,16
 1de:	8082                	ret

000001e0 <sch::scapture()>:
 1e0:	1101                	addi	sp,sp,-32
 1e2:	ce06                	sw	ra,28(sp)
 1e4:	cc22                	sw	s0,24(sp)
 1e6:	1000                	addi	s0,sp,32

000001e8 <.L25>:
 1e8:	000007b7          	lui	a5,0x0
 1ec:	0007c783          	lbu	a5,0(a5) # 0 <sproc_t::sproc_t(void (*)(void*), unsigned long long, unsigned char, void*)>
 1f0:	0ff7f793          	andi	a5,a5,255
 1f4:	00f037b3          	snez	a5,a5
 1f8:	0ff7f793          	andi	a5,a5,255
 1fc:	d7f5                	beqz	a5,1e8 <.L25>
 1fe:	000007b7          	lui	a5,0x0
 202:	0007c783          	lbu	a5,0(a5) # 0 <sproc_t::sproc_t(void (*)(void*), unsigned long long, unsigned char, void*)>
 206:	0ff7f793          	andi	a5,a5,255
 20a:	17fd                	addi	a5,a5,-1
 20c:	0ff7f713          	andi	a4,a5,255
 210:	000007b7          	lui	a5,0x0
 214:	00e78023          	sb	a4,0(a5) # 0 <sproc_t::sproc_t(void (*)(void*), unsigned long long, unsigned char, void*)>
 218:	000007b7          	lui	a5,0x0
 21c:	0007d783          	lhu	a5,0(a5) # 0 <sproc_t::sproc_t(void (*)(void*), unsigned long long, unsigned char, void*)>
 220:	17fd                	addi	a5,a5,-1
 222:	01079713          	slli	a4,a5,0x10
 226:	8341                	srli	a4,a4,0x10
 228:	000007b7          	lui	a5,0x0
 22c:	00e79023          	sh	a4,0(a5) # 0 <sproc_t::sproc_t(void (*)(void*), unsigned long long, unsigned char, void*)>
 230:	000007b7          	lui	a5,0x0
 234:	0007a783          	lw	a5,0(a5) # 0 <sproc_t::sproc_t(void (*)(void*), unsigned long long, unsigned char, void*)>
 238:	fef42223          	sw	a5,-28(s0)
 23c:	000007b7          	lui	a5,0x0
 240:	0007d783          	lhu	a5,0(a5) # 0 <sproc_t::sproc_t(void (*)(void*), unsigned long long, unsigned char, void*)>
 244:	cbb9                	beqz	a5,29a <.L19>
 246:	000007b7          	lui	a5,0x0
 24a:	0007a783          	lw	a5,0(a5) # 0 <sproc_t::sproc_t(void (*)(void*), unsigned long long, unsigned char, void*)>
 24e:	5798                	lw	a4,40(a5)
 250:	000007b7          	lui	a5,0x0
 254:	00e7a023          	sw	a4,0(a5) # 0 <sproc_t::sproc_t(void (*)(void*), unsigned long long, unsigned char, void*)>
 258:	000007b7          	lui	a5,0x0
 25c:	0007a783          	lw	a5,0(a5) # 0 <sproc_t::sproc_t(void (*)(void*), unsigned long long, unsigned char, void*)>
 260:	4f98                	lw	a4,24(a5)
 262:	4fdc                	lw	a5,28(a5)
 264:	853a                	mv	a0,a4
 266:	85be                	mv	a1,a5
 268:	00000097          	auipc	ra,0x0
 26c:	000080e7          	jalr	ra # 268 <.L25+0x80>
 270:	000007b7          	lui	a5,0x0
 274:	0007a783          	lw	a5,0(a5) # 0 <sproc_t::sproc_t(void (*)(void*), unsigned long long, unsigned char, void*)>
 278:	53dc                	lw	a5,36(a5)
 27a:	0207c703          	lbu	a4,32(a5)
 27e:	4785                	li	a5,1
 280:	02f71f63          	bne	a4,a5,2be <.L20>
 284:	000007b7          	lui	a5,0x0
 288:	0007a783          	lw	a5,0(a5) # 0 <sproc_t::sproc_t(void (*)(void*), unsigned long long, unsigned char, void*)>
 28c:	53dc                	lw	a5,36(a5)
 28e:	853e                	mv	a0,a5
 290:	00000097          	auipc	ra,0x0
 294:	000080e7          	jalr	ra # 290 <.L25+0xa8>
 298:	a01d                	j	2be <.L20>

0000029a <.L19>:
 29a:	000007b7          	lui	a5,0x0
 29e:	0007a783          	lw	a5,0(a5) # 0 <sproc_t::sproc_t(void (*)(void*), unsigned long long, unsigned char, void*)>
 2a2:	0207c703          	lbu	a4,32(a5)
 2a6:	4785                	li	a5,1
 2a8:	00f71b63          	bne	a4,a5,2be <.L20>
 2ac:	000007b7          	lui	a5,0x0
 2b0:	0007a783          	lw	a5,0(a5) # 0 <sproc_t::sproc_t(void (*)(void*), unsigned long long, unsigned char, void*)>
 2b4:	853e                	mv	a0,a5
 2b6:	00000097          	auipc	ra,0x0
 2ba:	000080e7          	jalr	ra # 2b6 <.L19+0x1c>

000002be <.L20>:
 2be:	000007b7          	lui	a5,0x0
 2c2:	0007c783          	lbu	a5,0(a5) # 0 <sproc_t::sproc_t(void (*)(void*), unsigned long long, unsigned char, void*)>
 2c6:	fef405a3          	sb	a5,-21(s0)
 2ca:	000007b7          	lui	a5,0x0
 2ce:	0007a783          	lw	a5,0(a5) # 0 <sproc_t::sproc_t(void (*)(void*), unsigned long long, unsigned char, void*)>
 2d2:	fef42623          	sw	a5,-20(s0)

000002d6 <.L22>:
 2d6:	feb44783          	lbu	a5,-21(s0)
 2da:	cf81                	beqz	a5,2f2 <.L21>
 2dc:	feb44783          	lbu	a5,-21(s0)
 2e0:	17fd                	addi	a5,a5,-1
 2e2:	fef405a3          	sb	a5,-21(s0)
 2e6:	fec42783          	lw	a5,-20(s0)
 2ea:	579c                	lw	a5,40(a5)
 2ec:	fef42623          	sw	a5,-20(s0)
 2f0:	b7dd                	j	2d6 <.L22>

000002f2 <.L21>:
 2f2:	000007b7          	lui	a5,0x0
 2f6:	0007d783          	lhu	a5,0(a5) # 0 <sproc_t::sproc_t(void (*)(void*), unsigned long long, unsigned char, void*)>
 2fa:	cf81                	beqz	a5,312 <.L23>
 2fc:	fec42783          	lw	a5,-20(s0)
 300:	4f98                	lw	a4,24(a5)
 302:	4fdc                	lw	a5,28(a5)
 304:	853a                	mv	a0,a4
 306:	85be                	mv	a1,a5
 308:	00000097          	auipc	ra,0x0
 30c:	000080e7          	jalr	ra # 308 <.L21+0x16>
 310:	a029                	j	31a <.L24>

00000312 <.L23>:
 312:	00000097          	auipc	ra,0x0
 316:	000080e7          	jalr	ra # 312 <.L23>

0000031a <.L24>:
 31a:	fe442503          	lw	a0,-28(s0)
 31e:	00000097          	auipc	ra,0x0
 322:	000080e7          	jalr	ra # 31e <.L24+0x4>
 326:	b5c9                	j	1e8 <.L25>

00000328 <sch::stimer_event()>:
 328:	1141                	addi	sp,sp,-16
 32a:	c622                	sw	s0,12(sp)
 32c:	0800                	addi	s0,sp,16
 32e:	000007b7          	lui	a5,0x0
 332:	0007c783          	lbu	a5,0(a5) # 0 <sproc_t::sproc_t(void (*)(void*), unsigned long long, unsigned char, void*)>
 336:	0ff7f793          	andi	a5,a5,255
 33a:	0785                	addi	a5,a5,1
 33c:	0ff7f713          	andi	a4,a5,255
 340:	000007b7          	lui	a5,0x0
 344:	00e78023          	sb	a4,0(a5) # 0 <sproc_t::sproc_t(void (*)(void*), unsigned long long, unsigned char, void*)>
 348:	0001                	nop
 34a:	4432                	lw	s0,12(sp)
 34c:	0141                	addi	sp,sp,16
 34e:	8082                	ret

00000350 <sch::sproc_add(sproc_t*)>:
 350:	715d                	addi	sp,sp,-80
 352:	c686                	sw	ra,76(sp)
 354:	c4a2                	sw	s0,72(sp)
 356:	c2ca                	sw	s2,68(sp)
 358:	c0ce                	sw	s3,64(sp)
 35a:	0880                	addi	s0,sp,80
 35c:	faa42e23          	sw	a0,-68(s0)
 360:	000007b7          	lui	a5,0x0
 364:	0007a783          	lw	a5,0(a5) # 0 <sproc_t::sproc_t(void (*)(void*), unsigned long long, unsigned char, void*)>
 368:	fef42623          	sw	a5,-20(s0)
 36c:	4781                	li	a5,0
 36e:	4801                	li	a6,0
 370:	fef42023          	sw	a5,-32(s0)
 374:	ff042223          	sw	a6,-28(s0)
 378:	fcf42c23          	sw	a5,-40(s0)
 37c:	fd042e23          	sw	a6,-36(s0)
 380:	fcf42823          	sw	a5,-48(s0)
 384:	fd042a23          	sw	a6,-44(s0)
 388:	000007b7          	lui	a5,0x0
 38c:	0007d783          	lhu	a5,0(a5) # 0 <sproc_t::sproc_t(void (*)(void*), unsigned long long, unsigned char, void*)>
 390:	fcf407a3          	sb	a5,-49(s0)
 394:	fc040723          	sb	zero,-50(s0)
 398:	fc0406a3          	sb	zero,-51(s0)
 39c:	4785                	li	a5,1
 39e:	fcf40623          	sb	a5,-52(s0)
 3a2:	000007b7          	lui	a5,0x0
 3a6:	0007d783          	lhu	a5,0(a5) # 0 <sproc_t::sproc_t(void (*)(void*), unsigned long long, unsigned char, void*)>
 3aa:	34078663          	beqz	a5,6f6 <.L28>
 3ae:	fbc42783          	lw	a5,-68(s0)
 3b2:	34078263          	beqz	a5,6f6 <.L28>
 3b6:	000007b7          	lui	a5,0x0
 3ba:	0007c783          	lbu	a5,0(a5) # 0 <sproc_t::sproc_t(void (*)(void*), unsigned long long, unsigned char, void*)>
 3be:	fcf40723          	sb	a5,-50(s0)

000003c2 <.L30>:
 3c2:	fce44783          	lbu	a5,-50(s0)
 3c6:	c38d                	beqz	a5,3e8 <.L29>
 3c8:	fce44783          	lbu	a5,-50(s0)
 3cc:	17fd                	addi	a5,a5,-1
 3ce:	fcf40723          	sb	a5,-50(s0)
 3d2:	fcf44783          	lbu	a5,-49(s0)
 3d6:	17fd                	addi	a5,a5,-1
 3d8:	fcf407a3          	sb	a5,-49(s0)
 3dc:	fec42783          	lw	a5,-20(s0)
 3e0:	579c                	lw	a5,40(a5)
 3e2:	fef42623          	sw	a5,-20(s0)
 3e6:	bff1                	j	3c2 <.L30>

000003e8 <.L29>:
 3e8:	000007b7          	lui	a5,0x0
 3ec:	0007a783          	lw	a5,0(a5) # 0 <sproc_t::sproc_t(void (*)(void*), unsigned long long, unsigned char, void*)>
 3f0:	0187a903          	lw	s2,24(a5)
 3f4:	01c7a983          	lw	s3,28(a5)
 3f8:	00000097          	auipc	ra,0x0
 3fc:	000080e7          	jalr	ra # 3f8 <.L29+0x10>
 400:	862a                	mv	a2,a0
 402:	86ae                	mv	a3,a1
 404:	40c90733          	sub	a4,s2,a2
 408:	85ba                	mv	a1,a4
 40a:	00b935b3          	sltu	a1,s2,a1
 40e:	40d987b3          	sub	a5,s3,a3
 412:	40b786b3          	sub	a3,a5,a1
 416:	87b6                	mv	a5,a3
 418:	fce42823          	sw	a4,-48(s0)
 41c:	fcf42a23          	sw	a5,-44(s0)

00000420 <.L41>:
 420:	fcc44783          	lbu	a5,-52(s0)
 424:	30078663          	beqz	a5,730 <.L45>
 428:	fbc42783          	lw	a5,-68(s0)
 42c:	4b98                	lw	a4,16(a5)
 42e:	4bdc                	lw	a5,20(a5)
 430:	fd042503          	lw	a0,-48(s0)
 434:	fd442583          	lw	a1,-44(s0)
 438:	00a70633          	add	a2,a4,a0
 43c:	8832                	mv	a6,a2
 43e:	00e83833          	sltu	a6,a6,a4
 442:	00b786b3          	add	a3,a5,a1
 446:	00d807b3          	add	a5,a6,a3
 44a:	86be                	mv	a3,a5
 44c:	8732                	mv	a4,a2
 44e:	87b6                	mv	a5,a3
 450:	fe442683          	lw	a3,-28(s0)
 454:	863e                	mv	a2,a5
 456:	2cd66d63          	bltu	a2,a3,730 <.L45>
 45a:	fe442683          	lw	a3,-28(s0)
 45e:	863e                	mv	a2,a5
 460:	00c69763          	bne	a3,a2,46e <.L43>
 464:	fe042683          	lw	a3,-32(s0)
 468:	87ba                	mv	a5,a4
 46a:	2cd7e363          	bltu	a5,a3,730 <.L45>

0000046e <.L43>:
 46e:	fcf44783          	lbu	a5,-49(s0)
 472:	2a078f63          	beqz	a5,730 <.L45>
 476:	fcf44783          	lbu	a5,-49(s0)
 47a:	17fd                	addi	a5,a5,-1
 47c:	fcf407a3          	sb	a5,-49(s0)
 480:	fec42783          	lw	a5,-20(s0)
 484:	4f88                	lw	a0,24(a5)
 486:	4fcc                	lw	a1,28(a5)
 488:	fe042603          	lw	a2,-32(s0)
 48c:	fe442683          	lw	a3,-28(s0)
 490:	00a60733          	add	a4,a2,a0
 494:	883a                	mv	a6,a4
 496:	00c83833          	sltu	a6,a6,a2
 49a:	00b687b3          	add	a5,a3,a1
 49e:	00f806b3          	add	a3,a6,a5
 4a2:	87b6                	mv	a5,a3
 4a4:	fee42023          	sw	a4,-32(s0)
 4a8:	fef42223          	sw	a5,-28(s0)
 4ac:	fbc42783          	lw	a5,-68(s0)
 4b0:	4b98                	lw	a4,16(a5)
 4b2:	4bdc                	lw	a5,20(a5)
 4b4:	fd042503          	lw	a0,-48(s0)
 4b8:	fd442583          	lw	a1,-44(s0)
 4bc:	00a70633          	add	a2,a4,a0
 4c0:	8832                	mv	a6,a2
 4c2:	00e83833          	sltu	a6,a6,a4
 4c6:	00b786b3          	add	a3,a5,a1
 4ca:	00d807b3          	add	a5,a6,a3
 4ce:	86be                	mv	a3,a5
 4d0:	8732                	mv	a4,a2
 4d2:	87b6                	mv	a5,a3
 4d4:	fe442683          	lw	a3,-28(s0)
 4d8:	863e                	mv	a2,a5
 4da:	00d66c63          	bltu	a2,a3,4f2 <.L44>
 4de:	fe442683          	lw	a3,-28(s0)
 4e2:	863e                	mv	a2,a5
 4e4:	14c69763          	bne	a3,a2,632 <.L33>
 4e8:	fe042683          	lw	a3,-32(s0)
 4ec:	87ba                	mv	a5,a4
 4ee:	14d7f263          	bgeu	a5,a3,632 <.L33>

000004f2 <.L44>:
 4f2:	000007b7          	lui	a5,0x0
 4f6:	0007c783          	lbu	a5,0(a5) # 0 <sproc_t::sproc_t(void (*)(void*), unsigned long long, unsigned char, void*)>
 4fa:	0ff7f793          	andi	a5,a5,255
 4fe:	e781                	bnez	a5,506 <.L35>
 500:	fcd44783          	lbu	a5,-51(s0)
 504:	c399                	beqz	a5,50a <.L36>

00000506 <.L35>:
 506:	4785                	li	a5,1
 508:	a011                	j	50c <.L37>

0000050a <.L36>:
 50a:	4781                	li	a5,0

0000050c <.L37>:
 50c:	cfb5                	beqz	a5,588 <.L38>
 50e:	fec42783          	lw	a5,-20(s0)
 512:	53d8                	lw	a4,36(a5)
 514:	fbc42783          	lw	a5,-68(s0)
 518:	d3d8                	sw	a4,36(a5)
 51a:	fec42783          	lw	a5,-20(s0)
 51e:	53dc                	lw	a5,36(a5)
 520:	fbc42703          	lw	a4,-68(s0)
 524:	d798                	sw	a4,40(a5)
 526:	fec42783          	lw	a5,-20(s0)
 52a:	fbc42703          	lw	a4,-68(s0)
 52e:	d3d8                	sw	a4,36(a5)
 530:	fbc42783          	lw	a5,-68(s0)
 534:	fec42703          	lw	a4,-20(s0)
 538:	d798                	sw	a4,40(a5)
 53a:	fbc42783          	lw	a5,-68(s0)
 53e:	4b98                	lw	a4,16(a5)
 540:	4bdc                	lw	a5,20(a5)
 542:	fd042603          	lw	a2,-48(s0)
 546:	fd442683          	lw	a3,-44(s0)
 54a:	fd842803          	lw	a6,-40(s0)
 54e:	fdc42883          	lw	a7,-36(s0)
 552:	41060533          	sub	a0,a2,a6
 556:	832a                	mv	t1,a0
 558:	00663333          	sltu	t1,a2,t1
 55c:	411685b3          	sub	a1,a3,a7
 560:	406586b3          	sub	a3,a1,t1
 564:	85b6                	mv	a1,a3
 566:	00a70633          	add	a2,a4,a0
 56a:	8832                	mv	a6,a2
 56c:	00e83833          	sltu	a6,a6,a4
 570:	00b786b3          	add	a3,a5,a1
 574:	00d807b3          	add	a5,a6,a3
 578:	86be                	mv	a3,a5
 57a:	8732                	mv	a4,a2
 57c:	87b6                	mv	a5,a3
 57e:	fbc42683          	lw	a3,-68(s0)
 582:	ce98                	sw	a4,24(a3)
 584:	cedc                	sw	a5,28(a3)
 586:	a89d                	j	5fc <.L39>

00000588 <.L38>:
 588:	fec42783          	lw	a5,-20(s0)
 58c:	fbc42703          	lw	a4,-68(s0)
 590:	d3d8                	sw	a4,36(a5)
 592:	fbc42783          	lw	a5,-68(s0)
 596:	fec42703          	lw	a4,-20(s0)
 59a:	d798                	sw	a4,40(a5)
 59c:	000007b7          	lui	a5,0x0
 5a0:	fbc42703          	lw	a4,-68(s0)
 5a4:	00e7a023          	sw	a4,0(a5) # 0 <sproc_t::sproc_t(void (*)(void*), unsigned long long, unsigned char, void*)>
 5a8:	fbc42783          	lw	a5,-68(s0)
 5ac:	4b98                	lw	a4,16(a5)
 5ae:	4bdc                	lw	a5,20(a5)
 5b0:	853a                	mv	a0,a4
 5b2:	85be                	mv	a1,a5
 5b4:	00000097          	auipc	ra,0x0
 5b8:	000080e7          	jalr	ra # 5b4 <.L38+0x2c>
 5bc:	fbc42783          	lw	a5,-68(s0)
 5c0:	4b98                	lw	a4,16(a5)
 5c2:	4bdc                	lw	a5,20(a5)
 5c4:	fbc42683          	lw	a3,-68(s0)
 5c8:	ce98                	sw	a4,24(a3)
 5ca:	cedc                	sw	a5,28(a3)
 5cc:	fec42783          	lw	a5,-20(s0)
 5d0:	4f98                	lw	a4,24(a5)
 5d2:	4fdc                	lw	a5,28(a5)
 5d4:	fd042503          	lw	a0,-48(s0)
 5d8:	fd442583          	lw	a1,-44(s0)
 5dc:	40a70633          	sub	a2,a4,a0
 5e0:	8832                	mv	a6,a2
 5e2:	01073833          	sltu	a6,a4,a6
 5e6:	40b786b3          	sub	a3,a5,a1
 5ea:	410687b3          	sub	a5,a3,a6
 5ee:	86be                	mv	a3,a5
 5f0:	8732                	mv	a4,a2
 5f2:	87b6                	mv	a5,a3
 5f4:	fec42683          	lw	a3,-20(s0)
 5f8:	ce98                	sw	a4,24(a3)
 5fa:	cedc                	sw	a5,28(a3)

000005fc <.L39>:
 5fc:	fec42783          	lw	a5,-20(s0)
 600:	4f98                	lw	a4,24(a5)
 602:	4fdc                	lw	a5,28(a5)
 604:	fbc42683          	lw	a3,-68(s0)
 608:	4e88                	lw	a0,24(a3)
 60a:	4ecc                	lw	a1,28(a3)
 60c:	40a70633          	sub	a2,a4,a0
 610:	8832                	mv	a6,a2
 612:	01073833          	sltu	a6,a4,a6
 616:	40b786b3          	sub	a3,a5,a1
 61a:	410687b3          	sub	a5,a3,a6
 61e:	86be                	mv	a3,a5
 620:	8732                	mv	a4,a2
 622:	87b6                	mv	a5,a3
 624:	fec42683          	lw	a3,-20(s0)
 628:	ce98                	sw	a4,24(a3)
 62a:	cedc                	sw	a5,28(a3)
 62c:	fc040623          	sb	zero,-52(s0)
 630:	a0a5                	j	698 <.L40>

00000632 <.L33>:
 632:	fcf44783          	lbu	a5,-49(s0)
 636:	e3ad                	bnez	a5,698 <.L40>
 638:	fbc42783          	lw	a5,-68(s0)
 63c:	fec42703          	lw	a4,-20(s0)
 640:	d3d8                	sw	a4,36(a5)
 642:	fbc42783          	lw	a5,-68(s0)
 646:	4b98                	lw	a4,16(a5)
 648:	4bdc                	lw	a5,20(a5)
 64a:	fd042603          	lw	a2,-48(s0)
 64e:	fd442683          	lw	a3,-44(s0)
 652:	fe042803          	lw	a6,-32(s0)
 656:	fe442883          	lw	a7,-28(s0)
 65a:	41060533          	sub	a0,a2,a6
 65e:	832a                	mv	t1,a0
 660:	00663333          	sltu	t1,a2,t1
 664:	411685b3          	sub	a1,a3,a7
 668:	406586b3          	sub	a3,a1,t1
 66c:	85b6                	mv	a1,a3
 66e:	00a70633          	add	a2,a4,a0
 672:	8832                	mv	a6,a2
 674:	00e83833          	sltu	a6,a6,a4
 678:	00b786b3          	add	a3,a5,a1
 67c:	00d807b3          	add	a5,a6,a3
 680:	86be                	mv	a3,a5
 682:	8732                	mv	a4,a2
 684:	87b6                	mv	a5,a3
 686:	fbc42683          	lw	a3,-68(s0)
 68a:	ce98                	sw	a4,24(a3)
 68c:	cedc                	sw	a5,28(a3)
 68e:	fec42783          	lw	a5,-20(s0)
 692:	fbc42703          	lw	a4,-68(s0)
 696:	d798                	sw	a4,40(a5)

00000698 <.L40>:
 698:	fcd44783          	lbu	a5,-51(s0)
 69c:	0785                	addi	a5,a5,1
 69e:	fcf406a3          	sb	a5,-51(s0)
 6a2:	fe042703          	lw	a4,-32(s0)
 6a6:	fe442783          	lw	a5,-28(s0)
 6aa:	fce42c23          	sw	a4,-40(s0)
 6ae:	fcf42e23          	sw	a5,-36(s0)
 6b2:	fec42783          	lw	a5,-20(s0)
 6b6:	579c                	lw	a5,40(a5)
 6b8:	fef42623          	sw	a5,-20(s0)
 6bc:	000007b7          	lui	a5,0x0
 6c0:	0007a783          	lw	a5,0(a5) # 0 <sproc_t::sproc_t(void (*)(void*), unsigned long long, unsigned char, void*)>
 6c4:	0187a903          	lw	s2,24(a5)
 6c8:	01c7a983          	lw	s3,28(a5)
 6cc:	00000097          	auipc	ra,0x0
 6d0:	000080e7          	jalr	ra # 6cc <.L40+0x34>
 6d4:	862a                	mv	a2,a0
 6d6:	86ae                	mv	a3,a1
 6d8:	40c90733          	sub	a4,s2,a2
 6dc:	85ba                	mv	a1,a4
 6de:	00b935b3          	sltu	a1,s2,a1
 6e2:	40d987b3          	sub	a5,s3,a3
 6e6:	40b786b3          	sub	a3,a5,a1
 6ea:	87b6                	mv	a5,a3
 6ec:	fce42823          	sw	a4,-48(s0)
 6f0:	fcf42a23          	sw	a5,-44(s0)
 6f4:	b335                	j	420 <.L41>

000006f6 <.L28>:
 6f6:	000007b7          	lui	a5,0x0
 6fa:	fbc42703          	lw	a4,-68(s0)
 6fe:	00e7a023          	sw	a4,0(a5) # 0 <sproc_t::sproc_t(void (*)(void*), unsigned long long, unsigned char, void*)>
 702:	fbc42783          	lw	a5,-68(s0)
 706:	4b98                	lw	a4,16(a5)
 708:	4bdc                	lw	a5,20(a5)
 70a:	fbc42683          	lw	a3,-68(s0)
 70e:	ce98                	sw	a4,24(a3)
 710:	cedc                	sw	a5,28(a3)
 712:	fbc42783          	lw	a5,-68(s0)
 716:	4b98                	lw	a4,16(a5)
 718:	4bdc                	lw	a5,20(a5)
 71a:	853a                	mv	a0,a4
 71c:	85be                	mv	a1,a5
 71e:	00000097          	auipc	ra,0x0
 722:	000080e7          	jalr	ra # 71e <.L28+0x28>
 726:	00000097          	auipc	ra,0x0
 72a:	000080e7          	jalr	ra # 726 <.L28+0x30>
 72e:	a011                	j	732 <.L42>

00000730 <.L45>:
 730:	0001                	nop

00000732 <.L42>:
 732:	000007b7          	lui	a5,0x0
 736:	0007d783          	lhu	a5,0(a5) # 0 <sproc_t::sproc_t(void (*)(void*), unsigned long long, unsigned char, void*)>
 73a:	0785                	addi	a5,a5,1
 73c:	01079713          	slli	a4,a5,0x10
 740:	8341                	srli	a4,a4,0x10
 742:	000007b7          	lui	a5,0x0
 746:	00e79023          	sh	a4,0(a5) # 0 <sproc_t::sproc_t(void (*)(void*), unsigned long long, unsigned char, void*)>
 74a:	0001                	nop
 74c:	40b6                	lw	ra,76(sp)
 74e:	4426                	lw	s0,72(sp)
 750:	4916                	lw	s2,68(sp)
 752:	4986                	lw	s3,64(sp)
 754:	6161                	addi	sp,sp,80
 756:	8082                	ret

00000758 <sch::sproc_kill(sproc_t*)>:
 758:	7179                	addi	sp,sp,-48
 75a:	d606                	sw	ra,44(sp)
 75c:	d422                	sw	s0,40(sp)
 75e:	d24a                	sw	s2,36(sp)
 760:	d04e                	sw	s3,32(sp)
 762:	1800                	addi	s0,sp,48
 764:	fca42e23          	sw	a0,-36(s0)
 768:	000007b7          	lui	a5,0x0
 76c:	0007d783          	lhu	a5,0(a5) # 0 <sproc_t::sproc_t(void (*)(void*), unsigned long long, unsigned char, void*)>
 770:	fef407a3          	sb	a5,-17(s0)
 774:	000007b7          	lui	a5,0x0
 778:	0007c783          	lbu	a5,0(a5) # 0 <sproc_t::sproc_t(void (*)(void*), unsigned long long, unsigned char, void*)>
 77c:	fef40723          	sb	a5,-18(s0)
 780:	4785                	li	a5,1
 782:	fef406a3          	sb	a5,-19(s0)
 786:	000007b7          	lui	a5,0x0
 78a:	0007a783          	lw	a5,0(a5) # 0 <sproc_t::sproc_t(void (*)(void*), unsigned long long, unsigned char, void*)>
 78e:	fef42423          	sw	a5,-24(s0)
 792:	000007b7          	lui	a5,0x0
 796:	0007c783          	lbu	a5,0(a5) # 0 <sproc_t::sproc_t(void (*)(void*), unsigned long long, unsigned char, void*)>
 79a:	fef40723          	sb	a5,-18(s0)
 79e:	000007b7          	lui	a5,0x0
 7a2:	0007d783          	lhu	a5,0(a5) # 0 <sproc_t::sproc_t(void (*)(void*), unsigned long long, unsigned char, void*)>
 7a6:	20078d63          	beqz	a5,9c0 <.L58>
 7aa:	fdc42783          	lw	a5,-36(s0)
 7ae:	20078963          	beqz	a5,9c0 <.L58>
 7b2:	000007b7          	lui	a5,0x0
 7b6:	0007d783          	lhu	a5,0(a5) # 0 <sproc_t::sproc_t(void (*)(void*), unsigned long long, unsigned char, void*)>
 7ba:	17fd                	addi	a5,a5,-1
 7bc:	01079713          	slli	a4,a5,0x10
 7c0:	8341                	srli	a4,a4,0x10
 7c2:	000007b7          	lui	a5,0x0
 7c6:	00e79023          	sh	a4,0(a5) # 0 <sproc_t::sproc_t(void (*)(void*), unsigned long long, unsigned char, void*)>
 7ca:	fdc42703          	lw	a4,-36(s0)
 7ce:	fe842783          	lw	a5,-24(s0)
 7d2:	0cf71f63          	bne	a4,a5,8b0 <.L48>
 7d6:	000007b7          	lui	a5,0x0
 7da:	0007c783          	lbu	a5,0(a5) # 0 <sproc_t::sproc_t(void (*)(void*), unsigned long long, unsigned char, void*)>
 7de:	0ff7f793          	andi	a5,a5,255
 7e2:	00f037b3          	snez	a5,a5
 7e6:	0ff7f793          	andi	a5,a5,255
 7ea:	cf99                	beqz	a5,808 <.L49>
 7ec:	000007b7          	lui	a5,0x0
 7f0:	0007c783          	lbu	a5,0(a5) # 0 <sproc_t::sproc_t(void (*)(void*), unsigned long long, unsigned char, void*)>
 7f4:	0ff7f793          	andi	a5,a5,255
 7f8:	17fd                	addi	a5,a5,-1
 7fa:	0ff7f713          	andi	a4,a5,255
 7fe:	000007b7          	lui	a5,0x0
 802:	00e78023          	sb	a4,0(a5) # 0 <sproc_t::sproc_t(void (*)(void*), unsigned long long, unsigned char, void*)>
 806:	a869                	j	8a0 <.L50>

00000808 <.L49>:
 808:	000007b7          	lui	a5,0x0
 80c:	0007d783          	lhu	a5,0(a5) # 0 <sproc_t::sproc_t(void (*)(void*), unsigned long long, unsigned char, void*)>
 810:	c7c1                	beqz	a5,898 <.L51>
 812:	000007b7          	lui	a5,0x0
 816:	0007a783          	lw	a5,0(a5) # 0 <sproc_t::sproc_t(void (*)(void*), unsigned long long, unsigned char, void*)>
 81a:	0187a903          	lw	s2,24(a5)
 81e:	01c7a983          	lw	s3,28(a5)
 822:	00000097          	auipc	ra,0x0
 826:	000080e7          	jalr	ra # 822 <.L49+0x1a>
 82a:	862a                	mv	a2,a0
 82c:	86ae                	mv	a3,a1
 82e:	40c90733          	sub	a4,s2,a2
 832:	85ba                	mv	a1,a4
 834:	00b935b3          	sltu	a1,s2,a1
 838:	40d987b3          	sub	a5,s3,a3
 83c:	40b786b3          	sub	a3,a5,a1
 840:	87b6                	mv	a5,a3
 842:	863a                	mv	a2,a4
 844:	86be                	mv	a3,a5
 846:	000007b7          	lui	a5,0x0
 84a:	0007a783          	lw	a5,0(a5) # 0 <sproc_t::sproc_t(void (*)(void*), unsigned long long, unsigned char, void*)>
 84e:	579c                	lw	a5,40(a5)
 850:	4f88                	lw	a0,24(a5)
 852:	4fcc                	lw	a1,28(a5)
 854:	000007b7          	lui	a5,0x0
 858:	0007a783          	lw	a5,0(a5) # 0 <sproc_t::sproc_t(void (*)(void*), unsigned long long, unsigned char, void*)>
 85c:	0287a803          	lw	a6,40(a5)
 860:	00a60733          	add	a4,a2,a0
 864:	88ba                	mv	a7,a4
 866:	00c8b8b3          	sltu	a7,a7,a2
 86a:	00b687b3          	add	a5,a3,a1
 86e:	00f886b3          	add	a3,a7,a5
 872:	87b6                	mv	a5,a3
 874:	00e82c23          	sw	a4,24(a6)
 878:	00f82e23          	sw	a5,28(a6)
 87c:	000007b7          	lui	a5,0x0
 880:	0007a783          	lw	a5,0(a5) # 0 <sproc_t::sproc_t(void (*)(void*), unsigned long long, unsigned char, void*)>
 884:	579c                	lw	a5,40(a5)
 886:	4f98                	lw	a4,24(a5)
 888:	4fdc                	lw	a5,28(a5)
 88a:	853a                	mv	a0,a4
 88c:	85be                	mv	a1,a5
 88e:	00000097          	auipc	ra,0x0
 892:	000080e7          	jalr	ra # 88e <.L49+0x86>
 896:	a029                	j	8a0 <.L50>

00000898 <.L51>:
 898:	00000097          	auipc	ra,0x0
 89c:	000080e7          	jalr	ra # 898 <.L51>

000008a0 <.L50>:
 8a0:	fe842783          	lw	a5,-24(s0)
 8a4:	5798                	lw	a4,40(a5)
 8a6:	000007b7          	lui	a5,0x0
 8aa:	00e7a023          	sw	a4,0(a5) # 0 <sproc_t::sproc_t(void (*)(void*), unsigned long long, unsigned char, void*)>
 8ae:	aa09                	j	9c0 <.L58>

000008b0 <.L48>:
 8b0:	fee44783          	lbu	a5,-18(s0)
 8b4:	cbb1                	beqz	a5,908 <.L57>
 8b6:	fed44783          	lbu	a5,-19(s0)
 8ba:	c7b9                	beqz	a5,908 <.L57>
 8bc:	fee44783          	lbu	a5,-18(s0)
 8c0:	17fd                	addi	a5,a5,-1
 8c2:	fef40723          	sb	a5,-18(s0)
 8c6:	fef44783          	lbu	a5,-17(s0)
 8ca:	17fd                	addi	a5,a5,-1
 8cc:	fef407a3          	sb	a5,-17(s0)
 8d0:	fdc42703          	lw	a4,-36(s0)
 8d4:	fe842783          	lw	a5,-24(s0)
 8d8:	02f71263          	bne	a4,a5,8fc <.L53>
 8dc:	fdc42783          	lw	a5,-36(s0)
 8e0:	53dc                	lw	a5,36(a5)
 8e2:	fdc42703          	lw	a4,-36(s0)
 8e6:	5718                	lw	a4,40(a4)
 8e8:	d798                	sw	a4,40(a5)
 8ea:	fdc42783          	lw	a5,-36(s0)
 8ee:	579c                	lw	a5,40(a5)
 8f0:	fdc42703          	lw	a4,-36(s0)
 8f4:	5358                	lw	a4,36(a4)
 8f6:	d3d8                	sw	a4,36(a5)
 8f8:	fe0406a3          	sb	zero,-19(s0)

000008fc <.L53>:
 8fc:	fe842783          	lw	a5,-24(s0)
 900:	579c                	lw	a5,40(a5)
 902:	fef42423          	sw	a5,-24(s0)
 906:	b76d                	j	8b0 <.L48>

00000908 <.L57>:
 908:	fef44783          	lbu	a5,-17(s0)
 90c:	cbd5                	beqz	a5,9c0 <.L58>
 90e:	fed44783          	lbu	a5,-19(s0)
 912:	c7dd                	beqz	a5,9c0 <.L58>
 914:	fef44783          	lbu	a5,-17(s0)
 918:	17fd                	addi	a5,a5,-1
 91a:	fef407a3          	sb	a5,-17(s0)
 91e:	fdc42703          	lw	a4,-36(s0)
 922:	fe842783          	lw	a5,-24(s0)
 926:	06f71663          	bne	a4,a5,992 <.L54>
 92a:	fef44783          	lbu	a5,-17(s0)
 92e:	e781                	bnez	a5,936 <.L55>
 930:	fe0406a3          	sb	zero,-19(s0)
 934:	a041                	j	9b4 <.L56>

00000936 <.L55>:
 936:	fdc42783          	lw	a5,-36(s0)
 93a:	53dc                	lw	a5,36(a5)
 93c:	fdc42703          	lw	a4,-36(s0)
 940:	5718                	lw	a4,40(a4)
 942:	d798                	sw	a4,40(a5)
 944:	fdc42783          	lw	a5,-36(s0)
 948:	579c                	lw	a5,40(a5)
 94a:	fdc42703          	lw	a4,-36(s0)
 94e:	5358                	lw	a4,36(a4)
 950:	d3d8                	sw	a4,36(a5)
 952:	fdc42783          	lw	a5,-36(s0)
 956:	579c                	lw	a5,40(a5)
 958:	4f98                	lw	a4,24(a5)
 95a:	4fdc                	lw	a5,28(a5)
 95c:	fdc42683          	lw	a3,-36(s0)
 960:	4e88                	lw	a0,24(a3)
 962:	4ecc                	lw	a1,28(a3)
 964:	fdc42683          	lw	a3,-36(s0)
 968:	0286a803          	lw	a6,40(a3)
 96c:	00a70633          	add	a2,a4,a0
 970:	88b2                	mv	a7,a2
 972:	00e8b8b3          	sltu	a7,a7,a4
 976:	00b786b3          	add	a3,a5,a1
 97a:	00d887b3          	add	a5,a7,a3
 97e:	86be                	mv	a3,a5
 980:	8732                	mv	a4,a2
 982:	87b6                	mv	a5,a3
 984:	00e82c23          	sw	a4,24(a6)
 988:	00f82e23          	sw	a5,28(a6)
 98c:	fe0406a3          	sb	zero,-19(s0)
 990:	a015                	j	9b4 <.L56>

00000992 <.L54>:
 992:	fef44783          	lbu	a5,-17(s0)
 996:	ef99                	bnez	a5,9b4 <.L56>
 998:	000007b7          	lui	a5,0x0
 99c:	0007d783          	lhu	a5,0(a5) # 0 <sproc_t::sproc_t(void (*)(void*), unsigned long long, unsigned char, void*)>
 9a0:	0785                	addi	a5,a5,1
 9a2:	01079713          	slli	a4,a5,0x10
 9a6:	8341                	srli	a4,a4,0x10
 9a8:	000007b7          	lui	a5,0x0
 9ac:	00e79023          	sh	a4,0(a5) # 0 <sproc_t::sproc_t(void (*)(void*), unsigned long long, unsigned char, void*)>
 9b0:	fe0406a3          	sb	zero,-19(s0)

000009b4 <.L56>:
 9b4:	fe842783          	lw	a5,-24(s0)
 9b8:	579c                	lw	a5,40(a5)
 9ba:	fef42423          	sw	a5,-24(s0)
 9be:	b7a9                	j	908 <.L57>

000009c0 <.L58>:
 9c0:	0001                	nop
 9c2:	50b2                	lw	ra,44(sp)
 9c4:	5422                	lw	s0,40(sp)
 9c6:	5912                	lw	s2,36(sp)
 9c8:	5982                	lw	s3,32(sp)
 9ca:	6145                	addi	sp,sp,48
 9cc:	8082                	ret

Disassembly of section .gcc_except_table:

00000000 <.LLSDA7>:
   0:	ffff                	0xffff
   2:	          	lb	zero,0(zero) # 0 <.LLSDA7>

Disassembly of section .sbss:

00000000 <sch::sproc_count>:
	...

00000002 <sch::sproc_ready>:
	...

00000004 <sch::sproc_curr>:
   4:	0000                	unimp
	...

Disassembly of section .debug_info:

00000000 <.Ldebug_info0>:
   0:	0991                	addi	s3,s3,4
   2:	0000                	unimp
   4:	0004                	0x4
   6:	0000                	unimp
   8:	0000                	unimp
   a:	0104                	addi	s1,sp,128
   c:	0000                	unimp
   e:	0000                	unimp
  10:	0004                	0x4
	...
  26:	0000                	unimp
  28:	0200                	addi	s0,sp,256
  2a:	00647473          	csrrci	s0,0x6,8
  2e:	0008                	0x8
  30:	00000127          	0x127
  34:	00000003          	lb	zero,0(zero) # 0 <.Ldebug_info0>
  38:	0300                	addi	s0,sp,384
  3a:	011a                	slli	sp,sp,0x6
  3c:	0441                	addi	s0,s0,16
  3e:	41011a03          	lh	s4,1040(sp)
  42:	0034                	addi	a3,sp,8
  44:	0000                	unimp
  46:	0205                	addi	tp,tp,1
  48:	02820b2f          	0x2820b2f
  4c:	0000                	unimp
  4e:	0205                	addi	tp,tp,1
  50:	0b30                	addi	a2,sp,408
  52:	029f 0000 0205      	0x2050000029f
  58:	0b31                	addi	s6,s6,12
  5a:	000002b7          	lui	t0,0x0
  5e:	0205                	addi	tp,tp,1
  60:	0b32                	slli	s6,s6,0xc
  62:	000002cf          	fnmadd.s	ft5,ft0,ft0,ft0,rne
  66:	0205                	addi	tp,tp,1
  68:	0b34                	addi	a3,sp,408
  6a:	00000377          	0x377
  6e:	0205                	addi	tp,tp,1
  70:	0b35                	addi	s6,s6,13
  72:	0000038f          	0x38f
  76:	0205                	addi	tp,tp,1
  78:	0b36                	slli	s6,s6,0xd
  7a:	000003a7          	0x3a7
  7e:	0205                	addi	tp,tp,1
  80:	03bf0b37          	lui	s6,0x3bf0
  84:	0000                	unimp
  86:	0205                	addi	tp,tp,1
  88:	0b39                	addi	s6,s6,14
  8a:	00000317          	auipc	t1,0x0
  8e:	0205                	addi	tp,tp,1
  90:	0b3a                	slli	s6,s6,0xe
  92:	0000032f          	0x32f
  96:	0205                	addi	tp,tp,1
  98:	03470b3b          	0x3470b3b
  9c:	0000                	unimp
  9e:	0205                	addi	tp,tp,1
  a0:	0b3c                	addi	a5,sp,408
  a2:	035f 0000 0205      	0x2050000035f
  a8:	0b3e                	slli	s6,s6,0xf
  aa:	000002e7          	jalr	t0,zero # 0 <.Ldebug_info0>
  ae:	0205                	addi	tp,tp,1
  b0:	02ff0b3f 02050000 	0x205000002ff0b3f
  b8:	0b41                	addi	s6,s6,16
  ba:	028e                	slli	t0,t0,0x3
  bc:	0000                	unimp
  be:	0205                	addi	tp,tp,1
  c0:	0b42                	slli	s6,s6,0x10
  c2:	000002ab          	0x2ab
  c6:	0205                	addi	tp,tp,1
  c8:	02c30b43          	fmadd.d	fs6,ft6,fa2,ft0,rne
  cc:	0000                	unimp
  ce:	0205                	addi	tp,tp,1
  d0:	0b44                	addi	s1,sp,404
  d2:	000002db          	0x2db
  d6:	0205                	addi	tp,tp,1
  d8:	0b46                	slli	s6,s6,0x11
  da:	00000383          	lb	t2,0(zero) # 0 <.Ldebug_info0>
  de:	0205                	addi	tp,tp,1
  e0:	039b0b47          	fmsub.d	fs6,fs6,fs9,ft0,rne
  e4:	0000                	unimp
  e6:	0205                	addi	tp,tp,1
  e8:	0b48                	addi	a0,sp,404
  ea:	000003b3          	add	t2,zero,zero
  ee:	0205                	addi	tp,tp,1
  f0:	0b49                	addi	s6,s6,18
  f2:	000003cb          	fnmsub.s	ft7,ft0,ft0,ft0,rne
  f6:	0205                	addi	tp,tp,1
  f8:	03230b4b          	fnmsub.d	fs6,ft6,fs2,ft0,rne
  fc:	0000                	unimp
  fe:	0205                	addi	tp,tp,1
 100:	0b4c                	addi	a1,sp,404
 102:	0000033b          	0x33b
 106:	0205                	addi	tp,tp,1
 108:	0b4d                	addi	s6,s6,19
 10a:	00000353          	fadd.s	ft6,ft0,ft0,rne
 10e:	0205                	addi	tp,tp,1
 110:	0b4e                	slli	s6,s6,0x13
 112:	0000036b          	0x36b
 116:	0205                	addi	tp,tp,1
 118:	0b50                	addi	a2,sp,404
 11a:	000002f3          	0x2f3
 11e:	0205                	addi	tp,tp,1
 120:	0b51                	addi	s6,s6,20
 122:	0000030b          	0x30b
 126:	0600                	addi	s0,sp,768
 128:	0000                	unimp
 12a:	0000                	unimp
 12c:	0b011c03          	lh	s8,176(sp)
 130:	00000147          	fmsub.s	ft2,ft0,ft0,ft0,rne
 134:	00000003          	lb	zero,0(zero) # 0 <.Ldebug_info0>
 138:	0300                	addi	s0,sp,384
 13a:	011e                	slli	sp,sp,0x7
 13c:	0441                	addi	s0,s0,16
 13e:	41011e03          	lh	t3,1040(sp)
 142:	0134                	addi	a3,sp,136
 144:	0000                	unimp
 146:	0700                	addi	s0,sp,896
 148:	0000                	unimp
 14a:	0000                	unimp
 14c:	2904                	fld	fs1,16(a0)
 14e:	00015317          	auipc	t1,0x15
 152:	0800                	addi	s0,sp,16
 154:	0601                	addi	a2,a2,0
 156:	0000                	unimp
 158:	0000                	unimp
 15a:	00000007          	0x7
 15e:	0400                	addi	s0,sp,512
 160:	0166182b          	0x166182b
 164:	0000                	unimp
 166:	0108                	addi	a0,sp,128
 168:	0008                	0x8
 16a:	0000                	unimp
 16c:	0700                	addi	s0,sp,896
 16e:	0000                	unimp
 170:	0000                	unimp
 172:	3704                	fld	fs1,40(a4)
 174:	7918                	flw	fa4,48(a0)
 176:	0001                	nop
 178:	0800                	addi	s0,sp,16
 17a:	0502                	c.slli64	a0
 17c:	0000                	unimp
 17e:	0000                	unimp
 180:	00000007          	0x7
 184:	0400                	addi	s0,sp,512
 186:	1939                	addi	s2,s2,-18
 188:	018c                	addi	a1,sp,192
 18a:	0000                	unimp
 18c:	0208                	addi	a0,sp,256
 18e:	00000007          	0x7
 192:	0700                	addi	s0,sp,896
 194:	0000                	unimp
 196:	0000                	unimp
 198:	4d04                	lw	s1,24(a0)
 19a:	9f18                	0x9f18
 19c:	0001                	nop
 19e:	0800                	addi	s0,sp,16
 1a0:	0504                	addi	s1,sp,640
 1a2:	0000                	unimp
 1a4:	0000                	unimp
 1a6:	00000007          	0x7
 1aa:	0400                	addi	s0,sp,512
 1ac:	01b2194f          	fnmadd.s	fs2,ft4,fs11,ft0,rtz
 1b0:	0000                	unimp
 1b2:	0408                	addi	a0,sp,512
 1b4:	00000007          	0x7
 1b8:	0700                	addi	s0,sp,896
 1ba:	0000                	unimp
 1bc:	0000                	unimp
 1be:	6704                	flw	fs1,8(a4)
 1c0:	c518                	sw	a4,8(a0)
 1c2:	0001                	nop
 1c4:	0800                	addi	s0,sp,16
 1c6:	0508                	addi	a0,sp,640
 1c8:	0000                	unimp
 1ca:	0000                	unimp
 1cc:	00000007          	0x7
 1d0:	0400                	addi	s0,sp,512
 1d2:	1969                	addi	s2,s2,-6
 1d4:	01d8                	addi	a4,sp,196
 1d6:	0000                	unimp
 1d8:	0808                	addi	a0,sp,16
 1da:	00000007          	0x7
 1de:	0700                	addi	s0,sp,896
 1e0:	0000                	unimp
 1e2:	0000                	unimp
 1e4:	8604                	0x8604
 1e6:	531d                	li	t1,-25
 1e8:	0001                	nop
 1ea:	0700                	addi	s0,sp,896
 1ec:	0000                	unimp
 1ee:	0000                	unimp
 1f0:	8804                	0x8804
 1f2:	661e                	flw	fa2,196(sp)
 1f4:	0001                	nop
 1f6:	0700                	addi	s0,sp,896
 1f8:	0000                	unimp
 1fa:	0000                	unimp
 1fc:	a004                	fsd	fs1,0(s0)
 1fe:	791e                	flw	fs2,228(sp)
 200:	0001                	nop
 202:	0700                	addi	s0,sp,896
 204:	0000                	unimp
 206:	0000                	unimp
 208:	a204                	fsd	fs1,0(a2)
 20a:	8c1f 0001 0700      	0x70000018c1f
 210:	0000                	unimp
 212:	0000                	unimp
 214:	b604                	fsd	fs1,40(a2)
 216:	9f1e                	add	t5,t5,t2
 218:	0001                	nop
 21a:	0700                	addi	s0,sp,896
 21c:	0000                	unimp
 21e:	0000                	unimp
 220:	b804                	fsd	fs1,48(s0)
 222:	b21f 0001 0700      	0x7000001b21f
 228:	0000                	unimp
 22a:	0000                	unimp
 22c:	c804                	sw	s1,16(s0)
 22e:	c51e                	sw	t2,136(sp)
 230:	0001                	nop
 232:	0700                	addi	s0,sp,896
 234:	0000                	unimp
 236:	0000                	unimp
 238:	ca04                	sw	s1,16(a2)
 23a:	d81f 0001 0700      	0x7000001d81f
 240:	0000                	unimp
 242:	0000                	unimp
 244:	d604                	sw	s1,40(a2)
 246:	c519                	beqz	a0,254 <.Ldebug_info0+0x254>
 248:	0001                	nop
 24a:	0700                	addi	s0,sp,896
 24c:	0000                	unimp
 24e:	0000                	unimp
 250:	de04                	sw	s1,56(a2)
 252:	d81a                	sw	t1,48(sp)
 254:	0001                	nop
 256:	0700                	addi	s0,sp,896
 258:	0000                	unimp
 25a:	0000                	unimp
 25c:	e604                	fsw	fs1,8(a2)
 25e:	6319                	lui	t1,0x6
 260:	0002                	c.slli64	zero
 262:	0900                	addi	s0,sp,144
 264:	0504                	addi	s1,sp,640
 266:	6e69                	lui	t3,0x1a
 268:	0074                	addi	a3,sp,12
 26a:	630a                	flw	ft6,128(sp)
 26c:	0002                	c.slli64	zero
 26e:	0700                	addi	s0,sp,896
 270:	0000                	unimp
 272:	0000                	unimp
 274:	e804                	fsw	fs1,16(s0)
 276:	7b1a                	flw	fs6,164(sp)
 278:	0002                	c.slli64	zero
 27a:	0800                	addi	s0,sp,16
 27c:	0704                	addi	s1,sp,896
 27e:	0000                	unimp
 280:	0000                	unimp
 282:	00000007          	0x7
 286:	0500                	addi	s0,sp,640
 288:	1214                	addi	a3,sp,288
 28a:	00000147          	fmsub.s	ft2,ft0,ft0,ft0,rne
 28e:	00000007          	0x7
 292:	0500                	addi	s0,sp,640
 294:	1318                	addi	a4,sp,416
 296:	015a                	slli	sp,sp,0x16
 298:	0000                	unimp
 29a:	00028e0b          	0x28e0b
 29e:	0700                	addi	s0,sp,896
 2a0:	0000                	unimp
 2a2:	0000                	unimp
 2a4:	2005                	jal	2c4 <.Ldebug_info0+0x2c4>
 2a6:	00016d13          	ori	s10,sp,0
 2aa:	0700                	addi	s0,sp,896
 2ac:	0000                	unimp
 2ae:	0000                	unimp
 2b0:	2405                	jal	4d0 <.Ldebug_info0+0x4d0>
 2b2:	8014                	0x8014
 2b4:	0001                	nop
 2b6:	0700                	addi	s0,sp,896
 2b8:	0000                	unimp
 2ba:	0000                	unimp
 2bc:	2c05                	jal	4ec <.Ldebug_info0+0x4ec>
 2be:	00019313          	slli	t1,gp,0x0
 2c2:	0700                	addi	s0,sp,896
 2c4:	0000                	unimp
 2c6:	0000                	unimp
 2c8:	3005                	jal	fffffae8 <.LASF439+0xffff9a79>
 2ca:	a614                	fsd	fa3,8(a2)
 2cc:	0001                	nop
 2ce:	0700                	addi	s0,sp,896
 2d0:	0000                	unimp
 2d2:	0000                	unimp
 2d4:	3805                	jal	fffffb04 <.LASF439+0xffff9a95>
 2d6:	0001b913          	sltiu	s2,gp,0
 2da:	0700                	addi	s0,sp,896
 2dc:	0000                	unimp
 2de:	0000                	unimp
 2e0:	3c05                	jal	fffffd10 <.LASF439+0xffff9ca1>
 2e2:	cc14                	sw	a3,24(s0)
 2e4:	0001                	nop
 2e6:	0700                	addi	s0,sp,896
 2e8:	0000                	unimp
 2ea:	0000                	unimp
 2ec:	4305                	li	t1,1
 2ee:	3f14                	fld	fa3,56(a4)
 2f0:	0002                	c.slli64	zero
 2f2:	0700                	addi	s0,sp,896
 2f4:	0000                	unimp
 2f6:	0000                	unimp
 2f8:	4805                	li	a6,1
 2fa:	4b15                	li	s6,5
 2fc:	0002                	c.slli64	zero
 2fe:	0700                	addi	s0,sp,896
 300:	0000                	unimp
 302:	0000                	unimp
 304:	4d05                	li	s10,1
 306:	5714                	lw	a3,40(a4)
 308:	0002                	c.slli64	zero
 30a:	0700                	addi	s0,sp,896
 30c:	0000                	unimp
 30e:	0000                	unimp
 310:	5205                	li	tp,-31
 312:	6f15                	lui	t5,0x5
 314:	0002                	c.slli64	zero
 316:	0700                	addi	s0,sp,896
 318:	0000                	unimp
 31a:	0000                	unimp
 31c:	1506                	slli	a0,a0,0x21
 31e:	df18                	sw	a4,56(a4)
 320:	0001                	nop
 322:	0700                	addi	s0,sp,896
 324:	0000                	unimp
 326:	0000                	unimp
 328:	1606                	slli	a2,a2,0x21
 32a:	eb19                	bnez	a4,340 <.Ldebug_info0+0x340>
 32c:	0001                	nop
 32e:	0700                	addi	s0,sp,896
 330:	0000                	unimp
 332:	0000                	unimp
 334:	1b06                	slli	s6,s6,0x21
 336:	f719                	bnez	a4,244 <.Ldebug_info0+0x244>
 338:	0001                	nop
 33a:	0700                	addi	s0,sp,896
 33c:	0000                	unimp
 33e:	0000                	unimp
 340:	1c06                	slli	s8,s8,0x21
 342:	031a                	slli	t1,t1,0x6
 344:	0002                	c.slli64	zero
 346:	0700                	addi	s0,sp,896
 348:	0000                	unimp
 34a:	0000                	unimp
 34c:	2106                	fld	ft2,64(sp)
 34e:	0f19                	addi	t5,t5,6
 350:	0002                	c.slli64	zero
 352:	0700                	addi	s0,sp,896
 354:	0000                	unimp
 356:	0000                	unimp
 358:	2206                	fld	ft4,64(sp)
 35a:	1b1a                	slli	s6,s6,0x26
 35c:	0002                	c.slli64	zero
 35e:	0700                	addi	s0,sp,896
 360:	0000                	unimp
 362:	0000                	unimp
 364:	2706                	fld	fa4,64(sp)
 366:	2719                	jal	a6c <.LASF8+0x10>
 368:	0002                	c.slli64	zero
 36a:	0700                	addi	s0,sp,896
 36c:	0000                	unimp
 36e:	0000                	unimp
 370:	2806                	fld	fa6,64(sp)
 372:	331a                	fld	ft6,416(sp)
 374:	0002                	c.slli64	zero
 376:	0700                	addi	s0,sp,896
 378:	0000                	unimp
 37a:	0000                	unimp
 37c:	3306                	fld	ft6,96(sp)
 37e:	631e                	flw	ft6,196(sp)
 380:	0002                	c.slli64	zero
 382:	0700                	addi	s0,sp,896
 384:	0000                	unimp
 386:	0000                	unimp
 388:	3406                	fld	fs0,96(sp)
 38a:	7b1f 0002 0700      	0x70000027b1f
 390:	0000                	unimp
 392:	0000                	unimp
 394:	3d06                	fld	fs10,96(sp)
 396:	631f 0002 0700      	0x7000002631f
 39c:	0000                	unimp
 39e:	0000                	unimp
 3a0:	3e06                	fld	ft8,96(sp)
 3a2:	7b20                	flw	fs0,112(a4)
 3a4:	0002                	c.slli64	zero
 3a6:	0700                	addi	s0,sp,896
 3a8:	0000                	unimp
 3aa:	0000                	unimp
 3ac:	4706                	lw	a4,64(sp)
 3ae:	631f 0002 0700      	0x7000002631f
 3b4:	0000                	unimp
 3b6:	0000                	unimp
 3b8:	4806                	lw	a6,64(sp)
 3ba:	7b20                	flw	fs0,112(a4)
 3bc:	0002                	c.slli64	zero
 3be:	0700                	addi	s0,sp,896
 3c0:	0000                	unimp
 3c2:	0000                	unimp
 3c4:	5106                	lw	sp,96(sp)
 3c6:	c51f 0001 0700      	0x7000001c51f
 3cc:	0000                	unimp
 3ce:	0000                	unimp
 3d0:	5206                	lw	tp,96(sp)
 3d2:	d820                	sw	s0,112(s0)
 3d4:	0001                	nop
 3d6:	0c00                	addi	s0,sp,528
 3d8:	00686373          	csrrsi	t1,0x6,16
 3dc:	640b0807          	0x640b0807
 3e0:	0004                	0x4
 3e2:	0d00                	addi	s0,sp,656
 3e4:	0000                	unimp
 3e6:	0000                	unimp
 3e8:	00150a07          	0x150a07
 3ec:	0000                	unimp
 3ee:	ab00                	fsd	fs0,16(a4)
 3f0:	0002                	c.slli64	zero
 3f2:	0d00                	addi	s0,sp,656
 3f4:	0000                	unimp
 3f6:	0000                	unimp
 3f8:	001d0b07          	0x1d0b07
 3fc:	0000                	unimp
 3fe:	9a00                	0x9a00
 400:	0002                	c.slli64	zero
 402:	0d00                	addi	s0,sp,656
 404:	0000                	unimp
 406:	0000                	unimp
 408:	00160c07          	0x160c07
 40c:	0000                	unimp
 40e:	1500                	addi	s0,sp,672
 410:	0006                	c.slli	zero,0x1
 412:	0e00                	addi	s0,sp,784
 414:	0000                	unimp
 416:	0000                	unimp
 418:	c601                	beqz	a2,420 <.Ldebug_info0+0x420>
 41a:	0006                	c.slli	zero,0x1
 41c:	0000                	unimp
 41e:	2900                	fld	fs0,16(a0)
 420:	0004                	0x4
 422:	0f00                	addi	s0,sp,912
 424:	0615                	addi	a2,a2,5
 426:	0000                	unimp
 428:	0e00                	addi	s0,sp,784
 42a:	0000                	unimp
 42c:	0000                	unimp
 42e:	8101                	c.srli64	a0
 430:	0006                	c.slli	zero,0x1
 432:	0000                	unimp
 434:	3f00                	fld	fs0,56(a4)
 436:	0004                	0x4
 438:	0f00                	addi	s0,sp,912
 43a:	0615                	addi	a2,a2,5
 43c:	0000                	unimp
 43e:	1000                	addi	s0,sp,32
 440:	0000                	unimp
 442:	0000                	unimp
 444:	7d01                	lui	s10,0xfffe0
 446:	0006                	c.slli	zero,0x1
 448:	0000                	unimp
 44a:	1000                	addi	s0,sp,32
 44c:	0000                	unimp
 44e:	0000                	unimp
 450:	5101                	li	sp,-32
 452:	0006                	c.slli	zero,0x1
 454:	0000                	unimp
 456:	1000                	addi	s0,sp,32
 458:	0000                	unimp
 45a:	0000                	unimp
 45c:	4d01                	li	s10,0
 45e:	0006                	c.slli	zero,0x1
 460:	0000                	unimp
 462:	0000                	unimp
 464:	0011                	c.nop	4
 466:	0000                	unimp
 468:	3000                	fld	fs0,32(s0)
 46a:	15072307          	flw	ft6,336(a4)
 46e:	0006                	c.slli	zero,0x1
 470:	1200                	addi	s0,sp,288
 472:	028e0107          	0x28e0107
 476:	0000                	unimp
 478:	920a2907          	flw	fs2,-1760(s4)
 47c:	0004                	0x4
 47e:	1300                	addi	s0,sp,416
 480:	0000                	unimp
 482:	0000                	unimp
 484:	1300                	addi	s0,sp,416
 486:	0000                	unimp
 488:	0000                	unimp
 48a:	1301                	addi	t1,t1,-32
 48c:	0000                	unimp
 48e:	0000                	unimp
 490:	0002                	c.slli64	zero
 492:	0014                	0x14
 494:	0000                	unimp
 496:	0400                	addi	s0,sp,512
 498:	b80b2f07          	flw	ft10,-1152(s6) # 3befb80 <.LASF439+0x3be9b11>
 49c:	0004                	0x4
 49e:	1500                	addi	s0,sp,672
 4a0:	0000                	unimp
 4a2:	0000                	unimp
 4a4:	b8173007          	fld	ft0,-1151(a4)
 4a8:	0004                	0x4
 4aa:	1500                	addi	s0,sp,672
 4ac:	0000                	unimp
 4ae:	0000                	unimp
 4b0:	38173107          	fld	ft2,897(a4)
 4b4:	0006                	c.slli	zero,0x1
 4b6:	0000                	unimp
 4b8:	0016                	c.slli	zero,0x5
 4ba:	0000                	unimp
 4bc:	0700                	addi	s0,sp,896
 4be:	0b25                	addi	s6,s6,9
 4c0:	0620                	addi	s0,sp,776
 4c2:	0000                	unimp
 4c4:	1701                	addi	a4,a4,-32
 4c6:	028e0107          	0x28e0107
 4ca:	0000                	unimp
 4cc:	010a4307          	flq	ft6,16(s4)
 4d0:	04e1                	addi	s1,s1,24
 4d2:	0000                	unimp
 4d4:	00000013          	nop
 4d8:	0000                	unimp
 4da:	00000013          	nop
 4de:	0100                	addi	s0,sp,128
 4e0:	1800                	addi	s0,sp,48
 4e2:	0000                	unimp
 4e4:	0000                	unimp
 4e6:	8e0f3407          	fld	fs0,-1824(t5) # 48e0 <.LASF6+0x9>
 4ea:	0002                	c.slli64	zero
 4ec:	0000                	unimp
 4ee:	0018                	0x18
 4f0:	0000                	unimp
 4f2:	0700                	addi	s0,sp,896
 4f4:	0f35                	addi	t5,t5,13
 4f6:	0492                	slli	s1,s1,0x4
 4f8:	0000                	unimp
 4fa:	1804                	addi	s1,sp,48
 4fc:	0000                	unimp
 4fe:	0000                	unimp
 500:	310f3707          	fld	fa4,784(t5)
 504:	0006                	c.slli	zero,0x1
 506:	0800                	addi	s0,sp,16
 508:	0018                	0x18
 50a:	0000                	unimp
 50c:	0700                	addi	s0,sp,896
 50e:	0f39                	addi	t5,t5,14
 510:	000002db          	0x2db
 514:	1810                	addi	a2,sp,48
 516:	0000                	unimp
 518:	0000                	unimp
 51a:	db0f3a07          	fld	fs4,-592(t5)
 51e:	0002                	c.slli64	zero
 520:	1800                	addi	s0,sp,48
 522:	0018                	0x18
 524:	0000                	unimp
 526:	0700                	addi	s0,sp,896
 528:	0f3c                	addi	a5,sp,920
 52a:	028e                	slli	t0,t0,0x3
 52c:	0000                	unimp
 52e:	1820                	addi	s0,sp,56
 530:	0000                	unimp
 532:	0000                	unimp
 534:	150f3e07          	fld	ft8,336(t5)
 538:	0006                	c.slli	zero,0x1
 53a:	2400                	fld	fs0,8(s0)
 53c:	0018                	0x18
 53e:	0000                	unimp
 540:	0700                	addi	s0,sp,896
 542:	06150f3f 19280000 	0x1928000006150f3f
 54a:	0000                	unimp
 54c:	0000                	unimp
 54e:	00054807          	flq	fa6,0(a0)
 552:	0000                	unimp
 554:	0100                	addi	s0,sp,128
 556:	055e                	slli	a0,a0,0x17
 558:	0000                	unimp
 55a:	0578                	addi	a4,sp,652
 55c:	0000                	unimp
 55e:	151a                	slli	a0,a0,0x26
 560:	0006                	c.slli	zero,0x1
 562:	0f00                	addi	s0,sp,912
 564:	04b8                	addi	a4,sp,584
 566:	0000                	unimp
 568:	0002db0f          	0x2db0f
 56c:	0f00                	addi	s0,sp,912
 56e:	028e                	slli	t0,t0,0x3
 570:	0000                	unimp
 572:	0006310f          	0x6310f
 576:	0000                	unimp
 578:	0019                	c.nop	6
 57a:	0000                	unimp
 57c:	0700                	addi	s0,sp,896
 57e:	054d                	addi	a0,a0,19
 580:	0000                	unimp
 582:	0000                	unimp
 584:	8d01                	sub	a0,a0,s0
 586:	0005                	c.nop	1
 588:	a200                	fsd	fs0,0(a2)
 58a:	0005                	c.nop	1
 58c:	1a00                	addi	s0,sp,304
 58e:	0615                	addi	a2,a2,5
 590:	0000                	unimp
 592:	0006380f          	0x6380f
 596:	0f00                	addi	s0,sp,912
 598:	000002db          	0x2db
 59c:	00028e0f          	0x28e0f
 5a0:	0000                	unimp
 5a2:	0019                	c.nop	6
 5a4:	0000                	unimp
 5a6:	0700                	addi	s0,sp,896
 5a8:	0551                	addi	a0,a0,20
 5aa:	0000                	unimp
 5ac:	0000                	unimp
 5ae:	b701                	j	4ae <.Ldebug_info0+0x4ae>
 5b0:	0005                	c.nop	1
 5b2:	c200                	sw	s0,0(a2)
 5b4:	0005                	c.nop	1
 5b6:	1a00                	addi	s0,sp,304
 5b8:	0615                	addi	a2,a2,5
 5ba:	0000                	unimp
 5bc:	631a                	flw	ft6,132(sp)
 5be:	0002                	c.slli64	zero
 5c0:	0000                	unimp
 5c2:	0019                	c.nop	6
 5c4:	0000                	unimp
 5c6:	0700                	addi	s0,sp,896
 5c8:	00000a53          	fadd.s	fs4,ft0,ft0,rne
 5cc:	0000                	unimp
 5ce:	d701                	beqz	a4,4d6 <.Ldebug_info0+0x4d6>
 5d0:	0005                	c.nop	1
 5d2:	dd00                	sw	s0,56(a0)
 5d4:	0005                	c.nop	1
 5d6:	1a00                	addi	s0,sp,304
 5d8:	0615                	addi	a2,a2,5
 5da:	0000                	unimp
 5dc:	1900                	addi	s0,sp,176
 5de:	0000                	unimp
 5e0:	0000                	unimp
 5e2:	000a5507          	0xa5507
 5e6:	0000                	unimp
 5e8:	0100                	addi	s0,sp,128
 5ea:	05f2                	slli	a1,a1,0x1c
 5ec:	0000                	unimp
 5ee:	05f8                	addi	a4,sp,716
 5f0:	0000                	unimp
 5f2:	151a                	slli	a0,a0,0x26
 5f4:	0006                	c.slli	zero,0x1
 5f6:	0000                	unimp
 5f8:	0000001b          	0x1b
 5fc:	0700                	addi	s0,sp,896
 5fe:	0a56                	slli	s4,s4,0x15
 600:	0000                	unimp
 602:	0000                	unimp
 604:	0901                	addi	s2,s2,0
 606:	0006                	c.slli	zero,0x1
 608:	1a00                	addi	s0,sp,304
 60a:	0615                	addi	a2,a2,5
 60c:	0000                	unimp
 60e:	00028e0f          	0x28e0f
 612:	0000                	unimp
 614:	1c00                	addi	s0,sp,560
 616:	6404                	flw	fs1,8(s0)
 618:	0004                	0x4
 61a:	0a00                	addi	s0,sp,272
 61c:	0615                	addi	a2,a2,5
 61e:	0000                	unimp
 620:	041c                	addi	a5,sp,512
 622:	0626                	slli	a2,a2,0x9
 624:	0000                	unimp
 626:	311d                	jal	24c <.Ldebug_info0+0x24c>
 628:	0006                	c.slli	zero,0x1
 62a:	0f00                	addi	s0,sp,912
 62c:	0631                	addi	a2,a2,12
 62e:	0000                	unimp
 630:	1e00                	addi	s0,sp,816
 632:	1f04                	addi	s1,sp,944
 634:	0000                	unimp
 636:	0000                	unimp
 638:	041c                	addi	a5,sp,512
 63a:	00000633          	add	a2,zero,zero
 63e:	e320                	fsw	fs0,64(a4)
 640:	01000003          	lb	zero,16(zero) # 10 <.Ldebug_info0+0x10>
 644:	1249                	addi	tp,tp,-14
 646:	0305                	addi	t1,t1,1
 648:	0000                	unimp
 64a:	0000                	unimp
 64c:	f320                	fsw	fs0,96(a4)
 64e:	01000003          	lb	zero,16(zero) # 10 <.Ldebug_info0+0x10>
 652:	124a                	slli	tp,tp,0x32
 654:	0305                	addi	t1,t1,1
 656:	0000                	unimp
 658:	0000                	unimp
 65a:	0320                	addi	s0,sp,392
 65c:	0004                	0x4
 65e:	0100                	addi	s0,sp,128
 660:	0305124b          	fnmsub.d	ft4,fa0,fa6,ft0,rtz
 664:	0000                	unimp
 666:	0000                	unimp
 668:	1321                	addi	t1,t1,-24
 66a:	0004                	0x4
	...
 674:	0100                	addi	s0,sp,128
 676:	c79c                	sw	a5,8(a5)
 678:	0006                	c.slli	zero,0x1
 67a:	2200                	fld	fs0,0(a2)
 67c:	0000                	unimp
 67e:	0000                	unimp
 680:	c601                	beqz	a2,688 <.Ldebug_info0+0x688>
 682:	1520                	addi	s0,sp,680
 684:	0006                	c.slli	zero,0x1
 686:	0200                	addi	s0,sp,256
 688:	5c91                	li	s9,-28
 68a:	00000023          	sb	zero,0(zero) # 0 <.Ldebug_info0>
 68e:	0100                	addi	s0,sp,128
 690:	028e0dc7          	fmsub.d	fs11,ft8,fs0,ft0,rne
 694:	0000                	unimp
 696:	9102                	jalr	sp
 698:	0000236f          	jal	t1,2698 <.LASF643+0x11>
 69c:	0000                	unimp
 69e:	c801                	beqz	s0,6ae <.Ldebug_info0+0x6ae>
 6a0:	8e0d                	sub	a2,a2,a1
 6a2:	0002                	c.slli64	zero
 6a4:	0200                	addi	s0,sp,256
 6a6:	6e91                	lui	t4,0x4
 6a8:	00000023          	sb	zero,0(zero) # 0 <.Ldebug_info0>
 6ac:	0100                	addi	s0,sp,128
 6ae:	0dc9                	addi	s11,s11,18
 6b0:	028e                	slli	t0,t0,0x3
 6b2:	0000                	unimp
 6b4:	9102                	jalr	sp
 6b6:	236d                	jal	c60 <.LASF228+0x37>
 6b8:	0000                	unimp
 6ba:	0000                	unimp
 6bc:	ca01                	beqz	a2,6cc <.Ldebug_info0+0x6cc>
 6be:	0006150f          	0x6150f
 6c2:	0200                	addi	s0,sp,256
 6c4:	6891                	lui	a7,0x4
 6c6:	2100                	fld	fs0,0(a0)
 6c8:	0429                	addi	s0,s0,10
	...
 6d2:	0000                	unimp
 6d4:	9c01                	0x9c01
 6d6:	00000763          	beqz	zero,6e4 <.Ldebug_info0+0x6e4>
 6da:	0022                	c.slli	zero,0x8
 6dc:	0000                	unimp
 6de:	0100                	addi	s0,sp,128
 6e0:	1f81                	addi	t6,t6,-32
 6e2:	0615                	addi	a2,a2,5
 6e4:	0000                	unimp
 6e6:	7fbc9103          	lh	sp,2043(s9)
 6ea:	00000023          	sb	zero,0(zero) # 0 <.Ldebug_info0>
 6ee:	0100                	addi	s0,sp,128
 6f0:	0f82                	c.slli64	t6
 6f2:	0615                	addi	a2,a2,5
 6f4:	0000                	unimp
 6f6:	9102                	jalr	sp
 6f8:	236c                	fld	fa1,192(a4)
 6fa:	0000                	unimp
 6fc:	0000                	unimp
 6fe:	8301                	c.srli64	a4
 700:	0002db0f          	0x2db0f
 704:	0200                	addi	s0,sp,256
 706:	6091                	lui	ra,0x4
 708:	00000023          	sb	zero,0(zero) # 0 <.Ldebug_info0>
 70c:	0100                	addi	s0,sp,128
 70e:	0f84                	addi	s1,sp,976
 710:	000002db          	0x2db
 714:	9102                	jalr	sp
 716:	2358                	fld	fa4,128(a4)
 718:	0000                	unimp
 71a:	0000                	unimp
 71c:	8501                	c.srai64	a0
 71e:	0002db0f          	0x2db0f
 722:	0200                	addi	s0,sp,256
 724:	5091                	li	ra,-28
 726:	00000023          	sb	zero,0(zero) # 0 <.Ldebug_info0>
 72a:	0100                	addi	s0,sp,128
 72c:	0f86                	slli	t6,t6,0x1
 72e:	028e                	slli	t0,t0,0x3
 730:	0000                	unimp
 732:	9102                	jalr	sp
 734:	0000234f          	fnmadd.s	ft6,ft0,ft0,ft0,rdn
 738:	0000                	unimp
 73a:	8701                	c.srai64	a4
 73c:	00028e0f          	0x28e0f
 740:	0200                	addi	s0,sp,256
 742:	4e91                	li	t4,4
 744:	00000023          	sb	zero,0(zero) # 0 <.Ldebug_info0>
 748:	0100                	addi	s0,sp,128
 74a:	0f88                	addi	a0,sp,976
 74c:	028e                	slli	t0,t0,0x3
 74e:	0000                	unimp
 750:	9102                	jalr	sp
 752:	234d                	jal	cf4 <.LASF590+0x9>
 754:	0000                	unimp
 756:	0000                	unimp
 758:	8901                	andi	a0,a0,0
 75a:	00028e0f          	0x28e0f
 75e:	0200                	addi	s0,sp,256
 760:	4c91                	li	s9,4
 762:	2400                	fld	fs0,8(s0)
 764:	0000043f 00000000 	0x43f
 76c:	0000                	unimp
 76e:	0000                	unimp
 770:	9c01                	0x9c01
 772:	4b21                	li	s6,8
 774:	0004                	0x4
	...
 77e:	0100                	addi	s0,sp,128
 780:	b39c                	fsd	fa5,32(a5)
 782:	23000007          	0x23000007
 786:	0000                	unimp
 788:	0000                	unimp
 78a:	5201                	li	tp,-32
 78c:	0006150f          	0x6150f
 790:	0200                	addi	s0,sp,256
 792:	6c91                	lui	s9,0x4
 794:	00000023          	sb	zero,0(zero) # 0 <.Ldebug_info0>
 798:	0100                	addi	s0,sp,128
 79a:	06150f53          	fadd.q	ft10,fa0,ft1,rne
 79e:	0000                	unimp
 7a0:	9102                	jalr	sp
 7a2:	2364                	fld	fs1,192(a4)
 7a4:	0000                	unimp
 7a6:	0000                	unimp
 7a8:	5401                	li	s0,-32
 7aa:	00028e0f          	0x28e0f
 7ae:	0200                	addi	s0,sp,256
 7b0:	6b91                	lui	s7,0x4
 7b2:	2500                	fld	fs0,8(a0)
 7b4:	00000457          	0x457
	...
 7c0:	9c01                	0x9c01
 7c2:	f826                	fsw	fs1,48(sp)
 7c4:	0005                	c.nop	1
 7c6:	0100                	addi	s0,sp,128
 7c8:	0639                	addi	a2,a2,14
 7ca:	07dc                	addi	a5,sp,964
	...
 7d4:	0000                	unimp
 7d6:	9c01                	0x9c01
 7d8:	07f8                	addi	a4,sp,972
 7da:	0000                	unimp
 7dc:	00000027          	0x27
 7e0:	1b00                	addi	s0,sp,432
 7e2:	0006                	c.slli	zero,0x1
 7e4:	0200                	addi	s0,sp,256
 7e6:	6c91                	lui	s9,0x4
 7e8:	6128                	flw	fa0,64(a0)
 7ea:	6772                	flw	fa4,28(sp)
 7ec:	0100                	addi	s0,sp,128
 7ee:	2139                	jal	bfc <.LASF675+0x8>
 7f0:	028e                	slli	t0,t0,0x3
 7f2:	0000                	unimp
 7f4:	9102                	jalr	sp
 7f6:	dd26006b          	0xdd26006b
 7fa:	0005                	c.nop	1
 7fc:	0100                	addi	s0,sp,128
 7fe:	0635                	addi	a2,a2,13
 800:	0812                	slli	a6,a6,0x4
	...
 80a:	0000                	unimp
 80c:	9c01                	0x9c01
 80e:	081f 0000 0027      	0x270000081f
 814:	0000                	unimp
 816:	1b00                	addi	s0,sp,432
 818:	0006                	c.slli	zero,0x1
 81a:	0200                	addi	s0,sp,256
 81c:	6c91                	lui	s9,0x4
 81e:	2600                	fld	fs0,8(a2)
 820:	05c2                	slli	a1,a1,0x10
 822:	0000                	unimp
 824:	2401                	jal	a24 <.LASF221+0x13>
 826:	3906                	fld	fs2,96(sp)
 828:	0008                	0x8
	...
 832:	0100                	addi	s0,sp,128
 834:	469c                	lw	a5,8(a3)
 836:	0008                	0x8
 838:	2700                	fld	fs0,8(a4)
 83a:	0000                	unimp
 83c:	0000                	unimp
 83e:	0000061b          	0x61b
 842:	9102                	jalr	sp
 844:	006c                	addi	a1,sp,12
 846:	a229                	j	950 <.Ldebug_info0+0x950>
 848:	0005                	c.nop	1
 84a:	0100                	addi	s0,sp,128
 84c:	011f 0857 0000      	0x857011f
 852:	6a00                	flw	fs0,16(a2)
 854:	0008                	0x8
 856:	2a00                	fld	fs0,16(a2)
 858:	0000                	unimp
 85a:	0000                	unimp
 85c:	0000061b          	0x61b
 860:	002a                	c.slli	zero,0xa
 862:	0000                	unimp
 864:	6a00                	flw	fs0,16(a2)
 866:	0002                	c.slli64	zero
 868:	0000                	unimp
 86a:	0008462b          	0x8462b
 86e:	0000                	unimp
 870:	0000                	unimp
 872:	8500                	0x8500
 874:	0008                	0x8
	...
 87e:	0100                	addi	s0,sp,128
 880:	8e9c                	0x8e9c
 882:	0008                	0x8
 884:	2c00                	fld	fs0,24(s0)
 886:	00000857          	0x857
 88a:	9102                	jalr	sp
 88c:	006c                	addi	a1,sp,12
 88e:	7829                	lui	a6,0xfffea
 890:	0005                	c.nop	1
 892:	0100                	addi	s0,sp,128
 894:	089f0113          	addi	sp,t5,137
 898:	0000                	unimp
 89a:	cd00                	sw	s0,24(a0)
 89c:	0008                	0x8
 89e:	2a00                	fld	fs0,16(a2)
 8a0:	0000                	unimp
 8a2:	0000                	unimp
 8a4:	0000061b          	0x61b
 8a8:	002d                	c.nop	11
 8aa:	0000                	unimp
 8ac:	0100                	addi	s0,sp,128
 8ae:	1314                	addi	a3,sp,416
 8b0:	0638                	addi	a4,sp,776
 8b2:	0000                	unimp
 8b4:	002d                	c.nop	11
 8b6:	0000                	unimp
 8b8:	0100                	addi	s0,sp,128
 8ba:	1315                	addi	t1,t1,-27
 8bc:	000002db          	0x2db
 8c0:	002d                	c.nop	11
 8c2:	0000                	unimp
 8c4:	0100                	addi	s0,sp,128
 8c6:	1316                	slli	t1,t1,0x25
 8c8:	028e                	slli	t0,t0,0x3
 8ca:	0000                	unimp
 8cc:	2e00                	fld	fs0,24(a2)
 8ce:	088e                	slli	a7,a7,0x3
 8d0:	0000                	unimp
 8d2:	0000                	unimp
 8d4:	0000                	unimp
 8d6:	08e8                	addi	a0,sp,92
	...
 8e0:	0000                	unimp
 8e2:	9c01                	0x9c01
 8e4:	0909                	addi	s2,s2,2
 8e6:	0000                	unimp
 8e8:	9f2c                	0x9f2c
 8ea:	0008                	0x8
 8ec:	0200                	addi	s0,sp,256
 8ee:	6c91                	lui	s9,0x4
 8f0:	a82c                	fsd	fa1,80(s0)
 8f2:	0008                	0x8
 8f4:	0200                	addi	s0,sp,256
 8f6:	6891                	lui	a7,0x4
 8f8:	b42c                	fsd	fa1,104(s0)
 8fa:	0008                	0x8
 8fc:	0200                	addi	s0,sp,256
 8fe:	6091                	lui	ra,0x4
 900:	c02c                	sw	a1,64(s0)
 902:	0008                	0x8
 904:	0200                	addi	s0,sp,256
 906:	5f91                	li	t6,-28
 908:	2900                	fld	fs0,16(a0)
 90a:	0549                	addi	a0,a0,18
 90c:	0000                	unimp
 90e:	0501                	addi	a0,a0,0
 910:	1a01                	addi	s4,s4,-32
 912:	0009                	c.nop	2
 914:	0000                	unimp
 916:	0954                	addi	a3,sp,148
 918:	0000                	unimp
 91a:	002a                	c.slli	zero,0xa
 91c:	0000                	unimp
 91e:	1b00                	addi	s0,sp,432
 920:	0006                	c.slli	zero,0x1
 922:	2d00                	fld	fs0,24(a0)
 924:	0000                	unimp
 926:	0000                	unimp
 928:	0601                	addi	a2,a2,0
 92a:	b811                	j	13e <.Ldebug_info0+0x13e>
 92c:	0004                	0x4
 92e:	2d00                	fld	fs0,24(a0)
 930:	0000                	unimp
 932:	0000                	unimp
 934:	0701                	addi	a4,a4,0
 936:	db10                	sw	a2,48(a4)
 938:	0002                	c.slli64	zero
 93a:	2d00                	fld	fs0,24(a0)
 93c:	0000                	unimp
 93e:	0000                	unimp
 940:	0801                	addi	a6,a6,0
 942:	8e10                	0x8e10
 944:	0002                	c.slli64	zero
 946:	2d00                	fld	fs0,24(a0)
 948:	0000                	unimp
 94a:	0000                	unimp
 94c:	0901                	addi	s2,s2,0
 94e:	3110                	fld	fa2,32(a0)
 950:	0006                	c.slli	zero,0x1
 952:	0000                	unimp
 954:	0009092f          	0x9092f
 958:	0000                	unimp
 95a:	0000                	unimp
 95c:	6b00                	flw	fs0,16(a4)
 95e:	0009                	c.nop	2
	...
 968:	0100                	addi	s0,sp,128
 96a:	2c9c                	fld	fa5,24(s1)
 96c:	091a                	slli	s2,s2,0x6
 96e:	0000                	unimp
 970:	9102                	jalr	sp
 972:	2c6c                	fld	fa1,216(s0)
 974:	00000923          	sb	zero,18(zero) # 12 <.Ldebug_info0+0x12>
 978:	9102                	jalr	sp
 97a:	2c68                	fld	fa0,216(s0)
 97c:	0000092f          	0x92f
 980:	9102                	jalr	sp
 982:	2c60                	fld	fs0,216(s0)
 984:	0000093b          	0x93b
 988:	9102                	jalr	sp
 98a:	2c5f 0947 0000      	0x9472c5f
 990:	9102                	jalr	sp
 992:	0058                	addi	a4,sp,4
	...

Disassembly of section .debug_abbrev:

00000000 <.Ldebug_abbrev0>:
   0:	1101                	addi	sp,sp,-32
   2:	2501                	jal	602 <.L39+0x6>
   4:	130e                	slli	t1,t1,0x23
   6:	1b0e030b          	0x1b0e030b
   a:	110e                	slli	sp,sp,0x23
   c:	1201                	addi	tp,tp,-32
   e:	1006                	c.slli	zero,0x21
  10:	17429917          	auipc	s2,0x17429
  14:	0000                	unimp
  16:	3902                	fld	fs2,32(sp)
  18:	0301                	addi	t1,t1,0
  1a:	3a08                	fld	fa0,48(a2)
  1c:	010b3b0b          	0x10b3b0b
  20:	03000013          	li	zero,48
  24:	0039                	c.nop	14
  26:	0b3a0e03          	lb	t3,179(s4)
  2a:	0b39053b          	0xb39053b
  2e:	0189                	addi	gp,gp,2
  30:	0019                	c.nop	6
  32:	0400                	addi	s0,sp,512
  34:	003a                	c.slli	zero,0xe
  36:	0b3a                	slli	s6,s6,0xe
  38:	0b39053b          	0xb39053b
  3c:	1318                	addi	a4,sp,416
  3e:	0000                	unimp
  40:	0805                	addi	a6,a6,1
  42:	3a00                	fld	fs0,48(a2)
  44:	390b3b0b          	0x390b3b0b
  48:	0013180b          	0x13180b
  4c:	0600                	addi	s0,sp,768
  4e:	0139                	addi	sp,sp,14
  50:	0b3a0e03          	lb	t3,179(s4)
  54:	0b39053b          	0xb39053b
  58:	1301                	addi	t1,t1,-32
  5a:	0000                	unimp
  5c:	03001607          	0x3001607
  60:	3a0e                	fld	fs4,224(sp)
  62:	390b3b0b          	0x390b3b0b
  66:	0013490b          	0x13490b
  6a:	0800                	addi	s0,sp,16
  6c:	0024                	addi	s1,sp,8
  6e:	0b3e0b0b          	0xb3e0b0b
  72:	00000e03          	lb	t3,0(zero) # 0 <.Ldebug_abbrev0>
  76:	2409                	jal	278 <.Ldebug_abbrev0+0x278>
  78:	0b00                	addi	s0,sp,400
  7a:	030b3e0b          	0x30b3e0b
  7e:	0008                	0x8
  80:	0a00                	addi	s0,sp,272
  82:	0026                	c.slli	zero,0x9
  84:	1349                	addi	t1,t1,-14
  86:	0000                	unimp
  88:	4900350b          	0x4900350b
  8c:	0c000013          	li	zero,192
  90:	0139                	addi	sp,sp,14
  92:	0b3a0803          	lb	a6,179(s4)
  96:	0b390b3b          	0xb390b3b
  9a:	1301                	addi	t1,t1,-32
  9c:	0000                	unimp
  9e:	340d                	jal	fffffac0 <.LASF439+0xffff9a51>
  a0:	0300                	addi	s0,sp,384
  a2:	3a0e                	fld	fs4,224(sp)
  a4:	390b3b0b          	0x390b3b0b
  a8:	490e6e0b          	0x490e6e0b
  ac:	3c193f13          	sltiu	t5,s2,961
  b0:	0019                	c.nop	6
  b2:	0e00                	addi	s0,sp,784
  b4:	012e                	slli	sp,sp,0xb
  b6:	0e03193f 0b3b0b3a 	0xb3b0b3a0e03193f
  be:	0b39                	addi	s6,s6,14
  c0:	0e6e                	slli	t3,t3,0x1b
  c2:	193c                	addi	a5,sp,184
  c4:	1301                	addi	t1,t1,-32
  c6:	0000                	unimp
  c8:	4900050f          	0x4900050f
  cc:	10000013          	li	zero,256
  d0:	002e                	c.slli	zero,0xb
  d2:	0e03193f 0b3b0b3a 	0xb3b0b3a0e03193f
  da:	0b39                	addi	s6,s6,14
  dc:	0e6e                	slli	t3,t3,0x1b
  de:	193c                	addi	a5,sp,184
  e0:	0000                	unimp
  e2:	0211                	addi	tp,tp,4
  e4:	0301                	addi	t1,t1,0
  e6:	0b0e                	slli	s6,s6,0x3
  e8:	3b0b3a0b          	0x3b0b3a0b
  ec:	010b390b          	0x10b390b
  f0:	12000013          	li	zero,288
  f4:	0104                	addi	s1,sp,128
  f6:	0b3e                	slli	s6,s6,0xf
  f8:	13490b0b          	0x13490b0b
  fc:	0b3a                	slli	s6,s6,0xe
  fe:	0b390b3b          	0xb390b3b
 102:	1301                	addi	t1,t1,-32
 104:	0000                	unimp
 106:	03002813          	slti	a6,zero,48
 10a:	1c0e                	slli	s8,s8,0x23
 10c:	1400000b          	0x1400000b
 110:	0e030117          	auipc	sp,0xe030
 114:	0b3a0b0b          	0xb3a0b0b
 118:	0b390b3b          	0xb390b3b
 11c:	1301                	addi	t1,t1,-32
 11e:	0000                	unimp
 120:	0d15                	addi	s10,s10,5
 122:	0300                	addi	s0,sp,384
 124:	3a0e                	fld	fs4,224(sp)
 126:	390b3b0b          	0x390b3b0b
 12a:	0013490b          	0x13490b
 12e:	1600                	addi	s0,sp,800
 130:	0016                	c.slli	zero,0x5
 132:	0b3a0e03          	lb	t3,179(s4)
 136:	0b390b3b          	0xb390b3b
 13a:	1349                	addi	t1,t1,-14
 13c:	0b32                	slli	s6,s6,0xc
 13e:	0000                	unimp
 140:	3e010417          	auipc	s0,0x3e010
 144:	490b0b0b          	0x490b0b0b
 148:	3b0b3a13          	sltiu	s4,s6,944
 14c:	320b390b          	0x320b390b
 150:	0013010b          	0x13010b
 154:	1800                	addi	s0,sp,48
 156:	000d                	c.nop	3
 158:	0b3a0e03          	lb	t3,179(s4)
 15c:	0b390b3b          	0xb390b3b
 160:	1349                	addi	t1,t1,-14
 162:	0b38                	addi	a4,sp,408
 164:	0000                	unimp
 166:	2e19                	jal	47c <.LASF98+0xc>
 168:	3f01                	jal	78 <.Ldebug_abbrev0+0x78>
 16a:	0319                	addi	t1,t1,6
 16c:	3a0e                	fld	fs4,224(sp)
 16e:	390b3b0b          	0x390b3b0b
 172:	320e6e0b          	0x320e6e0b
 176:	64193c0b          	0x64193c0b
 17a:	00130113          	addi	sp,t1,1 # 6001 <.LASF802+0x3>
 17e:	1a00                	addi	s0,sp,304
 180:	0005                	c.nop	1
 182:	1349                	addi	t1,t1,-14
 184:	1934                	addi	a3,sp,184
 186:	0000                	unimp
 188:	3f012e1b          	0x3f012e1b
 18c:	0319                	addi	t1,t1,6
 18e:	3a0e                	fld	fs4,224(sp)
 190:	390b3b0b          	0x390b3b0b
 194:	320e6e0b          	0x320e6e0b
 198:	64193c0b          	0x64193c0b
 19c:	1c000013          	li	zero,448
 1a0:	0b0b000f          	0xb0b000f
 1a4:	1349                	addi	t1,t1,-14
 1a6:	0000                	unimp
 1a8:	151d                	addi	a0,a0,-25
 1aa:	0101                	addi	sp,sp,0
 1ac:	1e000013          	li	zero,480
 1b0:	0b0b000f          	0xb0b000f
 1b4:	0000                	unimp
 1b6:	021f 0300 3c0e      	0x3c0e0300021f
 1bc:	0019                	c.nop	6
 1be:	2000                	fld	fs0,0(s0)
 1c0:	0034                	addi	a3,sp,8
 1c2:	0b3a1347          	fmsub.d	ft6,fs4,fs3,ft1,rtz
 1c6:	0b390b3b          	0xb390b3b
 1ca:	1802                	slli	a6,a6,0x20
 1cc:	0000                	unimp
 1ce:	2e21                	jal	4e6 <.LASF227+0x39>
 1d0:	4701                	li	a4,0
 1d2:	12011113          	0x12011113
 1d6:	4006                	0x4006
 1d8:	9618                	0x9618
 1da:	1942                	slli	s2,s2,0x30
 1dc:	1301                	addi	t1,t1,-32
 1de:	0000                	unimp
 1e0:	0522                	slli	a0,a0,0x8
 1e2:	0300                	addi	s0,sp,384
 1e4:	3a0e                	fld	fs4,224(sp)
 1e6:	390b3b0b          	0x390b3b0b
 1ea:	0213490b          	0x213490b
 1ee:	0018                	0x18
 1f0:	2300                	fld	fs0,0(a4)
 1f2:	0034                	addi	a3,sp,8
 1f4:	0b3a0e03          	lb	t3,179(s4)
 1f8:	0b390b3b          	0xb390b3b
 1fc:	1349                	addi	t1,t1,-14
 1fe:	1802                	slli	a6,a6,0x20
 200:	0000                	unimp
 202:	2e24                	fld	fs1,88(a2)
 204:	4700                	lw	s0,8(a4)
 206:	12011113          	0x12011113
 20a:	4006                	0x4006
 20c:	9718                	0x9718
 20e:	1942                	slli	s2,s2,0x30
 210:	0000                	unimp
 212:	2e25                	jal	54a <.LASF2+0xf>
 214:	4700                	lw	s0,8(a4)
 216:	12011113          	0x12011113
 21a:	4006                	0x4006
 21c:	9618                	0x9618
 21e:	1942                	slli	s2,s2,0x30
 220:	0000                	unimp
 222:	2e26                	fld	ft8,72(sp)
 224:	4701                	li	a4,0
 226:	3b0b3a13          	sltiu	s4,s6,944
 22a:	640b390b          	0x640b390b
 22e:	12011113          	0x12011113
 232:	4006                	0x4006
 234:	9618                	0x9618
 236:	1942                	slli	s2,s2,0x30
 238:	1301                	addi	t1,t1,-32
 23a:	0000                	unimp
 23c:	03000527          	0x3000527
 240:	490e                	lw	s2,192(sp)
 242:	02193413          	sltiu	s0,s2,33
 246:	0018                	0x18
 248:	2800                	fld	fs0,16(s0)
 24a:	0005                	c.nop	1
 24c:	0b3a0803          	lb	a6,179(s4)
 250:	0b390b3b          	0xb390b3b
 254:	1349                	addi	t1,t1,-14
 256:	1802                	slli	a6,a6,0x20
 258:	0000                	unimp
 25a:	2e29                	jal	574 <.LASF732+0x27>
 25c:	4701                	li	a4,0
 25e:	3b0b3a13          	sltiu	s4,s6,944
 262:	640b390b          	0x640b390b
 266:	010b2013          	slti	zero,s6,16
 26a:	2a000013          	li	zero,672
 26e:	0005                	c.nop	1
 270:	13490e03          	lb	t3,308(s2) # 17429144 <.LASF439+0x174230d5>
 274:	1934                	addi	a3,sp,184
 276:	0000                	unimp
 278:	31012e2b          	0x31012e2b
 27c:	640e6e13          	ori	t3,t3,1600
 280:	12011113          	0x12011113
 284:	4006                	0x4006
 286:	9618                	0x9618
 288:	1942                	slli	s2,s2,0x30
 28a:	1301                	addi	t1,t1,-32
 28c:	0000                	unimp
 28e:	052c                	addi	a1,sp,648
 290:	3100                	fld	fs0,32(a0)
 292:	00180213          	addi	tp,a6,1 # fffea001 <.LASF439+0xfffe3f92>
 296:	2d00                	fld	fs0,24(a0)
 298:	0005                	c.nop	1
 29a:	0b3a0e03          	lb	t3,179(s4)
 29e:	0b390b3b          	0xb390b3b
 2a2:	1349                	addi	t1,t1,-14
 2a4:	0000                	unimp
 2a6:	2e2e                	fld	ft8,200(sp)
 2a8:	3101                	jal	fffffea8 <.LASF439+0xffff9e39>
 2aa:	640e6e13          	ori	t3,t3,1600
 2ae:	12011113          	0x12011113
 2b2:	4006                	0x4006
 2b4:	9718                	0x9718
 2b6:	1942                	slli	s2,s2,0x30
 2b8:	1301                	addi	t1,t1,-32
 2ba:	0000                	unimp
 2bc:	31012e2f          	0x31012e2f
 2c0:	640e6e13          	ori	t3,t3,1600
 2c4:	12011113          	0x12011113
 2c8:	4006                	0x4006
 2ca:	9718                	0x9718
 2cc:	1942                	slli	s2,s2,0x30
 2ce:	0000                	unimp
	...

Disassembly of section .debug_aranges:

00000000 <.debug_aranges>:
   0:	001c                	0x1c
   2:	0000                	unimp
   4:	0002                	c.slli64	zero
   6:	0000                	unimp
   8:	0000                	unimp
   a:	0004                	0x4
	...

Disassembly of section .debug_macro:

00000000 <.Ldebug_macro0>:
   0:	0004                	0x4
   2:	0002                	c.slli64	zero
   4:	0000                	unimp
   6:	0700                	addi	s0,sp,896
   8:	0000                	unimp
   a:	0000                	unimp
   c:	03010003          	lb	zero,48(sp) # e030140 <.LASF439+0xe02a0d1>
  10:	0701                	addi	a4,a4,0
  12:	0205                	addi	tp,tp,1
  14:	0000                	unimp
  16:	0000                	unimp
  18:	05020403          	lb	s0,80(tp) # 50 <.Ldebug_macro0+0x50>
  1c:	001e                	c.slli	zero,0x7
  1e:	0000                	unimp
  20:	0300                	addi	s0,sp,384
  22:	0326                	slli	t1,t1,0x9
  24:	00000007          	0x7
  28:	0300                	addi	s0,sp,384
  2a:	0486                	slli	s1,s1,0x1
  2c:	0509                	addi	a0,a0,2
  2e:	001f 0000 0400      	0x4000000001f
  34:	0a048903          	lb	s2,160(s1)
  38:	1f05                	addi	t5,t5,-31
  3a:	0000                	unimp
  3c:	0000                	unimp
  3e:	0704                	addi	s1,sp,896
  40:	0000                	unimp
  42:	0000                	unimp
  44:	0b05b003          	0xb05b003
  48:	00000007          	0x7
  4c:	0400                	addi	s0,sp,512
  4e:	00000007          	0x7
  52:	0400                	addi	s0,sp,512
  54:	070c2903          	lw	s2,112(s8)
  58:	0000                	unimp
  5a:	0000                	unimp
  5c:	05060903          	lb	s2,80(a2)
  60:	000a                	c.slli	zero,0x2
  62:	0000                	unimp
  64:	0300                	addi	s0,sp,384
  66:	040c                	addi	a1,sp,512
  68:	0605                	addi	a2,a2,1
  6a:	0000                	unimp
  6c:	0000                	unimp
  6e:	050d0803          	lb	a6,80(s10) # fffe0050 <.LASF439+0xfffd9fe1>
  72:	0016                	c.slli	zero,0x5
  74:	0000                	unimp
  76:	0300                	addi	s0,sp,384
  78:	0e1c                	addi	a5,sp,784
  7a:	00000007          	0x7
  7e:	0400                	addi	s0,sp,512
  80:	00000007          	0x7
  84:	0400                	addi	s0,sp,512
  86:	00000007          	0x7
  8a:	0400                	addi	s0,sp,512
  8c:	070f0d03          	lb	s10,112(t5)
  90:	0000                	unimp
  92:	0000                	unimp
  94:	0304                	addi	s1,sp,384
  96:	050e                	slli	a0,a0,0x3
  98:	00000007          	0x7
  9c:	0400                	addi	s0,sp,512
  9e:	00000007          	0x7
  a2:	0400                	addi	s0,sp,512
  a4:	0d05                	addi	s10,s10,1
  a6:	0000                	unimp
  a8:	0000                	unimp
  aa:	0404                	addi	s1,sp,512
  ac:	0404                	addi	s1,sp,512
	...

Disassembly of section .debug_macro:

00000000 <.Ldebug_macro0>:
   0:	0004                	0x4
   2:	0500                	addi	s0,sp,640
   4:	0000                	unimp
   6:	0000                	unimp
   8:	0500                	addi	s0,sp,640
   a:	0000                	unimp
   c:	0000                	unimp
   e:	0500                	addi	s0,sp,640
  10:	0000                	unimp
  12:	0000                	unimp
  14:	0500                	addi	s0,sp,640
  16:	0000                	unimp
  18:	0000                	unimp
  1a:	0500                	addi	s0,sp,640
  1c:	0000                	unimp
  1e:	0000                	unimp
  20:	0500                	addi	s0,sp,640
  22:	0000                	unimp
  24:	0000                	unimp
  26:	0500                	addi	s0,sp,640
  28:	0000                	unimp
  2a:	0000                	unimp
  2c:	0500                	addi	s0,sp,640
  2e:	0000                	unimp
  30:	0000                	unimp
  32:	0500                	addi	s0,sp,640
  34:	0000                	unimp
  36:	0000                	unimp
  38:	0500                	addi	s0,sp,640
  3a:	0000                	unimp
  3c:	0000                	unimp
  3e:	0500                	addi	s0,sp,640
  40:	0000                	unimp
  42:	0000                	unimp
  44:	0500                	addi	s0,sp,640
  46:	0000                	unimp
  48:	0000                	unimp
  4a:	0500                	addi	s0,sp,640
  4c:	0000                	unimp
  4e:	0000                	unimp
  50:	0500                	addi	s0,sp,640
  52:	0000                	unimp
  54:	0000                	unimp
  56:	0500                	addi	s0,sp,640
  58:	0000                	unimp
  5a:	0000                	unimp
  5c:	0500                	addi	s0,sp,640
  5e:	0000                	unimp
  60:	0000                	unimp
  62:	0500                	addi	s0,sp,640
  64:	0000                	unimp
  66:	0000                	unimp
  68:	0500                	addi	s0,sp,640
  6a:	0000                	unimp
  6c:	0000                	unimp
  6e:	0500                	addi	s0,sp,640
  70:	0000                	unimp
  72:	0000                	unimp
  74:	0500                	addi	s0,sp,640
  76:	0000                	unimp
  78:	0000                	unimp
  7a:	0500                	addi	s0,sp,640
  7c:	0000                	unimp
  7e:	0000                	unimp
  80:	0500                	addi	s0,sp,640
  82:	0000                	unimp
  84:	0000                	unimp
  86:	0500                	addi	s0,sp,640
  88:	0000                	unimp
  8a:	0000                	unimp
  8c:	0500                	addi	s0,sp,640
  8e:	0000                	unimp
  90:	0000                	unimp
  92:	0500                	addi	s0,sp,640
  94:	0000                	unimp
  96:	0000                	unimp
  98:	0500                	addi	s0,sp,640
  9a:	0000                	unimp
  9c:	0000                	unimp
  9e:	0500                	addi	s0,sp,640
  a0:	0000                	unimp
  a2:	0000                	unimp
  a4:	0500                	addi	s0,sp,640
  a6:	0000                	unimp
  a8:	0000                	unimp
  aa:	0500                	addi	s0,sp,640
  ac:	0000                	unimp
  ae:	0000                	unimp
  b0:	0500                	addi	s0,sp,640
  b2:	0000                	unimp
  b4:	0000                	unimp
  b6:	0500                	addi	s0,sp,640
  b8:	0000                	unimp
  ba:	0000                	unimp
  bc:	0500                	addi	s0,sp,640
  be:	0000                	unimp
  c0:	0000                	unimp
  c2:	0500                	addi	s0,sp,640
  c4:	0000                	unimp
  c6:	0000                	unimp
  c8:	0500                	addi	s0,sp,640
  ca:	0000                	unimp
  cc:	0000                	unimp
  ce:	0500                	addi	s0,sp,640
  d0:	0000                	unimp
  d2:	0000                	unimp
  d4:	0500                	addi	s0,sp,640
  d6:	0000                	unimp
  d8:	0000                	unimp
  da:	0500                	addi	s0,sp,640
  dc:	0000                	unimp
  de:	0000                	unimp
  e0:	0500                	addi	s0,sp,640
  e2:	0000                	unimp
  e4:	0000                	unimp
  e6:	0500                	addi	s0,sp,640
  e8:	0000                	unimp
  ea:	0000                	unimp
  ec:	0500                	addi	s0,sp,640
  ee:	0000                	unimp
  f0:	0000                	unimp
  f2:	0500                	addi	s0,sp,640
  f4:	0000                	unimp
  f6:	0000                	unimp
  f8:	0500                	addi	s0,sp,640
  fa:	0000                	unimp
  fc:	0000                	unimp
  fe:	0500                	addi	s0,sp,640
 100:	0000                	unimp
 102:	0000                	unimp
 104:	0500                	addi	s0,sp,640
 106:	0000                	unimp
 108:	0000                	unimp
 10a:	0500                	addi	s0,sp,640
 10c:	0000                	unimp
 10e:	0000                	unimp
 110:	0500                	addi	s0,sp,640
 112:	0000                	unimp
 114:	0000                	unimp
 116:	0500                	addi	s0,sp,640
 118:	0000                	unimp
 11a:	0000                	unimp
 11c:	0500                	addi	s0,sp,640
 11e:	0000                	unimp
 120:	0000                	unimp
 122:	0500                	addi	s0,sp,640
 124:	0000                	unimp
 126:	0000                	unimp
 128:	0500                	addi	s0,sp,640
 12a:	0000                	unimp
 12c:	0000                	unimp
 12e:	0500                	addi	s0,sp,640
 130:	0000                	unimp
 132:	0000                	unimp
 134:	0500                	addi	s0,sp,640
 136:	0000                	unimp
 138:	0000                	unimp
 13a:	0500                	addi	s0,sp,640
 13c:	0000                	unimp
 13e:	0000                	unimp
 140:	0500                	addi	s0,sp,640
 142:	0000                	unimp
 144:	0000                	unimp
 146:	0500                	addi	s0,sp,640
 148:	0000                	unimp
 14a:	0000                	unimp
 14c:	0500                	addi	s0,sp,640
 14e:	0000                	unimp
 150:	0000                	unimp
 152:	0500                	addi	s0,sp,640
 154:	0000                	unimp
 156:	0000                	unimp
 158:	0500                	addi	s0,sp,640
 15a:	0000                	unimp
 15c:	0000                	unimp
 15e:	0500                	addi	s0,sp,640
 160:	0000                	unimp
 162:	0000                	unimp
 164:	0500                	addi	s0,sp,640
 166:	0000                	unimp
 168:	0000                	unimp
 16a:	0500                	addi	s0,sp,640
 16c:	0000                	unimp
 16e:	0000                	unimp
 170:	0500                	addi	s0,sp,640
 172:	0000                	unimp
 174:	0000                	unimp
 176:	0500                	addi	s0,sp,640
 178:	0000                	unimp
 17a:	0000                	unimp
 17c:	0500                	addi	s0,sp,640
 17e:	0000                	unimp
 180:	0000                	unimp
 182:	0500                	addi	s0,sp,640
 184:	0000                	unimp
 186:	0000                	unimp
 188:	0500                	addi	s0,sp,640
 18a:	0000                	unimp
 18c:	0000                	unimp
 18e:	0500                	addi	s0,sp,640
 190:	0000                	unimp
 192:	0000                	unimp
 194:	0500                	addi	s0,sp,640
 196:	0000                	unimp
 198:	0000                	unimp
 19a:	0500                	addi	s0,sp,640
 19c:	0000                	unimp
 19e:	0000                	unimp
 1a0:	0500                	addi	s0,sp,640
 1a2:	0000                	unimp
 1a4:	0000                	unimp
 1a6:	0500                	addi	s0,sp,640
 1a8:	0000                	unimp
 1aa:	0000                	unimp
 1ac:	0500                	addi	s0,sp,640
 1ae:	0000                	unimp
 1b0:	0000                	unimp
 1b2:	0500                	addi	s0,sp,640
 1b4:	0000                	unimp
 1b6:	0000                	unimp
 1b8:	0500                	addi	s0,sp,640
 1ba:	0000                	unimp
 1bc:	0000                	unimp
 1be:	0500                	addi	s0,sp,640
 1c0:	0000                	unimp
 1c2:	0000                	unimp
 1c4:	0500                	addi	s0,sp,640
 1c6:	0000                	unimp
 1c8:	0000                	unimp
 1ca:	0500                	addi	s0,sp,640
 1cc:	0000                	unimp
 1ce:	0000                	unimp
 1d0:	0500                	addi	s0,sp,640
 1d2:	0000                	unimp
 1d4:	0000                	unimp
 1d6:	0500                	addi	s0,sp,640
 1d8:	0000                	unimp
 1da:	0000                	unimp
 1dc:	0500                	addi	s0,sp,640
 1de:	0000                	unimp
 1e0:	0000                	unimp
 1e2:	0500                	addi	s0,sp,640
 1e4:	0000                	unimp
 1e6:	0000                	unimp
 1e8:	0500                	addi	s0,sp,640
 1ea:	0000                	unimp
 1ec:	0000                	unimp
 1ee:	0500                	addi	s0,sp,640
 1f0:	0000                	unimp
 1f2:	0000                	unimp
 1f4:	0500                	addi	s0,sp,640
 1f6:	0000                	unimp
 1f8:	0000                	unimp
 1fa:	0500                	addi	s0,sp,640
 1fc:	0000                	unimp
 1fe:	0000                	unimp
 200:	0500                	addi	s0,sp,640
 202:	0000                	unimp
 204:	0000                	unimp
 206:	0500                	addi	s0,sp,640
 208:	0000                	unimp
 20a:	0000                	unimp
 20c:	0500                	addi	s0,sp,640
 20e:	0000                	unimp
 210:	0000                	unimp
 212:	0500                	addi	s0,sp,640
 214:	0000                	unimp
 216:	0000                	unimp
 218:	0500                	addi	s0,sp,640
 21a:	0000                	unimp
 21c:	0000                	unimp
 21e:	0500                	addi	s0,sp,640
 220:	0000                	unimp
 222:	0000                	unimp
 224:	0500                	addi	s0,sp,640
 226:	0000                	unimp
 228:	0000                	unimp
 22a:	0500                	addi	s0,sp,640
 22c:	0000                	unimp
 22e:	0000                	unimp
 230:	0500                	addi	s0,sp,640
 232:	0000                	unimp
 234:	0000                	unimp
 236:	0500                	addi	s0,sp,640
 238:	0000                	unimp
 23a:	0000                	unimp
 23c:	0500                	addi	s0,sp,640
 23e:	0000                	unimp
 240:	0000                	unimp
 242:	0500                	addi	s0,sp,640
 244:	0000                	unimp
 246:	0000                	unimp
 248:	0500                	addi	s0,sp,640
 24a:	0000                	unimp
 24c:	0000                	unimp
 24e:	0500                	addi	s0,sp,640
 250:	0000                	unimp
 252:	0000                	unimp
 254:	0500                	addi	s0,sp,640
 256:	0000                	unimp
 258:	0000                	unimp
 25a:	0500                	addi	s0,sp,640
 25c:	0000                	unimp
 25e:	0000                	unimp
 260:	0500                	addi	s0,sp,640
 262:	0000                	unimp
 264:	0000                	unimp
 266:	0500                	addi	s0,sp,640
 268:	0000                	unimp
 26a:	0000                	unimp
 26c:	0500                	addi	s0,sp,640
 26e:	0000                	unimp
 270:	0000                	unimp
 272:	0500                	addi	s0,sp,640
 274:	0000                	unimp
 276:	0000                	unimp
 278:	0500                	addi	s0,sp,640
 27a:	0000                	unimp
 27c:	0000                	unimp
 27e:	0500                	addi	s0,sp,640
 280:	0000                	unimp
 282:	0000                	unimp
 284:	0500                	addi	s0,sp,640
 286:	0000                	unimp
 288:	0000                	unimp
 28a:	0500                	addi	s0,sp,640
 28c:	0000                	unimp
 28e:	0000                	unimp
 290:	0500                	addi	s0,sp,640
 292:	0000                	unimp
 294:	0000                	unimp
 296:	0500                	addi	s0,sp,640
 298:	0000                	unimp
 29a:	0000                	unimp
 29c:	0500                	addi	s0,sp,640
 29e:	0000                	unimp
 2a0:	0000                	unimp
 2a2:	0500                	addi	s0,sp,640
 2a4:	0000                	unimp
 2a6:	0000                	unimp
 2a8:	0500                	addi	s0,sp,640
 2aa:	0000                	unimp
 2ac:	0000                	unimp
 2ae:	0500                	addi	s0,sp,640
 2b0:	0000                	unimp
 2b2:	0000                	unimp
 2b4:	0500                	addi	s0,sp,640
 2b6:	0000                	unimp
 2b8:	0000                	unimp
 2ba:	0500                	addi	s0,sp,640
 2bc:	0000                	unimp
 2be:	0000                	unimp
 2c0:	0500                	addi	s0,sp,640
 2c2:	0000                	unimp
 2c4:	0000                	unimp
 2c6:	0500                	addi	s0,sp,640
 2c8:	0000                	unimp
 2ca:	0000                	unimp
 2cc:	0500                	addi	s0,sp,640
 2ce:	0000                	unimp
 2d0:	0000                	unimp
 2d2:	0500                	addi	s0,sp,640
 2d4:	0000                	unimp
 2d6:	0000                	unimp
 2d8:	0500                	addi	s0,sp,640
 2da:	0000                	unimp
 2dc:	0000                	unimp
 2de:	0500                	addi	s0,sp,640
 2e0:	0000                	unimp
 2e2:	0000                	unimp
 2e4:	0500                	addi	s0,sp,640
 2e6:	0000                	unimp
 2e8:	0000                	unimp
 2ea:	0500                	addi	s0,sp,640
 2ec:	0000                	unimp
 2ee:	0000                	unimp
 2f0:	0500                	addi	s0,sp,640
 2f2:	0000                	unimp
 2f4:	0000                	unimp
 2f6:	0500                	addi	s0,sp,640
 2f8:	0000                	unimp
 2fa:	0000                	unimp
 2fc:	0500                	addi	s0,sp,640
 2fe:	0000                	unimp
 300:	0000                	unimp
 302:	0500                	addi	s0,sp,640
 304:	0000                	unimp
 306:	0000                	unimp
 308:	0500                	addi	s0,sp,640
 30a:	0000                	unimp
 30c:	0000                	unimp
 30e:	0500                	addi	s0,sp,640
 310:	0000                	unimp
 312:	0000                	unimp
 314:	0500                	addi	s0,sp,640
 316:	0000                	unimp
 318:	0000                	unimp
 31a:	0500                	addi	s0,sp,640
 31c:	0000                	unimp
 31e:	0000                	unimp
 320:	0500                	addi	s0,sp,640
 322:	0000                	unimp
 324:	0000                	unimp
 326:	0500                	addi	s0,sp,640
 328:	0000                	unimp
 32a:	0000                	unimp
 32c:	0500                	addi	s0,sp,640
 32e:	0000                	unimp
 330:	0000                	unimp
 332:	0500                	addi	s0,sp,640
 334:	0000                	unimp
 336:	0000                	unimp
 338:	0500                	addi	s0,sp,640
 33a:	0000                	unimp
 33c:	0000                	unimp
 33e:	0500                	addi	s0,sp,640
 340:	0000                	unimp
 342:	0000                	unimp
 344:	0500                	addi	s0,sp,640
 346:	0000                	unimp
 348:	0000                	unimp
 34a:	0500                	addi	s0,sp,640
 34c:	0000                	unimp
 34e:	0000                	unimp
 350:	0500                	addi	s0,sp,640
 352:	0000                	unimp
 354:	0000                	unimp
 356:	0500                	addi	s0,sp,640
 358:	0000                	unimp
 35a:	0000                	unimp
 35c:	0500                	addi	s0,sp,640
 35e:	0000                	unimp
 360:	0000                	unimp
 362:	0500                	addi	s0,sp,640
 364:	0000                	unimp
 366:	0000                	unimp
 368:	0500                	addi	s0,sp,640
 36a:	0000                	unimp
 36c:	0000                	unimp
 36e:	0500                	addi	s0,sp,640
 370:	0000                	unimp
 372:	0000                	unimp
 374:	0500                	addi	s0,sp,640
 376:	0000                	unimp
 378:	0000                	unimp
 37a:	0500                	addi	s0,sp,640
 37c:	0000                	unimp
 37e:	0000                	unimp
 380:	0500                	addi	s0,sp,640
 382:	0000                	unimp
 384:	0000                	unimp
 386:	0500                	addi	s0,sp,640
 388:	0000                	unimp
 38a:	0000                	unimp
 38c:	0500                	addi	s0,sp,640
 38e:	0000                	unimp
 390:	0000                	unimp
 392:	0500                	addi	s0,sp,640
 394:	0000                	unimp
 396:	0000                	unimp
 398:	0500                	addi	s0,sp,640
 39a:	0000                	unimp
 39c:	0000                	unimp
 39e:	0500                	addi	s0,sp,640
 3a0:	0000                	unimp
 3a2:	0000                	unimp
 3a4:	0500                	addi	s0,sp,640
 3a6:	0000                	unimp
 3a8:	0000                	unimp
 3aa:	0500                	addi	s0,sp,640
 3ac:	0000                	unimp
 3ae:	0000                	unimp
 3b0:	0500                	addi	s0,sp,640
 3b2:	0000                	unimp
 3b4:	0000                	unimp
 3b6:	0500                	addi	s0,sp,640
 3b8:	0000                	unimp
 3ba:	0000                	unimp
 3bc:	0500                	addi	s0,sp,640
 3be:	0000                	unimp
 3c0:	0000                	unimp
 3c2:	0500                	addi	s0,sp,640
 3c4:	0000                	unimp
 3c6:	0000                	unimp
 3c8:	0500                	addi	s0,sp,640
 3ca:	0000                	unimp
 3cc:	0000                	unimp
 3ce:	0500                	addi	s0,sp,640
 3d0:	0000                	unimp
 3d2:	0000                	unimp
 3d4:	0500                	addi	s0,sp,640
 3d6:	0000                	unimp
 3d8:	0000                	unimp
 3da:	0500                	addi	s0,sp,640
 3dc:	0000                	unimp
 3de:	0000                	unimp
 3e0:	0500                	addi	s0,sp,640
 3e2:	0000                	unimp
 3e4:	0000                	unimp
 3e6:	0500                	addi	s0,sp,640
 3e8:	0000                	unimp
 3ea:	0000                	unimp
 3ec:	0500                	addi	s0,sp,640
 3ee:	0000                	unimp
 3f0:	0000                	unimp
 3f2:	0500                	addi	s0,sp,640
 3f4:	0000                	unimp
 3f6:	0000                	unimp
 3f8:	0500                	addi	s0,sp,640
 3fa:	0000                	unimp
 3fc:	0000                	unimp
 3fe:	0500                	addi	s0,sp,640
 400:	0000                	unimp
 402:	0000                	unimp
 404:	0500                	addi	s0,sp,640
 406:	0000                	unimp
 408:	0000                	unimp
 40a:	0500                	addi	s0,sp,640
 40c:	0000                	unimp
 40e:	0000                	unimp
 410:	0500                	addi	s0,sp,640
 412:	0000                	unimp
 414:	0000                	unimp
 416:	0500                	addi	s0,sp,640
 418:	0000                	unimp
 41a:	0000                	unimp
 41c:	0500                	addi	s0,sp,640
 41e:	0000                	unimp
 420:	0000                	unimp
 422:	0500                	addi	s0,sp,640
 424:	0000                	unimp
 426:	0000                	unimp
 428:	0500                	addi	s0,sp,640
 42a:	0000                	unimp
 42c:	0000                	unimp
 42e:	0500                	addi	s0,sp,640
 430:	0000                	unimp
 432:	0000                	unimp
 434:	0500                	addi	s0,sp,640
 436:	0000                	unimp
 438:	0000                	unimp
 43a:	0500                	addi	s0,sp,640
 43c:	0000                	unimp
 43e:	0000                	unimp
 440:	0500                	addi	s0,sp,640
 442:	0000                	unimp
 444:	0000                	unimp
 446:	0500                	addi	s0,sp,640
 448:	0000                	unimp
 44a:	0000                	unimp
 44c:	0500                	addi	s0,sp,640
 44e:	0000                	unimp
 450:	0000                	unimp
 452:	0500                	addi	s0,sp,640
 454:	0000                	unimp
 456:	0000                	unimp
 458:	0500                	addi	s0,sp,640
 45a:	0000                	unimp
 45c:	0000                	unimp
 45e:	0500                	addi	s0,sp,640
 460:	0000                	unimp
 462:	0000                	unimp
 464:	0500                	addi	s0,sp,640
 466:	0000                	unimp
 468:	0000                	unimp
 46a:	0500                	addi	s0,sp,640
 46c:	0000                	unimp
 46e:	0000                	unimp
 470:	0500                	addi	s0,sp,640
 472:	0000                	unimp
 474:	0000                	unimp
 476:	0500                	addi	s0,sp,640
 478:	0000                	unimp
 47a:	0000                	unimp
 47c:	0500                	addi	s0,sp,640
 47e:	0000                	unimp
 480:	0000                	unimp
 482:	0500                	addi	s0,sp,640
 484:	0000                	unimp
 486:	0000                	unimp
 488:	0500                	addi	s0,sp,640
 48a:	0000                	unimp
 48c:	0000                	unimp
 48e:	0500                	addi	s0,sp,640
 490:	0000                	unimp
 492:	0000                	unimp
 494:	0500                	addi	s0,sp,640
 496:	0000                	unimp
 498:	0000                	unimp
 49a:	0500                	addi	s0,sp,640
 49c:	0000                	unimp
 49e:	0000                	unimp
 4a0:	0500                	addi	s0,sp,640
 4a2:	0000                	unimp
 4a4:	0000                	unimp
 4a6:	0500                	addi	s0,sp,640
 4a8:	0000                	unimp
 4aa:	0000                	unimp
 4ac:	0500                	addi	s0,sp,640
 4ae:	0000                	unimp
 4b0:	0000                	unimp
 4b2:	0500                	addi	s0,sp,640
 4b4:	0000                	unimp
 4b6:	0000                	unimp
 4b8:	0500                	addi	s0,sp,640
 4ba:	0000                	unimp
 4bc:	0000                	unimp
 4be:	0500                	addi	s0,sp,640
 4c0:	0000                	unimp
 4c2:	0000                	unimp
 4c4:	0500                	addi	s0,sp,640
 4c6:	0000                	unimp
 4c8:	0000                	unimp
 4ca:	0500                	addi	s0,sp,640
 4cc:	0000                	unimp
 4ce:	0000                	unimp
 4d0:	0500                	addi	s0,sp,640
 4d2:	0000                	unimp
 4d4:	0000                	unimp
 4d6:	0500                	addi	s0,sp,640
 4d8:	0000                	unimp
 4da:	0000                	unimp
 4dc:	0500                	addi	s0,sp,640
 4de:	0000                	unimp
 4e0:	0000                	unimp
 4e2:	0500                	addi	s0,sp,640
 4e4:	0000                	unimp
 4e6:	0000                	unimp
 4e8:	0500                	addi	s0,sp,640
 4ea:	0000                	unimp
 4ec:	0000                	unimp
 4ee:	0500                	addi	s0,sp,640
 4f0:	0000                	unimp
 4f2:	0000                	unimp
 4f4:	0500                	addi	s0,sp,640
 4f6:	0000                	unimp
 4f8:	0000                	unimp
 4fa:	0500                	addi	s0,sp,640
 4fc:	0000                	unimp
 4fe:	0000                	unimp
 500:	0500                	addi	s0,sp,640
 502:	0000                	unimp
 504:	0000                	unimp
 506:	0500                	addi	s0,sp,640
 508:	0000                	unimp
 50a:	0000                	unimp
 50c:	0500                	addi	s0,sp,640
 50e:	0000                	unimp
 510:	0000                	unimp
 512:	0500                	addi	s0,sp,640
 514:	0000                	unimp
 516:	0000                	unimp
 518:	0500                	addi	s0,sp,640
 51a:	0000                	unimp
 51c:	0000                	unimp
 51e:	0500                	addi	s0,sp,640
 520:	0000                	unimp
 522:	0000                	unimp
 524:	0500                	addi	s0,sp,640
 526:	0000                	unimp
 528:	0000                	unimp
 52a:	0500                	addi	s0,sp,640
 52c:	0000                	unimp
 52e:	0000                	unimp
 530:	0500                	addi	s0,sp,640
 532:	0000                	unimp
 534:	0000                	unimp
 536:	0500                	addi	s0,sp,640
 538:	0000                	unimp
 53a:	0000                	unimp
 53c:	0500                	addi	s0,sp,640
 53e:	0000                	unimp
 540:	0000                	unimp
 542:	0500                	addi	s0,sp,640
 544:	0000                	unimp
 546:	0000                	unimp
 548:	0500                	addi	s0,sp,640
 54a:	0000                	unimp
 54c:	0000                	unimp
 54e:	0500                	addi	s0,sp,640
 550:	0000                	unimp
 552:	0000                	unimp
 554:	0500                	addi	s0,sp,640
 556:	0000                	unimp
 558:	0000                	unimp
 55a:	0500                	addi	s0,sp,640
 55c:	0000                	unimp
 55e:	0000                	unimp
 560:	0500                	addi	s0,sp,640
 562:	0000                	unimp
 564:	0000                	unimp
 566:	0500                	addi	s0,sp,640
 568:	0000                	unimp
 56a:	0000                	unimp
 56c:	0500                	addi	s0,sp,640
 56e:	0000                	unimp
 570:	0000                	unimp
 572:	0500                	addi	s0,sp,640
 574:	0000                	unimp
 576:	0000                	unimp
 578:	0500                	addi	s0,sp,640
 57a:	0000                	unimp
 57c:	0000                	unimp
 57e:	0500                	addi	s0,sp,640
 580:	0000                	unimp
 582:	0000                	unimp
 584:	0500                	addi	s0,sp,640
 586:	0000                	unimp
 588:	0000                	unimp
 58a:	0500                	addi	s0,sp,640
 58c:	0000                	unimp
 58e:	0000                	unimp
 590:	0500                	addi	s0,sp,640
 592:	0000                	unimp
 594:	0000                	unimp
 596:	0500                	addi	s0,sp,640
 598:	0000                	unimp
 59a:	0000                	unimp
 59c:	0500                	addi	s0,sp,640
 59e:	0000                	unimp
 5a0:	0000                	unimp
 5a2:	0500                	addi	s0,sp,640
 5a4:	0000                	unimp
 5a6:	0000                	unimp
 5a8:	0500                	addi	s0,sp,640
 5aa:	0000                	unimp
 5ac:	0000                	unimp
 5ae:	0500                	addi	s0,sp,640
 5b0:	0000                	unimp
 5b2:	0000                	unimp
 5b4:	0500                	addi	s0,sp,640
 5b6:	0000                	unimp
 5b8:	0000                	unimp
 5ba:	0500                	addi	s0,sp,640
 5bc:	0000                	unimp
 5be:	0000                	unimp
 5c0:	0500                	addi	s0,sp,640
 5c2:	0000                	unimp
 5c4:	0000                	unimp
 5c6:	0500                	addi	s0,sp,640
 5c8:	0000                	unimp
 5ca:	0000                	unimp
 5cc:	0500                	addi	s0,sp,640
 5ce:	0000                	unimp
 5d0:	0000                	unimp
 5d2:	0500                	addi	s0,sp,640
 5d4:	0000                	unimp
 5d6:	0000                	unimp
 5d8:	0500                	addi	s0,sp,640
 5da:	0000                	unimp
 5dc:	0000                	unimp
 5de:	0500                	addi	s0,sp,640
 5e0:	0000                	unimp
 5e2:	0000                	unimp
 5e4:	0500                	addi	s0,sp,640
 5e6:	0000                	unimp
 5e8:	0000                	unimp
 5ea:	0500                	addi	s0,sp,640
 5ec:	0000                	unimp
 5ee:	0000                	unimp
 5f0:	0500                	addi	s0,sp,640
 5f2:	0000                	unimp
 5f4:	0000                	unimp
 5f6:	0500                	addi	s0,sp,640
 5f8:	0000                	unimp
 5fa:	0000                	unimp
 5fc:	0500                	addi	s0,sp,640
 5fe:	0000                	unimp
 600:	0000                	unimp
 602:	0500                	addi	s0,sp,640
 604:	0000                	unimp
 606:	0000                	unimp
 608:	0500                	addi	s0,sp,640
 60a:	0000                	unimp
 60c:	0000                	unimp
 60e:	0500                	addi	s0,sp,640
 610:	0000                	unimp
 612:	0000                	unimp
 614:	0500                	addi	s0,sp,640
 616:	0000                	unimp
 618:	0000                	unimp
 61a:	0500                	addi	s0,sp,640
 61c:	0000                	unimp
 61e:	0000                	unimp
 620:	0500                	addi	s0,sp,640
 622:	0000                	unimp
 624:	0000                	unimp
 626:	0500                	addi	s0,sp,640
 628:	0000                	unimp
 62a:	0000                	unimp
 62c:	0500                	addi	s0,sp,640
 62e:	0000                	unimp
 630:	0000                	unimp
 632:	0500                	addi	s0,sp,640
 634:	0000                	unimp
 636:	0000                	unimp
 638:	0500                	addi	s0,sp,640
 63a:	0000                	unimp
 63c:	0000                	unimp
 63e:	0500                	addi	s0,sp,640
 640:	0000                	unimp
 642:	0000                	unimp
 644:	0500                	addi	s0,sp,640
 646:	0000                	unimp
 648:	0000                	unimp
 64a:	0500                	addi	s0,sp,640
 64c:	0000                	unimp
 64e:	0000                	unimp
 650:	0500                	addi	s0,sp,640
 652:	0000                	unimp
 654:	0000                	unimp
 656:	0500                	addi	s0,sp,640
 658:	0000                	unimp
 65a:	0000                	unimp
 65c:	0500                	addi	s0,sp,640
 65e:	0000                	unimp
 660:	0000                	unimp
 662:	0500                	addi	s0,sp,640
 664:	0000                	unimp
 666:	0000                	unimp
 668:	0500                	addi	s0,sp,640
 66a:	0000                	unimp
 66c:	0000                	unimp
 66e:	0500                	addi	s0,sp,640
 670:	0000                	unimp
 672:	0000                	unimp
 674:	0500                	addi	s0,sp,640
 676:	0000                	unimp
 678:	0000                	unimp
 67a:	0500                	addi	s0,sp,640
 67c:	0000                	unimp
 67e:	0000                	unimp
 680:	0500                	addi	s0,sp,640
 682:	0000                	unimp
 684:	0000                	unimp
 686:	0500                	addi	s0,sp,640
 688:	0000                	unimp
 68a:	0000                	unimp
 68c:	0500                	addi	s0,sp,640
 68e:	0000                	unimp
 690:	0000                	unimp
 692:	0500                	addi	s0,sp,640
 694:	0000                	unimp
 696:	0000                	unimp
 698:	0500                	addi	s0,sp,640
 69a:	0000                	unimp
 69c:	0000                	unimp
 69e:	0500                	addi	s0,sp,640
 6a0:	0000                	unimp
 6a2:	0000                	unimp
 6a4:	0500                	addi	s0,sp,640
 6a6:	0000                	unimp
 6a8:	0000                	unimp
 6aa:	0500                	addi	s0,sp,640
 6ac:	0000                	unimp
 6ae:	0000                	unimp
 6b0:	0500                	addi	s0,sp,640
 6b2:	0000                	unimp
 6b4:	0000                	unimp
 6b6:	0500                	addi	s0,sp,640
 6b8:	0000                	unimp
 6ba:	0000                	unimp
 6bc:	0500                	addi	s0,sp,640
 6be:	0000                	unimp
 6c0:	0000                	unimp
 6c2:	0500                	addi	s0,sp,640
 6c4:	0000                	unimp
 6c6:	0000                	unimp
 6c8:	0500                	addi	s0,sp,640
 6ca:	0000                	unimp
 6cc:	0000                	unimp
 6ce:	0500                	addi	s0,sp,640
 6d0:	0000                	unimp
 6d2:	0000                	unimp
 6d4:	0500                	addi	s0,sp,640
 6d6:	0000                	unimp
 6d8:	0000                	unimp
 6da:	0500                	addi	s0,sp,640
 6dc:	0000                	unimp
 6de:	0000                	unimp
 6e0:	0500                	addi	s0,sp,640
 6e2:	0000                	unimp
 6e4:	0000                	unimp
 6e6:	0500                	addi	s0,sp,640
 6e8:	0000                	unimp
 6ea:	0000                	unimp
 6ec:	0500                	addi	s0,sp,640
 6ee:	0000                	unimp
 6f0:	0000                	unimp
 6f2:	0500                	addi	s0,sp,640
 6f4:	0000                	unimp
 6f6:	0000                	unimp
 6f8:	0500                	addi	s0,sp,640
 6fa:	0000                	unimp
 6fc:	0000                	unimp
 6fe:	0500                	addi	s0,sp,640
 700:	0000                	unimp
 702:	0000                	unimp
 704:	0500                	addi	s0,sp,640
 706:	0000                	unimp
 708:	0000                	unimp
 70a:	0500                	addi	s0,sp,640
 70c:	0000                	unimp
 70e:	0000                	unimp
 710:	0500                	addi	s0,sp,640
 712:	0000                	unimp
 714:	0000                	unimp
 716:	0500                	addi	s0,sp,640
 718:	0000                	unimp
 71a:	0000                	unimp
 71c:	0500                	addi	s0,sp,640
 71e:	0000                	unimp
 720:	0000                	unimp
 722:	0500                	addi	s0,sp,640
 724:	0000                	unimp
 726:	0000                	unimp
 728:	0500                	addi	s0,sp,640
 72a:	0000                	unimp
 72c:	0000                	unimp
 72e:	0500                	addi	s0,sp,640
 730:	0000                	unimp
 732:	0000                	unimp
 734:	0500                	addi	s0,sp,640
 736:	0000                	unimp
 738:	0000                	unimp
 73a:	0500                	addi	s0,sp,640
 73c:	0000                	unimp
 73e:	0000                	unimp
 740:	0500                	addi	s0,sp,640
 742:	0000                	unimp
 744:	0000                	unimp
 746:	0500                	addi	s0,sp,640
 748:	0000                	unimp
 74a:	0000                	unimp
 74c:	0500                	addi	s0,sp,640
 74e:	0000                	unimp
 750:	0000                	unimp
 752:	0500                	addi	s0,sp,640
 754:	0000                	unimp
 756:	0000                	unimp
 758:	0500                	addi	s0,sp,640
 75a:	0000                	unimp
 75c:	0000                	unimp
 75e:	0500                	addi	s0,sp,640
 760:	0000                	unimp
 762:	0000                	unimp
 764:	0500                	addi	s0,sp,640
 766:	0000                	unimp
 768:	0000                	unimp
 76a:	0500                	addi	s0,sp,640
 76c:	0000                	unimp
 76e:	0000                	unimp
 770:	0500                	addi	s0,sp,640
 772:	0000                	unimp
 774:	0000                	unimp
 776:	0500                	addi	s0,sp,640
 778:	0000                	unimp
 77a:	0000                	unimp
 77c:	0500                	addi	s0,sp,640
 77e:	0000                	unimp
 780:	0000                	unimp
 782:	0500                	addi	s0,sp,640
 784:	0000                	unimp
 786:	0000                	unimp
 788:	0500                	addi	s0,sp,640
 78a:	0000                	unimp
 78c:	0000                	unimp
 78e:	0500                	addi	s0,sp,640
 790:	0000                	unimp
 792:	0000                	unimp
 794:	0500                	addi	s0,sp,640
 796:	0000                	unimp
 798:	0000                	unimp
 79a:	0500                	addi	s0,sp,640
 79c:	0000                	unimp
 79e:	0000                	unimp
 7a0:	0500                	addi	s0,sp,640
 7a2:	0000                	unimp
 7a4:	0000                	unimp
 7a6:	0500                	addi	s0,sp,640
 7a8:	0000                	unimp
 7aa:	0000                	unimp
 7ac:	0500                	addi	s0,sp,640
 7ae:	0000                	unimp
 7b0:	0000                	unimp
 7b2:	0500                	addi	s0,sp,640
 7b4:	0000                	unimp
 7b6:	0000                	unimp
 7b8:	0500                	addi	s0,sp,640
 7ba:	0000                	unimp
 7bc:	0000                	unimp
 7be:	0500                	addi	s0,sp,640
 7c0:	0000                	unimp
 7c2:	0000                	unimp
 7c4:	0500                	addi	s0,sp,640
 7c6:	0000                	unimp
 7c8:	0000                	unimp
 7ca:	0500                	addi	s0,sp,640
 7cc:	0000                	unimp
 7ce:	0000                	unimp
 7d0:	0500                	addi	s0,sp,640
 7d2:	0000                	unimp
 7d4:	0000                	unimp
 7d6:	0500                	addi	s0,sp,640
 7d8:	0000                	unimp
 7da:	0000                	unimp
 7dc:	0500                	addi	s0,sp,640
 7de:	0000                	unimp
 7e0:	0000                	unimp
 7e2:	0500                	addi	s0,sp,640
 7e4:	0000                	unimp
 7e6:	0000                	unimp
 7e8:	0500                	addi	s0,sp,640
 7ea:	0000                	unimp
 7ec:	0000                	unimp
 7ee:	0500                	addi	s0,sp,640
 7f0:	0000                	unimp
 7f2:	0000                	unimp
 7f4:	0500                	addi	s0,sp,640
 7f6:	0000                	unimp
 7f8:	0000                	unimp
 7fa:	0500                	addi	s0,sp,640
 7fc:	0000                	unimp
 7fe:	0000                	unimp
 800:	0500                	addi	s0,sp,640
 802:	0000                	unimp
 804:	0000                	unimp
 806:	0500                	addi	s0,sp,640
 808:	0000                	unimp
 80a:	0000                	unimp
 80c:	0500                	addi	s0,sp,640
 80e:	0000                	unimp
 810:	0000                	unimp
 812:	0500                	addi	s0,sp,640
 814:	0000                	unimp
 816:	0000                	unimp
 818:	0500                	addi	s0,sp,640
 81a:	0000                	unimp
 81c:	0000                	unimp
 81e:	0500                	addi	s0,sp,640
 820:	0000                	unimp
 822:	0000                	unimp
 824:	0500                	addi	s0,sp,640
 826:	0000                	unimp
 828:	0000                	unimp
 82a:	0500                	addi	s0,sp,640
 82c:	0000                	unimp
 82e:	0000                	unimp
 830:	0500                	addi	s0,sp,640
 832:	0000                	unimp
 834:	0000                	unimp
 836:	0500                	addi	s0,sp,640
 838:	0000                	unimp
 83a:	0000                	unimp
 83c:	0500                	addi	s0,sp,640
 83e:	0000                	unimp
 840:	0000                	unimp
 842:	0500                	addi	s0,sp,640
 844:	0000                	unimp
 846:	0000                	unimp
 848:	0500                	addi	s0,sp,640
 84a:	0000                	unimp
 84c:	0000                	unimp
 84e:	0500                	addi	s0,sp,640
 850:	0000                	unimp
 852:	0000                	unimp
 854:	0500                	addi	s0,sp,640
 856:	0000                	unimp
 858:	0000                	unimp
 85a:	0500                	addi	s0,sp,640
 85c:	0000                	unimp
 85e:	0000                	unimp
 860:	0500                	addi	s0,sp,640
 862:	0000                	unimp
 864:	0000                	unimp
 866:	0500                	addi	s0,sp,640
 868:	0000                	unimp
 86a:	0000                	unimp
 86c:	0500                	addi	s0,sp,640
 86e:	0000                	unimp
 870:	0000                	unimp
	...

Disassembly of section .debug_macro:

00000000 <.Ldebug_macro0>:
   0:	0004                	0x4
   2:	0500                	addi	s0,sp,640
   4:	001f 0000 0500      	0x5000000001f
   a:	0022                	c.slli	zero,0x8
   c:	0000                	unimp
   e:	0500                	addi	s0,sp,640
  10:	0025                	c.nop	9
  12:	0000                	unimp
  14:	0500                	addi	s0,sp,640
  16:	002e                	c.slli	zero,0xb
  18:	0000                	unimp
  1a:	0500                	addi	s0,sp,640
  1c:	0032                	c.slli	zero,0xc
  1e:	0000                	unimp
  20:	0500                	addi	s0,sp,640
  22:	0036                	c.slli	zero,0xd
  24:	0000                	unimp
  26:	0500                	addi	s0,sp,640
  28:	00000043          	fmadd.s	ft0,ft0,ft0,ft0,rne
  2c:	0500                	addi	s0,sp,640
  2e:	0046                	c.slli	zero,0x11
  30:	0000                	unimp
  32:	0500                	addi	s0,sp,640
  34:	00000053          	fadd.s	ft0,ft0,ft0,rne
  38:	0500                	addi	s0,sp,640
  3a:	00000057          	0x57
  3e:	0500                	addi	s0,sp,640
  40:	005d                	c.nop	23
  42:	0000                	unimp
  44:	0500                	addi	s0,sp,640
  46:	0065                	c.nop	25
  48:	0000                	unimp
  4a:	0500                	addi	s0,sp,640
  4c:	006a                	c.slli	zero,0x1a
  4e:	0000                	unimp
  50:	0500                	addi	s0,sp,640
  52:	0000006f          	j	52 <.Ldebug_macro0+0x52>
  56:	0500                	addi	s0,sp,640
  58:	0000007b          	0x7b
  5c:	0500                	addi	s0,sp,640
  5e:	007c                	addi	a5,sp,12
  60:	0000                	unimp
  62:	0500                	addi	s0,sp,640
  64:	0185                	addi	gp,gp,1
  66:	0000                	unimp
  68:	0000                	unimp
  6a:	8d05                	sub	a0,a0,s1
  6c:	0001                	nop
  6e:	0000                	unimp
  70:	0500                	addi	s0,sp,640
  72:	00000197          	auipc	gp,0x0
  76:	0000                	unimp
  78:	9d05                	0x9d05
  7a:	0001                	nop
  7c:	0000                	unimp
  7e:	0500                	addi	s0,sp,640
  80:	01a6                	slli	gp,gp,0x9
  82:	0000                	unimp
  84:	0000                	unimp
  86:	a705                	j	7a6 <.LASF258+0x19>
  88:	0001                	nop
  8a:	0000                	unimp
  8c:	0500                	addi	s0,sp,640
  8e:	01a8                	addi	a0,sp,200
  90:	0000                	unimp
  92:	0000                	unimp
  94:	a905                	j	4c4 <.LASF227+0x17>
  96:	0001                	nop
  98:	0000                	unimp
  9a:	0500                	addi	s0,sp,640
  9c:	000001b3          	add	gp,zero,zero
  a0:	0000                	unimp
  a2:	b805                	j	fffff8d2 <.LASF439+0xffff9863>
  a4:	0001                	nop
  a6:	0000                	unimp
  a8:	0500                	addi	s0,sp,640
  aa:	000001bf c0050000 	0xc0050000000001bf
  b2:	0001                	nop
  b4:	0000                	unimp
  b6:	0500                	addi	s0,sp,640
  b8:	01d0                	addi	a2,sp,196
  ba:	0000                	unimp
  bc:	0000                	unimp
  be:	8c05                	sub	s0,s0,s1
  c0:	0002                	c.slli64	zero
  c2:	0000                	unimp
  c4:	0500                	addi	s0,sp,640
  c6:	0294                	addi	a3,sp,320
  c8:	0000                	unimp
  ca:	0000                	unimp
  cc:	a005                	j	ec <.Ldebug_macro0+0xec>
  ce:	0002                	c.slli64	zero
  d0:	0000                	unimp
  d2:	0500                	addi	s0,sp,640
  d4:	02a1                	addi	t0,t0,8
  d6:	0000                	unimp
  d8:	0000                	unimp
  da:	a205                	j	1fa <.LASF146+0x11>
  dc:	0002                	c.slli64	zero
  de:	0000                	unimp
  e0:	0500                	addi	s0,sp,640
  e2:	000002a3          	sb	zero,5(zero) # 5 <.Ldebug_macro0+0x5>
  e6:	0000                	unimp
  e8:	ac05                	j	318 <.L23+0x6>
  ea:	0002                	c.slli64	zero
  ec:	0000                	unimp
  ee:	0500                	addi	s0,sp,640
  f0:	02ca                	slli	t0,t0,0x12
  f2:	0000                	unimp
  f4:	0000                	unimp
  f6:	cb05                	beqz	a4,126 <.Ldebug_macro0+0x126>
  f8:	0002                	c.slli64	zero
  fa:	0000                	unimp
  fc:	0500                	addi	s0,sp,640
  fe:	0385                	addi	t2,t2,1
 100:	0000                	unimp
 102:	0000                	unimp
 104:	8605                	srai	a2,a2,0x1
 106:	00000003          	lb	zero,0(zero) # 0 <.Ldebug_macro0>
 10a:	0500                	addi	s0,sp,640
 10c:	00000387          	0x387
 110:	0000                	unimp
 112:	9005                	srli	s0,s0,0x21
 114:	00000003          	lb	zero,0(zero) # 0 <.Ldebug_macro0>
 118:	0500                	addi	s0,sp,640
 11a:	0391                	addi	t2,t2,4
 11c:	0000                	unimp
 11e:	0000                	unimp
 120:	9205                	srli	a2,a2,0x21
 122:	00000003          	lb	zero,0(zero) # 0 <.Ldebug_macro0>
 126:	0600                	addi	s0,sp,768
 128:	00000397          	auipc	t2,0x0
 12c:	0000                	unimp
 12e:	a305                	j	64e <.LASF316+0x1>
 130:	00000003          	lb	zero,0(zero) # 0 <.Ldebug_macro0>
 134:	0500                	addi	s0,sp,640
 136:	03a4                	addi	s1,sp,456
 138:	0000                	unimp
 13a:	0000                	unimp
 13c:	a505                	j	75c <sch::sproc_kill(sproc_t*)+0x4>
 13e:	00000003          	lb	zero,0(zero) # 0 <.Ldebug_macro0>
 142:	0500                	addi	s0,sp,640
 144:	03a8                	addi	a0,sp,456
 146:	0000                	unimp
 148:	0000                	unimp
 14a:	a905                	j	57a <.LASF120+0x4>
 14c:	00000003          	lb	zero,0(zero) # 0 <.Ldebug_macro0>
 150:	0500                	addi	s0,sp,640
 152:	03aa                	slli	t2,t2,0xa
 154:	0000                	unimp
 156:	0000                	unimp
 158:	d805                	beqz	s0,88 <.Ldebug_macro0+0x88>
 15a:	00000003          	lb	zero,0(zero) # 0 <.Ldebug_macro0>
 15e:	0500                	addi	s0,sp,640
 160:	03f1                	addi	t2,t2,28
 162:	0000                	unimp
 164:	0000                	unimp
 166:	f405                	bnez	s0,8e <.Ldebug_macro0+0x8e>
 168:	00000003          	lb	zero,0(zero) # 0 <.Ldebug_macro0>
 16c:	0500                	addi	s0,sp,640
 16e:	03f8                	addi	a4,sp,460
 170:	0000                	unimp
 172:	0000                	unimp
 174:	f905                	bnez	a0,a4 <.Ldebug_macro0+0xa4>
 176:	00000003          	lb	zero,0(zero) # 0 <.Ldebug_macro0>
 17a:	0500                	addi	s0,sp,640
 17c:	000003fb          	0x3fb
 180:	0000                	unimp
	...

Disassembly of section .debug_macro:

00000000 <.Ldebug_macro0>:
   0:	0004                	0x4
   2:	0500                	addi	s0,sp,640
   4:	048e                	slli	s1,s1,0x3
   6:	0000                	unimp
   8:	0000                	unimp
   a:	9505                	srai	a0,a0,0x21
   c:	0004                	0x4
   e:	0000                	unimp
  10:	0500                	addi	s0,sp,640
  12:	049d                	addi	s1,s1,7
  14:	0000                	unimp
  16:	0000                	unimp
  18:	aa05                	j	148 <.L6+0x4>
  1a:	0004                	0x4
  1c:	0000                	unimp
  1e:	0500                	addi	s0,sp,640
  20:	000004ab          	0x4ab
  24:	0000                	unimp
  26:	b005                	j	fffff846 <.LASF439+0xffff97d7>
  28:	0004                	0x4
  2a:	0000                	unimp
  2c:	0500                	addi	s0,sp,640
  2e:	04bd                	addi	s1,s1,15
  30:	0000                	unimp
  32:	0000                	unimp
  34:	c405                	beqz	s0,5c <.Ldebug_macro0+0x5c>
  36:	0004                	0x4
  38:	0000                	unimp
  3a:	0200                	addi	s0,sp,256
  3c:	696d04c7          	fmsub.s	fs1,fs10,fs6,fa3,rne
  40:	006e                	c.slli	zero,0x1b
  42:	c802                	sw	zero,16(sp)
  44:	6d04                	flw	fs1,24(a0)
  46:	7861                	lui	a6,0xffff8
  48:	0500                	addi	s0,sp,640
  4a:	04ce                	slli	s1,s1,0x13
  4c:	0000                	unimp
  4e:	0000                	unimp
  50:	d105                	beqz	a0,ffffff70 <.LASF439+0xffff9f01>
  52:	0004                	0x4
  54:	0000                	unimp
  56:	0500                	addi	s0,sp,640
  58:	04d4                	addi	a3,sp,580
  5a:	0000                	unimp
  5c:	0000                	unimp
  5e:	d705                	beqz	a4,ffffff86 <.LASF439+0xffff9f17>
  60:	0004                	0x4
  62:	0000                	unimp
  64:	0500                	addi	s0,sp,640
  66:	04da                	slli	s1,s1,0x16
  68:	0000                	unimp
  6a:	0000                	unimp
  6c:	8005                	srli	s0,s0,0x1
  6e:	0005                	c.nop	1
  70:	0000                	unimp
  72:	0500                	addi	s0,sp,640
  74:	0581                	addi	a1,a1,0
  76:	0000                	unimp
  78:	0000                	unimp
  7a:	8205                	srli	a2,a2,0x1
  7c:	0005                	c.nop	1
  7e:	0000                	unimp
  80:	0500                	addi	s0,sp,640
  82:	00000583          	lb	a1,0(zero) # 0 <.Ldebug_macro0>
  86:	0000                	unimp
  88:	8505                	srai	a0,a0,0x1
  8a:	0005                	c.nop	1
  8c:	0000                	unimp
  8e:	0500                	addi	s0,sp,640
  90:	05a4                	addi	s1,sp,712
  92:	0000                	unimp
  94:	0000                	unimp
  96:	aa05                	j	1c6 <sch::ssetup()>
  98:	0005                	c.nop	1
  9a:	0000                	unimp
  9c:	0500                	addi	s0,sp,640
  9e:	05ad                	addi	a1,a1,11
  a0:	0000                	unimp
  a2:	0000                	unimp
  a4:	ae05                	j	3d4 <.L30+0x12>
  a6:	0005                	c.nop	1
  a8:	0000                	unimp
	...

Disassembly of section .debug_macro:

00000000 <.Ldebug_macro0>:
   0:	0004                	0x4
   2:	0500                	addi	s0,sp,640
   4:	0000000b          	0xb
   8:	0500                	addi	s0,sp,640
   a:	000e                	c.slli	zero,0x3
   c:	0000                	unimp
   e:	0500                	addi	s0,sp,640
  10:	0000000f          	fence	unknown,unknown
  14:	0500                	addi	s0,sp,640
  16:	0010                	0x10
  18:	0000                	unimp
  1a:	0500                	addi	s0,sp,640
  1c:	0011                	c.nop	4
  1e:	0000                	unimp
  20:	0500                	addi	s0,sp,640
  22:	001d                	c.nop	7
  24:	0000                	unimp
  26:	0500                	addi	s0,sp,640
  28:	0024                	addi	s1,sp,8
  2a:	0000                	unimp
  2c:	0500                	addi	s0,sp,640
  2e:	00000027          	0x27
  32:	0500                	addi	s0,sp,640
  34:	0028                	addi	a0,sp,8
  36:	0000                	unimp
  38:	0500                	addi	s0,sp,640
  3a:	0029                	c.nop	10
  3c:	0000                	unimp
  3e:	0500                	addi	s0,sp,640
  40:	002d                	c.nop	11
  42:	0000                	unimp
  44:	0500                	addi	s0,sp,640
  46:	0036                	c.slli	zero,0xd
  48:	0000                	unimp
  4a:	0500                	addi	s0,sp,640
  4c:	00000037          	lui	zero,0x0
  50:	0500                	addi	s0,sp,640
  52:	0038                	addi	a4,sp,8
  54:	0000                	unimp
  56:	0500                	addi	s0,sp,640
  58:	0046                	c.slli	zero,0x11
  5a:	0000                	unimp
  5c:	0500                	addi	s0,sp,640
  5e:	004a                	c.slli	zero,0x12
  60:	0000                	unimp
  62:	0500                	addi	s0,sp,640
  64:	0000004b          	fnmsub.s	ft0,ft0,ft0,ft0,rne
  68:	0500                	addi	s0,sp,640
  6a:	004c                	addi	a1,sp,4
  6c:	0000                	unimp
  6e:	0500                	addi	s0,sp,640
  70:	0054                	addi	a3,sp,4
  72:	0000                	unimp
  74:	0500                	addi	s0,sp,640
  76:	0056                	c.slli	zero,0x15
  78:	0000                	unimp
  7a:	0500                	addi	s0,sp,640
  7c:	0058                	addi	a4,sp,4
  7e:	0000                	unimp
  80:	0500                	addi	s0,sp,640
  82:	005a                	c.slli	zero,0x16
  84:	0000                	unimp
  86:	0500                	addi	s0,sp,640
  88:	0000005b          	0x5b
  8c:	0500                	addi	s0,sp,640
  8e:	005e                	c.slli	zero,0x17
  90:	0000                	unimp
  92:	0500                	addi	s0,sp,640
  94:	005f 0000 0500      	0x5000000005f
  9a:	0062                	c.slli	zero,0x18
  9c:	0000                	unimp
  9e:	0500                	addi	s0,sp,640
  a0:	0068                	addi	a0,sp,12
  a2:	0000                	unimp
  a4:	0500                	addi	s0,sp,640
  a6:	0070                	addi	a2,sp,12
  a8:	0000                	unimp
  aa:	0500                	addi	s0,sp,640
  ac:	00000077          	0x77
  b0:	0500                	addi	s0,sp,640
  b2:	0078                	addi	a4,sp,12
  b4:	0000                	unimp
  b6:	0500                	addi	s0,sp,640
  b8:	0182                	c.slli64	gp
  ba:	0000                	unimp
  bc:	0000                	unimp
  be:	8805                	andi	s0,s0,1
  c0:	0001                	nop
  c2:	0000                	unimp
  c4:	0500                	addi	s0,sp,640
  c6:	0000018f          	0x18f
  ca:	0000                	unimp
  cc:	9505                	srai	a0,a0,0x21
  ce:	0001                	nop
  d0:	0000                	unimp
  d2:	0500                	addi	s0,sp,640
  d4:	0198                	addi	a4,sp,192
  d6:	0000                	unimp
  d8:	0000                	unimp
  da:	9e05                	0x9e05
  dc:	0001                	nop
  de:	0000                	unimp
  e0:	0500                	addi	s0,sp,640
  e2:	019f 0000 0000      	0x19f
  e8:	a305                	j	608 <.LASF456+0x2>
  ea:	0001                	nop
  ec:	0000                	unimp
  ee:	0500                	addi	s0,sp,640
  f0:	01a5                	addi	gp,gp,9
  f2:	0000                	unimp
  f4:	0000                	unimp
	...

Disassembly of section .debug_macro:

00000000 <.Ldebug_macro0>:
   0:	0004                	0x4
   2:	0500                	addi	s0,sp,640
   4:	05b9                	addi	a1,a1,14
   6:	0000                	unimp
   8:	0000                	unimp
   a:	c505                	beqz	a0,32 <.Ldebug_macro0+0x32>
   c:	0005                	c.nop	1
   e:	0000                	unimp
  10:	0500                	addi	s0,sp,640
  12:	000005cb          	fnmsub.s	fa1,ft0,ft0,ft0,rne
  16:	0000                	unimp
  18:	ce05                	beqz	a2,50 <.Ldebug_macro0+0x50>
  1a:	0005                	c.nop	1
  1c:	0000                	unimp
  1e:	0500                	addi	s0,sp,640
  20:	05d4                	addi	a3,sp,708
  22:	0000                	unimp
  24:	0000                	unimp
  26:	e305                	bnez	a4,46 <.Ldebug_macro0+0x46>
  28:	0005                	c.nop	1
  2a:	0000                	unimp
  2c:	0500                	addi	s0,sp,640
  2e:	05e9                	addi	a1,a1,26
  30:	0000                	unimp
  32:	0000                	unimp
  34:	ec05                	bnez	s0,6c <.Ldebug_macro0+0x6c>
  36:	0005                	c.nop	1
  38:	0000                	unimp
  3a:	0500                	addi	s0,sp,640
  3c:	000005ef          	jal	a1,3c <.Ldebug_macro0+0x3c>
  40:	0000                	unimp
  42:	fe05                	bnez	a2,ffffff7a <.LASF439+0xffff9f0b>
  44:	0005                	c.nop	1
  46:	0000                	unimp
  48:	0500                	addi	s0,sp,640
  4a:	0681                	addi	a3,a3,0
  4c:	0000                	unimp
  4e:	0000                	unimp
  50:	8405                	srai	s0,s0,0x1
  52:	0006                	c.slli	zero,0x1
  54:	0000                	unimp
  56:	0500                	addi	s0,sp,640
  58:	00000687          	0x687
  5c:	0000                	unimp
  5e:	8d05                	sub	a0,a0,s1
  60:	0006                	c.slli	zero,0x1
  62:	0000                	unimp
  64:	0500                	addi	s0,sp,640
  66:	0690                	addi	a2,sp,832
  68:	0000                	unimp
  6a:	0000                	unimp
  6c:	9305                	srli	a4,a4,0x21
  6e:	0006                	c.slli	zero,0x1
  70:	0000                	unimp
  72:	0500                	addi	s0,sp,640
  74:	0696                	slli	a3,a3,0x5
  76:	0000                	unimp
  78:	0000                	unimp
  7a:	9905                	andi	a0,a0,-31
  7c:	0006                	c.slli	zero,0x1
  7e:	0000                	unimp
  80:	0500                	addi	s0,sp,640
  82:	069c                	addi	a5,sp,832
  84:	0000                	unimp
  86:	0000                	unimp
  88:	9f05                	0x9f05
  8a:	0006                	c.slli	zero,0x1
  8c:	0000                	unimp
  8e:	0500                	addi	s0,sp,640
  90:	06a2                	slli	a3,a3,0x8
  92:	0000                	unimp
  94:	0000                	unimp
  96:	a505                	j	6b6 <.LASF715+0xb>
  98:	0006                	c.slli	zero,0x1
  9a:	0000                	unimp
  9c:	0500                	addi	s0,sp,640
  9e:	06a8                	addi	a0,sp,840
  a0:	0000                	unimp
  a2:	0000                	unimp
  a4:	ab05                	j	5d4 <.LASF718+0x12>
  a6:	0006                	c.slli	zero,0x1
  a8:	0000                	unimp
  aa:	0500                	addi	s0,sp,640
  ac:	06ae                	slli	a3,a3,0xb
  ae:	0000                	unimp
  b0:	0000                	unimp
  b2:	b105                	j	fffffcd2 <.LASF439+0xffff9c63>
  b4:	0006                	c.slli	zero,0x1
  b6:	0000                	unimp
  b8:	0500                	addi	s0,sp,640
  ba:	06b4                	addi	a3,sp,840
  bc:	0000                	unimp
  be:	0000                	unimp
  c0:	b705                	j	ffffffe0 <.LASF439+0xffff9f71>
  c2:	0006                	c.slli	zero,0x1
  c4:	0000                	unimp
  c6:	0500                	addi	s0,sp,640
  c8:	06c0                	addi	s0,sp,836
  ca:	0000                	unimp
  cc:	0000                	unimp
  ce:	c605                	beqz	a2,f6 <.Ldebug_macro0+0xf6>
  d0:	0006                	c.slli	zero,0x1
  d2:	0000                	unimp
  d4:	0500                	addi	s0,sp,640
  d6:	06cc                	addi	a1,sp,836
  d8:	0000                	unimp
  da:	0000                	unimp
  dc:	cf05                	beqz	a4,114 <.Ldebug_macro0+0x114>
  de:	0006                	c.slli	zero,0x1
  e0:	0000                	unimp
  e2:	0500                	addi	s0,sp,640
  e4:	000006db          	0x6db
  e8:	0000                	unimp
  ea:	de05                	beqz	a2,22 <.Ldebug_macro0+0x22>
  ec:	0006                	c.slli	zero,0x1
  ee:	0000                	unimp
  f0:	0500                	addi	s0,sp,640
  f2:	06e4                	addi	s1,sp,844
  f4:	0000                	unimp
  f6:	0000                	unimp
  f8:	f005                	bnez	s0,18 <.Ldebug_macro0+0x18>
  fa:	0006                	c.slli	zero,0x1
  fc:	0000                	unimp
  fe:	0500                	addi	s0,sp,640
 100:	06f6                	slli	a3,a3,0x1d
 102:	0000                	unimp
 104:	0000                	unimp
 106:	f905                	bnez	a0,36 <.Ldebug_macro0+0x36>
 108:	0006                	c.slli	zero,0x1
 10a:	0000                	unimp
 10c:	0500                	addi	s0,sp,640
 10e:	06fc                	addi	a5,sp,844
 110:	0000                	unimp
 112:	0000                	unimp
 114:	8505                	srai	a0,a0,0x1
 116:	00000007          	0x7
 11a:	0500                	addi	s0,sp,640
 11c:	0788                	addi	a0,sp,960
 11e:	0000                	unimp
 120:	0000                	unimp
 122:	8b05                	andi	a4,a4,1
 124:	00000007          	0x7
 128:	0500                	addi	s0,sp,640
 12a:	0791                	addi	a5,a5,4
 12c:	0000                	unimp
 12e:	0000                	unimp
 130:	9405                	srai	s0,s0,0x21
 132:	00000007          	0x7
 136:	0500                	addi	s0,sp,640
 138:	07a9                	addi	a5,a5,10
 13a:	0000                	unimp
 13c:	0000                	unimp
 13e:	ac05                	j	36e <.Ldebug_macro0+0x36e>
 140:	00000007          	0x7
 144:	0500                	addi	s0,sp,640
 146:	000007af          	0x7af
 14a:	0000                	unimp
 14c:	b805                	j	fffff97c <.LASF439+0xffff990d>
 14e:	00000007          	0x7
 152:	0500                	addi	s0,sp,640
 154:	000007bb          	0x7bb
 158:	0000                	unimp
 15a:	be05                	j	fffffc8a <.LASF439+0xffff9c1b>
 15c:	00000007          	0x7
 160:	0500                	addi	s0,sp,640
 162:	07c1                	addi	a5,a5,16
 164:	0000                	unimp
 166:	0000                	unimp
 168:	c405                	beqz	s0,190 <.Ldebug_macro0+0x190>
 16a:	00000007          	0x7
 16e:	0500                	addi	s0,sp,640
 170:	000007d3          	fadd.s	fa5,ft0,ft0,rne
 174:	0000                	unimp
 176:	d605                	beqz	a2,9e <.Ldebug_macro0+0x9e>
 178:	00000007          	0x7
 17c:	0500                	addi	s0,sp,640
 17e:	07dc                	addi	a5,sp,964
 180:	0000                	unimp
 182:	0000                	unimp
 184:	e205                	bnez	a2,1a4 <.Ldebug_macro0+0x1a4>
 186:	00000007          	0x7
 18a:	0500                	addi	s0,sp,640
 18c:	07e5                	addi	a5,a5,25
 18e:	0000                	unimp
 190:	0000                	unimp
 192:	e805                	bnez	s0,1c2 <.Ldebug_macro0+0x1c2>
 194:	00000007          	0x7
 198:	0500                	addi	s0,sp,640
 19a:	000007eb          	0x7eb
 19e:	0000                	unimp
 1a0:	ee05                	bnez	a2,1d8 <.Ldebug_macro0+0x1d8>
 1a2:	00000007          	0x7
 1a6:	0500                	addi	s0,sp,640
 1a8:	07f4                	addi	a3,sp,972
 1aa:	0000                	unimp
 1ac:	0000                	unimp
 1ae:	9505                	srai	a0,a0,0x21
 1b0:	0008                	0x8
 1b2:	0000                	unimp
 1b4:	0500                	addi	s0,sp,640
 1b6:	08b0                	addi	a2,sp,88
 1b8:	0000                	unimp
 1ba:	0000                	unimp
 1bc:	b305                	j	fffffedc <.LASF439+0xffff9e6d>
 1be:	0008                	0x8
 1c0:	0000                	unimp
 1c2:	0500                	addi	s0,sp,640
 1c4:	08bc                	addi	a5,sp,88
 1c6:	0000                	unimp
 1c8:	0000                	unimp
 1ca:	c205                	beqz	a2,1ea <.Ldebug_macro0+0x1ea>
 1cc:	0008                	0x8
 1ce:	0000                	unimp
 1d0:	0500                	addi	s0,sp,640
 1d2:	08c8                	addi	a0,sp,84
 1d4:	0000                	unimp
 1d6:	0000                	unimp
 1d8:	cb05                	beqz	a4,208 <.Ldebug_macro0+0x208>
 1da:	0008                	0x8
 1dc:	0000                	unimp
 1de:	0500                	addi	s0,sp,640
 1e0:	08ce                	slli	a7,a7,0x13
 1e2:	0000                	unimp
 1e4:	0000                	unimp
 1e6:	d105                	beqz	a0,106 <.Ldebug_macro0+0x106>
 1e8:	0008                	0x8
 1ea:	0000                	unimp
 1ec:	0500                	addi	s0,sp,640
 1ee:	000008d7          	0x8d7
 1f2:	0000                	unimp
 1f4:	da05                	beqz	a2,124 <.Ldebug_macro0+0x124>
 1f6:	0008                	0x8
 1f8:	0000                	unimp
 1fa:	0500                	addi	s0,sp,640
 1fc:	08dd                	addi	a7,a7,23
 1fe:	0000                	unimp
 200:	0000                	unimp
 202:	e005                	bnez	s0,222 <.Ldebug_macro0+0x222>
 204:	0008                	0x8
 206:	0000                	unimp
 208:	0500                	addi	s0,sp,640
 20a:	0982                	c.slli64	s3
 20c:	0000                	unimp
 20e:	0000                	unimp
 210:	8505                	srai	a0,a0,0x1
 212:	0009                	c.nop	2
 214:	0000                	unimp
 216:	0500                	addi	s0,sp,640
 218:	0994                	addi	a3,sp,208
 21a:	0000                	unimp
 21c:	0000                	unimp
 21e:	9a05                	andi	a2,a2,-31
 220:	0009                	c.nop	2
 222:	0000                	unimp
 224:	0500                	addi	s0,sp,640
 226:	099d                	addi	s3,s3,7
 228:	0000                	unimp
 22a:	0000                	unimp
 22c:	a605                	j	54c <.LASF2+0x11>
 22e:	0009                	c.nop	2
 230:	0000                	unimp
 232:	0500                	addi	s0,sp,640
 234:	09a9                	addi	s3,s3,10
 236:	0000                	unimp
 238:	0000                	unimp
 23a:	ac05                	j	46a <.LASF42+0x14>
 23c:	0009                	c.nop	2
 23e:	0000                	unimp
 240:	0500                	addi	s0,sp,640
 242:	09b5                	addi	s3,s3,13
 244:	0000                	unimp
 246:	0000                	unimp
 248:	c405                	beqz	s0,270 <.Ldebug_macro0+0x270>
 24a:	0009                	c.nop	2
 24c:	0000                	unimp
 24e:	0500                	addi	s0,sp,640
 250:	000009c7          	fmsub.s	fs3,ft0,ft0,ft0,rne
 254:	0000                	unimp
 256:	ca05                	beqz	a2,286 <.Ldebug_macro0+0x286>
 258:	0009                	c.nop	2
 25a:	0000                	unimp
 25c:	0500                	addi	s0,sp,640
 25e:	09cd                	addi	s3,s3,19
 260:	0000                	unimp
 262:	0000                	unimp
 264:	d005                	beqz	s0,184 <.Ldebug_macro0+0x184>
 266:	0009                	c.nop	2
 268:	0000                	unimp
 26a:	0500                	addi	s0,sp,640
 26c:	000009d3          	fadd.s	fs3,ft0,ft0,rne
 270:	0000                	unimp
 272:	d605                	beqz	a2,19a <.Ldebug_macro0+0x19a>
 274:	0009                	c.nop	2
 276:	0000                	unimp
 278:	0500                	addi	s0,sp,640
 27a:	09d9                	addi	s3,s3,22
 27c:	0000                	unimp
 27e:	0000                	unimp
 280:	dc05                	beqz	s0,1b8 <.Ldebug_macro0+0x1b8>
 282:	0009                	c.nop	2
 284:	0000                	unimp
 286:	0500                	addi	s0,sp,640
 288:	00000baf          	0xbaf
 28c:	0000                	unimp
 28e:	b505                	j	ae <.Ldebug_macro0+0xae>
 290:	0000000b          	0xb
 294:	0500                	addi	s0,sp,640
 296:	0bb8                	addi	a4,sp,472
 298:	0000                	unimp
 29a:	0000                	unimp
 29c:	bb05                	j	ffffffcc <.LASF439+0xffff9f5d>
 29e:	0000000b          	0xb
 2a2:	0500                	addi	s0,sp,640
 2a4:	0bbe                	slli	s7,s7,0xf
 2a6:	0000                	unimp
 2a8:	0000                	unimp
 2aa:	c105                	beqz	a0,2ca <.Ldebug_macro0+0x2ca>
 2ac:	0000000b          	0xb
 2b0:	0500                	addi	s0,sp,640
 2b2:	0bc4                	addi	s1,sp,468
 2b4:	0000                	unimp
 2b6:	0000                	unimp
 2b8:	d605                	beqz	a2,1e0 <.Ldebug_macro0+0x1e0>
 2ba:	0000000b          	0xb
 2be:	0500                	addi	s0,sp,640
 2c0:	0bdd                	addi	s7,s7,23
 2c2:	0000                	unimp
 2c4:	0000                	unimp
 2c6:	ea05                	bnez	a2,2f6 <.Ldebug_macro0+0x2f6>
 2c8:	0000000b          	0xb
 2cc:	0500                	addi	s0,sp,640
 2ce:	0bee                	slli	s7,s7,0x1b
 2d0:	0000                	unimp
 2d2:	0000                	unimp
 2d4:	f205                	bnez	a2,1f4 <.Ldebug_macro0+0x1f4>
 2d6:	0000000b          	0xb
 2da:	0500                	addi	s0,sp,640
 2dc:	0bf6                	slli	s7,s7,0x1d
 2de:	0000                	unimp
 2e0:	0000                	unimp
 2e2:	ff05                	bnez	a4,21a <.Ldebug_macro0+0x21a>
 2e4:	0000000b          	0xb
 2e8:	0500                	addi	s0,sp,640
 2ea:	00000c83          	lb	s9,0(zero) # 0 <.Ldebug_macro0>
 2ee:	0000                	unimp
 2f0:	8705                	srai	a4,a4,0x1
 2f2:	000c                	0xc
 2f4:	0000                	unimp
 2f6:	0500                	addi	s0,sp,640
 2f8:	00000c8b          	0xc8b
 2fc:	0000                	unimp
 2fe:	9505                	srai	a0,a0,0x21
 300:	000c                	0xc
 302:	0000                	unimp
 304:	0500                	addi	s0,sp,640
 306:	00000c9b          	0xc9b
 30a:	0000                	unimp
 30c:	a005                	j	32c <.Ldebug_macro0+0x32c>
 30e:	000c                	0xc
 310:	0000                	unimp
 312:	0500                	addi	s0,sp,640
 314:	0ca6                	slli	s9,s9,0x9
 316:	0000                	unimp
 318:	0000                	unimp
 31a:	ac05                	j	54a <.LASF2+0xf>
 31c:	000c                	0xc
 31e:	0000                	unimp
 320:	0500                	addi	s0,sp,640
 322:	00000caf          	0xcaf
 326:	0000                	unimp
 328:	b205                	j	fffffc48 <.LASF439+0xffff9bd9>
 32a:	000c                	0xc
 32c:	0000                	unimp
 32e:	0500                	addi	s0,sp,640
 330:	0cb5                	addi	s9,s9,13
 332:	0000                	unimp
 334:	0000                	unimp
 336:	d505                	beqz	a0,25e <.Ldebug_macro0+0x25e>
 338:	000c                	0xc
 33a:	0000                	unimp
 33c:	0500                	addi	s0,sp,640
 33e:	0cd9                	addi	s9,s9,22
 340:	0000                	unimp
 342:	0000                	unimp
 344:	dd05                	beqz	a0,27c <.Ldebug_macro0+0x27c>
 346:	000c                	0xc
 348:	0000                	unimp
 34a:	0500                	addi	s0,sp,640
 34c:	0ce1                	addi	s9,s9,24
 34e:	0000                	unimp
 350:	0000                	unimp
 352:	e905                	bnez	a0,382 <.Ldebug_macro0+0x382>
 354:	000c                	0xc
 356:	0000                	unimp
 358:	0500                	addi	s0,sp,640
 35a:	0d84                	addi	s1,sp,720
 35c:	0000                	unimp
 35e:	0000                	unimp
 360:	9005                	srli	s0,s0,0x21
 362:	000d                	c.nop	3
 364:	0000                	unimp
 366:	0500                	addi	s0,sp,640
 368:	0dc5                	addi	s11,s11,17
 36a:	0000                	unimp
 36c:	0000                	unimp
 36e:	cf05                	beqz	a4,3a6 <.LASF396+0x2c>
 370:	000d                	c.nop	3
 372:	0000                	unimp
 374:	0500                	addi	s0,sp,640
 376:	0dd2                	slli	s11,s11,0x14
 378:	0000                	unimp
 37a:	0000                	unimp
 37c:	db05                	beqz	a4,2ac <.Ldebug_macro0+0x2ac>
 37e:	000d                	c.nop	3
 380:	0000                	unimp
	...

Disassembly of section .debug_macro:

00000000 <.Ldebug_macro0>:
   0:	0004                	0x4
   2:	0600                	addi	s0,sp,768
   4:	0004                	0x4
   6:	0000                	unimp
   8:	0500                	addi	s0,sp,640
   a:	0005                	c.nop	1
   c:	0000                	unimp
   e:	0600                	addi	s0,sp,768
  10:	0006                	c.slli	zero,0x1
  12:	0000                	unimp
  14:	0500                	addi	s0,sp,640
  16:	00000007          	0x7
	...

Disassembly of section .debug_macro:

00000000 <.Ldebug_macro0>:
   0:	0004                	0x4
   2:	0500                	addi	s0,sp,640
   4:	0004                	0x4
   6:	0000                	unimp
   8:	0500                	addi	s0,sp,640
   a:	0006                	c.slli	zero,0x1
   c:	0000                	unimp
   e:	0500                	addi	s0,sp,640
  10:	00000007          	0x7
  14:	0500                	addi	s0,sp,640
  16:	0008                	0x8
  18:	0000                	unimp
  1a:	0500                	addi	s0,sp,640
  1c:	0009                	c.nop	2
  1e:	0000                	unimp
	...

Disassembly of section .debug_macro:

00000000 <.Ldebug_macro0>:
   0:	0004                	0x4
   2:	0500                	addi	s0,sp,640
   4:	0021                	c.nop	8
   6:	0000                	unimp
   8:	0500                	addi	s0,sp,640
   a:	0028                	addi	a0,sp,8
   c:	0000                	unimp
   e:	0500                	addi	s0,sp,640
  10:	01f9                	addi	gp,gp,30
  12:	0000                	unimp
  14:	0000                	unimp
  16:	ff05                	bnez	a4,ffffff4e <.LASF439+0xffff9edf>
  18:	0001                	nop
  1a:	0000                	unimp
  1c:	0500                	addi	s0,sp,640
  1e:	0285                	addi	t0,t0,1
  20:	0000                	unimp
  22:	0000                	unimp
  24:	8a05                	andi	a2,a2,1
  26:	0002                	c.slli64	zero
  28:	0000                	unimp
  2a:	0500                	addi	s0,sp,640
  2c:	0295                	addi	t0,t0,5
  2e:	0000                	unimp
  30:	0000                	unimp
  32:	9b05                	andi	a4,a4,-31
  34:	0002                	c.slli64	zero
  36:	0000                	unimp
  38:	0500                	addi	s0,sp,640
  3a:	000002ab          	0x2ab
  3e:	0000                	unimp
  40:	b105                	j	fffffc60 <.LASF439+0xffff9bf1>
  42:	0002                	c.slli64	zero
  44:	0000                	unimp
  46:	0500                	addi	s0,sp,640
  48:	000002bf ca050000 	0xca050000000002bf
  50:	0002                	c.slli64	zero
  52:	0000                	unimp
	...

Disassembly of section .debug_macro:

00000000 <.Ldebug_macro0>:
   0:	0004                	0x4
   2:	0500                	addi	s0,sp,640
   4:	0000000f          	fence	unknown,unknown
   8:	0500                	addi	s0,sp,640
   a:	001a                	c.slli	zero,0x6
   c:	0000                	unimp
   e:	0500                	addi	s0,sp,640
  10:	0021                	c.nop	8
  12:	0000                	unimp
  14:	0500                	addi	s0,sp,640
  16:	0000002f          	0x2f
  1a:	0500                	addi	s0,sp,640
  1c:	003d                	c.nop	15
  1e:	0000                	unimp
  20:	0500                	addi	s0,sp,640
  22:	00000053          	fadd.s	ft0,ft0,ft0,rne
  26:	0500                	addi	s0,sp,640
  28:	006d                	c.nop	27
  2a:	0000                	unimp
  2c:	0500                	addi	s0,sp,640
  2e:	018c                	addi	a1,sp,192
  30:	0000                	unimp
  32:	0000                	unimp
  34:	a605                	j	354 <sch::sproc_add(sproc_t*)+0x4>
  36:	0001                	nop
  38:	0000                	unimp
  3a:	0500                	addi	s0,sp,640
  3c:	01bc                	addi	a5,sp,200
  3e:	0000                	unimp
  40:	0000                	unimp
  42:	ce05                	beqz	a2,7a <.LASF354+0xa>
  44:	0001                	nop
  46:	0000                	unimp
  48:	0600                	addi	s0,sp,768
  4a:	01f4                	addi	a3,sp,204
  4c:	0000                	unimp
  4e:	0000                	unimp
	...

Disassembly of section .debug_macro:

00000000 <.Ldebug_macro0>:
   0:	0004                	0x4
   2:	0500                	addi	s0,sp,640
   4:	000a                	c.slli	zero,0x2
   6:	0000                	unimp
   8:	0500                	addi	s0,sp,640
   a:	0010                	0x10
   c:	0000                	unimp
   e:	0600                	addi	s0,sp,768
  10:	0000002b          	0x2b
  14:	0600                	addi	s0,sp,768
  16:	002c                	addi	a1,sp,8
  18:	0000                	unimp
  1a:	0600                	addi	s0,sp,768
  1c:	002d                	c.nop	11
  1e:	0000                	unimp
  20:	0600                	addi	s0,sp,768
  22:	002e                	c.slli	zero,0xb
  24:	0000                	unimp
  26:	0200                	addi	s0,sp,256
  28:	746e692f          	0x746e692f
  2c:	0600                	addi	s0,sp,768
  2e:	0030                	addi	a2,sp,8
  30:	0000                	unimp
  32:	0600                	addi	s0,sp,768
  34:	0031                	c.nop	12
  36:	0000                	unimp
  38:	0600                	addi	s0,sp,768
  3a:	0032                	c.slli	zero,0xc
  3c:	0000                	unimp
  3e:	0500                	addi	s0,sp,640
  40:	00000033          	add	zero,zero,zero
  44:	0500                	addi	s0,sp,640
  46:	0034                	addi	a3,sp,8
  48:	0000                	unimp
  4a:	0500                	addi	s0,sp,640
  4c:	0035                	c.nop	13
  4e:	0000                	unimp
  50:	0500                	addi	s0,sp,640
  52:	0036                	c.slli	zero,0xd
  54:	0000                	unimp
  56:	0500                	addi	s0,sp,640
  58:	00000037          	lui	zero,0x0
  5c:	0500                	addi	s0,sp,640
  5e:	0038                	addi	a4,sp,8
  60:	0000                	unimp
  62:	0500                	addi	s0,sp,640
  64:	0039                	c.nop	14
  66:	0000                	unimp
  68:	0500                	addi	s0,sp,640
  6a:	003a                	c.slli	zero,0xe
  6c:	0000                	unimp
  6e:	0500                	addi	s0,sp,640
  70:	00000043          	fmadd.s	ft0,ft0,ft0,ft0,rne
  74:	0500                	addi	s0,sp,640
  76:	004a                	c.slli	zero,0x12
  78:	0000                	unimp
  7a:	0500                	addi	s0,sp,640
  7c:	0052                	c.slli	zero,0x14
  7e:	0000                	unimp
  80:	0500                	addi	s0,sp,640
  82:	005d                	c.nop	23
  84:	0000                	unimp
  86:	0500                	addi	s0,sp,640
  88:	0068                	addi	a0,sp,12
  8a:	0000                	unimp
  8c:	0500                	addi	s0,sp,640
  8e:	0071                	c.nop	28
  90:	0000                	unimp
  92:	0500                	addi	s0,sp,640
  94:	0078                	addi	a4,sp,12
  96:	0000                	unimp
  98:	0500                	addi	s0,sp,640
  9a:	0181                	addi	gp,gp,0
  9c:	0000                	unimp
  9e:	0000                	unimp
  a0:	8805                	andi	s0,s0,1
  a2:	0001                	nop
  a4:	0000                	unimp
  a6:	0500                	addi	s0,sp,640
  a8:	00000193          	li	gp,0
  ac:	0000                	unimp
  ae:	9705                	srai	a4,a4,0x21
  b0:	0001                	nop
  b2:	0000                	unimp
  b4:	0500                	addi	s0,sp,640
  b6:	01a2                	slli	gp,gp,0x8
  b8:	0000                	unimp
  ba:	0000                	unimp
  bc:	ad05                	j	6ec <.LASF471+0x9>
  be:	0001                	nop
  c0:	0000                	unimp
  c2:	0500                	addi	s0,sp,640
  c4:	01b6                	slli	gp,gp,0xd
  c6:	0000                	unimp
  c8:	0000                	unimp
  ca:	b806                	fsd	ft1,48(sp)
  cc:	0001                	nop
  ce:	0000                	unimp
  d0:	0600                	addi	s0,sp,768
  d2:	01b9                	addi	gp,gp,14
  d4:	0000                	unimp
  d6:	0000                	unimp
  d8:	ba06                	fsd	ft1,304(sp)
  da:	0001                	nop
  dc:	0000                	unimp
  de:	0600                	addi	s0,sp,768
  e0:	000001bb          	0x1bb
  e4:	0000                	unimp
  e6:	bc02                	fsd	ft0,56(sp)
  e8:	6901                	0x6901
  ea:	746e                	flw	fs0,248(sp)
  ec:	0600                	addi	s0,sp,768
  ee:	01bd                	addi	gp,gp,15
  f0:	0000                	unimp
  f2:	0000                	unimp
  f4:	c206                	sw	ra,4(sp)
  f6:	0001                	nop
  f8:	0000                	unimp
  fa:	0600                	addi	s0,sp,768
  fc:	000001c3          	fmadd.s	ft3,ft0,ft0,ft0,rne
 100:	0000                	unimp
	...

Disassembly of section .debug_macro:

00000000 <.Ldebug_macro0>:
   0:	0004                	0x4
   2:	0500                	addi	s0,sp,640
   4:	000a                	c.slli	zero,0x2
   6:	0000                	unimp
   8:	0500                	addi	s0,sp,640
   a:	0015                	c.nop	5
   c:	0000                	unimp
   e:	0500                	addi	s0,sp,640
  10:	0019                	c.nop	6
  12:	0000                	unimp
  14:	0500                	addi	s0,sp,640
  16:	0000001b          	0x1b
  1a:	0500                	addi	s0,sp,640
  1c:	0021                	c.nop	8
  1e:	0000                	unimp
  20:	0500                	addi	s0,sp,640
  22:	0025                	c.nop	9
  24:	0000                	unimp
  26:	0500                	addi	s0,sp,640
  28:	00000027          	0x27
  2c:	0500                	addi	s0,sp,640
  2e:	002d                	c.nop	11
  30:	0000                	unimp
  32:	0500                	addi	s0,sp,640
  34:	0031                	c.nop	12
  36:	0000                	unimp
  38:	0500                	addi	s0,sp,640
  3a:	00000033          	add	zero,zero,zero
  3e:	0500                	addi	s0,sp,640
  40:	0039                	c.nop	14
  42:	0000                	unimp
  44:	0500                	addi	s0,sp,640
  46:	003d                	c.nop	15
  48:	0000                	unimp
  4a:	0500                	addi	s0,sp,640
  4c:	0000003f 00440500 	0x4405000000003f
  54:	0000                	unimp
  56:	0500                	addi	s0,sp,640
  58:	0049                	c.nop	18
  5a:	0000                	unimp
  5c:	0500                	addi	s0,sp,640
  5e:	004e                	c.slli	zero,0x13
  60:	0000                	unimp
  62:	0500                	addi	s0,sp,640
  64:	00000053          	fadd.s	ft0,ft0,ft0,rne
	...

Disassembly of section .debug_macro:

00000000 <.Ldebug_macro0>:
   0:	0004                	0x4
   2:	0500                	addi	s0,sp,640
   4:	00000017          	auipc	zero,0x0
   8:	0500                	addi	s0,sp,640
   a:	001d                	c.nop	7
   c:	0000                	unimp
   e:	0500                	addi	s0,sp,640
  10:	00000023          	sb	zero,0(zero) # 0 <.Ldebug_macro0>
  14:	0500                	addi	s0,sp,640
  16:	0029                	c.nop	10
  18:	0000                	unimp
  1a:	0500                	addi	s0,sp,640
  1c:	0035                	c.nop	13
  1e:	0000                	unimp
  20:	0500                	addi	s0,sp,640
  22:	0000003f 00490500 	0x4905000000003f
  2a:	0000                	unimp
  2c:	0500                	addi	s0,sp,640
  2e:	00000053          	fadd.s	ft0,ft0,ft0,rne
  32:	0500                	addi	s0,sp,640
  34:	0180                	addi	s0,sp,192
  36:	0000                	unimp
  38:	0000                	unimp
  3a:	8105                	srli	a0,a0,0x1
  3c:	0001                	nop
  3e:	0000                	unimp
  40:	0500                	addi	s0,sp,640
  42:	0182                	c.slli64	gp
  44:	0000                	unimp
  46:	0000                	unimp
  48:	9805                	andi	s0,s0,-31
  4a:	0001                	nop
  4c:	0000                	unimp
  4e:	0500                	addi	s0,sp,640
  50:	0199                	addi	gp,gp,6
  52:	0000                	unimp
  54:	0000                	unimp
  56:	9a05                	andi	a2,a2,-31
  58:	0001                	nop
  5a:	0000                	unimp
  5c:	0500                	addi	s0,sp,640
  5e:	01a2                	slli	gp,gp,0x8
  60:	0000                	unimp
  62:	0000                	unimp
  64:	a305                	j	584 <.LASF120+0xe>
  66:	0001                	nop
  68:	0000                	unimp
  6a:	0500                	addi	s0,sp,640
  6c:	01a4                	addi	s1,sp,200
  6e:	0000                	unimp
  70:	0000                	unimp
  72:	ae05                	j	3a2 <.LASF396+0x28>
  74:	0001                	nop
  76:	0000                	unimp
  78:	0500                	addi	s0,sp,640
  7a:	000001af          	0x1af
  7e:	0000                	unimp
  80:	b005                	j	fffff8a0 <.LASF439+0xffff9831>
  82:	0001                	nop
  84:	0000                	unimp
  86:	0500                	addi	s0,sp,640
  88:	01b8                	addi	a4,sp,200
  8a:	0000                	unimp
  8c:	0000                	unimp
  8e:	b905                	j	fffffcbe <.LASF439+0xffff9c4f>
  90:	0001                	nop
  92:	0000                	unimp
  94:	0500                	addi	s0,sp,640
  96:	01ba                	slli	gp,gp,0xe
  98:	0000                	unimp
  9a:	0000                	unimp
  9c:	c405                	beqz	s0,c4 <.Ldebug_macro0+0xc4>
  9e:	0001                	nop
  a0:	0000                	unimp
  a2:	0500                	addi	s0,sp,640
  a4:	01c5                	addi	gp,gp,17
  a6:	0000                	unimp
  a8:	0000                	unimp
  aa:	c605                	beqz	a2,d2 <.Ldebug_macro0+0xd2>
  ac:	0001                	nop
  ae:	0000                	unimp
  b0:	0500                	addi	s0,sp,640
  b2:	01d4                	addi	a3,sp,196
  b4:	0000                	unimp
  b6:	0000                	unimp
  b8:	d505                	beqz	a0,ffffffe0 <.LASF439+0xffff9f71>
  ba:	0001                	nop
  bc:	0000                	unimp
  be:	0500                	addi	s0,sp,640
  c0:	01d6                	slli	gp,gp,0x15
  c2:	0000                	unimp
  c4:	0000                	unimp
  c6:	e605                	bnez	a2,ee <.Ldebug_macro0+0xee>
  c8:	0001                	nop
  ca:	0000                	unimp
  cc:	0500                	addi	s0,sp,640
  ce:	000001e7          	jalr	gp,zero # 0 <.Ldebug_macro0>
  d2:	0000                	unimp
  d4:	e805                	bnez	s0,104 <.Ldebug_macro0+0x104>
  d6:	0001                	nop
  d8:	0000                	unimp
  da:	0500                	addi	s0,sp,640
  dc:	01f6                	slli	gp,gp,0x1d
  de:	0000                	unimp
  e0:	0000                	unimp
  e2:	f705                	bnez	a4,a <.Ldebug_macro0+0xa>
  e4:	0001                	nop
  e6:	0000                	unimp
  e8:	0500                	addi	s0,sp,640
  ea:	01f8                	addi	a4,sp,204
  ec:	0000                	unimp
  ee:	0000                	unimp
  f0:	8605                	srai	a2,a2,0x1
  f2:	0002                	c.slli64	zero
  f4:	0000                	unimp
  f6:	0500                	addi	s0,sp,640
  f8:	00000287          	0x287
  fc:	0000                	unimp
  fe:	8805                	andi	s0,s0,1
 100:	0002                	c.slli64	zero
 102:	0000                	unimp
 104:	0500                	addi	s0,sp,640
 106:	0296                	slli	t0,t0,0x5
 108:	0000                	unimp
 10a:	0000                	unimp
 10c:	9705                	srai	a4,a4,0x21
 10e:	0002                	c.slli64	zero
 110:	0000                	unimp
 112:	0500                	addi	s0,sp,640
 114:	0298                	addi	a4,sp,320
 116:	0000                	unimp
 118:	0000                	unimp
 11a:	a605                	j	43a <.LASF424+0xc>
 11c:	0002                	c.slli64	zero
 11e:	0000                	unimp
 120:	0500                	addi	s0,sp,640
 122:	000002a7          	0x2a7
 126:	0000                	unimp
 128:	a805                	j	158 <.Ldebug_macro0+0x158>
 12a:	0002                	c.slli64	zero
 12c:	0000                	unimp
 12e:	0500                	addi	s0,sp,640
 130:	02b6                	slli	t0,t0,0xd
 132:	0000                	unimp
 134:	0000                	unimp
 136:	b705                	j	56 <.Ldebug_macro0+0x56>
 138:	0002                	c.slli64	zero
 13a:	0000                	unimp
 13c:	0500                	addi	s0,sp,640
 13e:	02b8                	addi	a4,sp,328
 140:	0000                	unimp
 142:	0000                	unimp
 144:	c605                	beqz	a2,16c <.Ldebug_macro0+0x16c>
 146:	0002                	c.slli64	zero
 148:	0000                	unimp
 14a:	0500                	addi	s0,sp,640
 14c:	000002c7          	fmsub.s	ft5,ft0,ft0,ft0,rne
 150:	0000                	unimp
 152:	cf05                	beqz	a4,18a <.Ldebug_macro0+0x18a>
 154:	0002                	c.slli64	zero
 156:	0000                	unimp
 158:	0500                	addi	s0,sp,640
 15a:	000002d7          	0x2d7
 15e:	0000                	unimp
 160:	dd05                	beqz	a0,98 <.Ldebug_macro0+0x98>
 162:	0002                	c.slli64	zero
 164:	0000                	unimp
 166:	0500                	addi	s0,sp,640
 168:	02de                	slli	t0,t0,0x17
 16a:	0000                	unimp
 16c:	0000                	unimp
 16e:	e205                	bnez	a2,18e <.Ldebug_macro0+0x18e>
 170:	0002                	c.slli64	zero
 172:	0000                	unimp
 174:	0500                	addi	s0,sp,640
 176:	02e6                	slli	t0,t0,0x19
 178:	0000                	unimp
 17a:	0000                	unimp
 17c:	eb05                	bnez	a4,1ac <.Ldebug_macro0+0x1ac>
 17e:	0002                	c.slli64	zero
 180:	0000                	unimp
 182:	0500                	addi	s0,sp,640
 184:	02f6                	slli	t0,t0,0x1d
 186:	0000                	unimp
 188:	0000                	unimp
 18a:	8005                	srli	s0,s0,0x1
 18c:	00000003          	lb	zero,0(zero) # 0 <.Ldebug_macro0>
 190:	0500                	addi	s0,sp,640
 192:	0385                	addi	t2,t2,1
 194:	0000                	unimp
 196:	0000                	unimp
 198:	8c05                	sub	s0,s0,s1
 19a:	00000003          	lb	zero,0(zero) # 0 <.Ldebug_macro0>
 19e:	0500                	addi	s0,sp,640
 1a0:	038d                	addi	t2,t2,3
 1a2:	0000                	unimp
 1a4:	0000                	unimp
 1a6:	9805                	andi	s0,s0,-31
 1a8:	00000003          	lb	zero,0(zero) # 0 <.Ldebug_macro0>
 1ac:	0500                	addi	s0,sp,640
 1ae:	0399                	addi	t2,t2,6
 1b0:	0000                	unimp
 1b2:	0000                	unimp
 1b4:	a405                	j	3d4 <.L30+0x12>
 1b6:	00000003          	lb	zero,0(zero) # 0 <.Ldebug_macro0>
 1ba:	0500                	addi	s0,sp,640
 1bc:	03a5                	addi	t2,t2,9
 1be:	0000                	unimp
 1c0:	0000                	unimp
 1c2:	b105                	j	fffffde2 <.LASF439+0xffff9d73>
 1c4:	00000003          	lb	zero,0(zero) # 0 <.Ldebug_macro0>
 1c8:	0500                	addi	s0,sp,640
 1ca:	03b2                	slli	t2,t2,0xc
 1cc:	0000                	unimp
 1ce:	0000                	unimp
 1d0:	c105                	beqz	a0,1f0 <.LASF146+0x7>
 1d2:	00000003          	lb	zero,0(zero) # 0 <.Ldebug_macro0>
 1d6:	0500                	addi	s0,sp,640
 1d8:	03c2                	slli	t2,t2,0x10
 1da:	0000                	unimp
 1dc:	0000                	unimp
	...

Disassembly of section .debug_line:

00000000 <.Ldebug_line0>:
   0:	09e4                	addi	s1,sp,220
   2:	0000                	unimp
   4:	02c20003          	lb	zero,44(tp) # 2c <.Ldebug_line0+0x2c>
   8:	0000                	unimp
   a:	0101                	addi	sp,sp,0
   c:	000d0efb          	0xd0efb
  10:	0101                	addi	sp,sp,0
  12:	0101                	addi	sp,sp,0
  14:	0000                	unimp
  16:	0100                	addi	s0,sp,128
  18:	0000                	unimp
  1a:	2e01                	jal	32a <.Ldebug_line0+0x32a>
  1c:	2f2e                	fld	ft10,200(sp)
  1e:	00637273          	csrrci	tp,0x6,6
  22:	74706f2f          	0x74706f2f
  26:	7369722f          	0x7369722f
  2a:	672d7663          	bgeu	s10,s2,696 <.Ldebug_line0+0x696>
  2e:	672f6363          	bltu	t5,s2,694 <.Ldebug_line0+0x694>
  32:	3364                	fld	fs1,224(a4)
  34:	7632                	flw	fa2,44(sp)
  36:	3166                	fld	ft2,120(sp)
  38:	3330                	fld	fa2,96(a4)
  3a:	7369722f          	0x7369722f
  3e:	32337663          	bgeu	t1,gp,36a <.Ldebug_line0+0x36a>
  42:	752d                	lui	a0,0xfffeb
  44:	6b6e                	flw	fs6,216(sp)
  46:	6f6e                	flw	ft10,216(sp)
  48:	652d6e77          	0x652d6e77
  4c:	666c                	flw	fa1,76(a2)
  4e:	636e692f          	0x636e692f
  52:	756c                	flw	fa1,108(a0)
  54:	6564                	flw	fs1,76(a0)
  56:	2b2b632f          	0x2b2b632f
  5a:	2e30312f          	0x2e30312f
  5e:	2e32                	fld	ft8,264(sp)
  60:	0030                	addi	a2,sp,8
  62:	74706f2f          	0x74706f2f
  66:	7369722f          	0x7369722f
  6a:	672d7663          	bgeu	s10,s2,6d6 <.Ldebug_line0+0x6d6>
  6e:	672f6363          	bltu	t5,s2,6d4 <.Ldebug_line0+0x6d4>
  72:	3364                	fld	fs1,224(a4)
  74:	7632                	flw	fa2,44(sp)
  76:	3166                	fld	ft2,120(sp)
  78:	3330                	fld	fa2,96(a4)
  7a:	7369722f          	0x7369722f
  7e:	32337663          	bgeu	t1,gp,3aa <.Ldebug_line0+0x3aa>
  82:	752d                	lui	a0,0xfffeb
  84:	6b6e                	flw	fs6,216(sp)
  86:	6f6e                	flw	ft10,216(sp)
  88:	652d6e77          	0x652d6e77
  8c:	666c                	flw	fa1,76(a2)
  8e:	636e692f          	0x636e692f
  92:	756c                	flw	fa1,108(a0)
  94:	6564                	flw	fs1,76(a0)
  96:	2b2b632f          	0x2b2b632f
  9a:	2e30312f          	0x2e30312f
  9e:	2e32                	fld	ft8,264(sp)
  a0:	2f30                	fld	fa2,88(a4)
  a2:	6972                	flw	fs2,28(sp)
  a4:	33766373          	csrrsi	t1,mhpmevent23,12
  a8:	2d32                	fld	fs10,264(sp)
  aa:	6e75                	lui	t3,0x1d
  ac:	776f6e6b          	0x776f6e6b
  b0:	2d6e                	fld	fs10,216(sp)
  b2:	6c65                	lui	s8,0x19
  b4:	2f66                	fld	ft10,88(sp)
  b6:	6962                	flw	fs2,24(sp)
  b8:	7374                	flw	fa3,100(a4)
  ba:	2f00                	fld	fs0,24(a4)
  bc:	2f74706f          	j	47bb2 <.LASF439+0x41b43>
  c0:	6972                	flw	fs2,28(sp)
  c2:	2d766373          	csrrsi	t1,0x2d7,12
  c6:	2f636367          	0x2f636367
  ca:	32336467          	0x32336467
  ce:	6676                	flw	fa2,92(sp)
  d0:	3031                	jal	fffff8dc <.LASF439+0xffff986d>
  d2:	69722f33          	0x69722f33
  d6:	33766373          	csrrsi	t1,mhpmevent23,12
  da:	2d32                	fld	fs10,264(sp)
  dc:	6e75                	lui	t3,0x1d
  de:	776f6e6b          	0x776f6e6b
  e2:	2d6e                	fld	fs10,216(sp)
  e4:	6c65                	lui	s8,0x19
  e6:	2f66                	fld	ft10,88(sp)
  e8:	6e69                	lui	t3,0x1a
  ea:	64756c63          	bltu	a0,t2,742 <.Ldebug_line0+0x742>
  ee:	2f65                	jal	8a6 <.Ldebug_line0+0x8a6>
  f0:	616d                	addi	sp,sp,240
  f2:	6e696863          	bltu	s2,t1,7e2 <.Ldebug_line0+0x7e2>
  f6:	0065                	c.nop	25
  f8:	74706f2f          	0x74706f2f
  fc:	7369722f          	0x7369722f
 100:	672d7663          	bgeu	s10,s2,76c <.Ldebug_line0+0x76c>
 104:	672f6363          	bltu	t5,s2,76a <.Ldebug_line0+0x76a>
 108:	3364                	fld	fs1,224(a4)
 10a:	7632                	flw	fa2,44(sp)
 10c:	3166                	fld	ft2,120(sp)
 10e:	3330                	fld	fa2,96(a4)
 110:	7369722f          	0x7369722f
 114:	32337663          	bgeu	t1,gp,440 <.Ldebug_line0+0x440>
 118:	752d                	lui	a0,0xfffeb
 11a:	6b6e                	flw	fs6,216(sp)
 11c:	6f6e                	flw	ft10,216(sp)
 11e:	652d6e77          	0x652d6e77
 122:	666c                	flw	fa1,76(a2)
 124:	636e692f          	0x636e692f
 128:	756c                	flw	fa1,108(a0)
 12a:	6564                	flw	fs1,76(a0)
 12c:	7379732f          	0x7379732f
 130:	2f00                	fld	fs0,24(a4)
 132:	2f74706f          	j	47c28 <.LASF439+0x41bb9>
 136:	6972                	flw	fs2,28(sp)
 138:	2d766373          	csrrsi	t1,0x2d7,12
 13c:	2f636367          	0x2f636367
 140:	32336467          	0x32336467
 144:	6676                	flw	fa2,92(sp)
 146:	3031                	jal	fffff952 <.LASF439+0xffff98e3>
 148:	69722f33          	0x69722f33
 14c:	33766373          	csrrsi	t1,mhpmevent23,12
 150:	2d32                	fld	fs10,264(sp)
 152:	6e75                	lui	t3,0x1d
 154:	776f6e6b          	0x776f6e6b
 158:	2d6e                	fld	fs10,216(sp)
 15a:	6c65                	lui	s8,0x19
 15c:	2f66                	fld	ft10,88(sp)
 15e:	6e69                	lui	t3,0x1a
 160:	64756c63          	bltu	a0,t2,7b8 <.Ldebug_line0+0x7b8>
 164:	0065                	c.nop	25
 166:	74706f2f          	0x74706f2f
 16a:	7369722f          	0x7369722f
 16e:	672d7663          	bgeu	s10,s2,7da <.Ldebug_line0+0x7da>
 172:	672f6363          	bltu	t5,s2,7d8 <.Ldebug_line0+0x7d8>
 176:	3364                	fld	fs1,224(a4)
 178:	7632                	flw	fa2,44(sp)
 17a:	3166                	fld	ft2,120(sp)
 17c:	3330                	fld	fa2,96(a4)
 17e:	7369722f          	0x7369722f
 182:	32337663          	bgeu	t1,gp,4ae <.Ldebug_line0+0x4ae>
 186:	752d                	lui	a0,0xfffeb
 188:	6b6e                	flw	fs6,216(sp)
 18a:	6f6e                	flw	ft10,216(sp)
 18c:	652d6e77          	0x652d6e77
 190:	666c                	flw	fa1,76(a2)
 192:	636e692f          	0x636e692f
 196:	756c                	flw	fa1,108(a0)
 198:	6564                	flw	fs1,76(a0)
 19a:	2b2b632f          	0x2b2b632f
 19e:	2e30312f          	0x2e30312f
 1a2:	2e32                	fld	ft8,264(sp)
 1a4:	2f30                	fld	fa2,88(a4)
 1a6:	7370                	flw	fa2,100(a4)
 1a8:	6c74                	flw	fa3,92(s0)
 1aa:	2f00                	fld	fs0,24(a4)
 1ac:	2f74706f          	j	47ca2 <.LASF439+0x41c33>
 1b0:	6972                	flw	fs2,28(sp)
 1b2:	2d766373          	csrrsi	t1,0x2d7,12
 1b6:	2f636367          	0x2f636367
 1ba:	32336467          	0x32336467
 1be:	6676                	flw	fa2,92(sp)
 1c0:	3031                	jal	fffff9cc <.LASF439+0xffff995d>
 1c2:	696c2f33          	0x696c2f33
 1c6:	2f62                	fld	ft10,24(sp)
 1c8:	2f636367          	0x2f636367
 1cc:	6972                	flw	fs2,28(sp)
 1ce:	33766373          	csrrsi	t1,mhpmevent23,12
 1d2:	2d32                	fld	fs10,264(sp)
 1d4:	6e75                	lui	t3,0x1d
 1d6:	776f6e6b          	0x776f6e6b
 1da:	2d6e                	fld	fs10,216(sp)
 1dc:	6c65                	lui	s8,0x19
 1de:	2f66                	fld	ft10,88(sp)
 1e0:	3031                	jal	fffff9ec <.LASF439+0xffff997d>
 1e2:	322e                	fld	ft4,232(sp)
 1e4:	302e                	fld	ft0,232(sp)
 1e6:	636e692f          	0x636e692f
 1ea:	756c                	flw	fa1,108(a0)
 1ec:	6564                	flw	fs1,76(a0)
 1ee:	0000                	unimp
 1f0:	76686373          	csrrsi	t1,0x766,16
 1f4:	2e34                	fld	fa3,88(a2)
 1f6:	00707063          	bgeu	zero,t2,1f6 <.Ldebug_line0+0x1f6>
 1fa:	0001                	nop
 1fc:	6300                	flw	fs0,0(a4)
 1fe:	69647473          	csrrci	s0,0x696,8
 202:	746e                	flw	fs0,248(sp)
 204:	0200                	addi	s0,sp,256
 206:	0000                	unimp
 208:	632b2b63          	0x632b2b63
 20c:	69666e6f          	jal	t3,668a2 <.LASF439+0x60833>
 210:	00682e67          	0x682e67
 214:	5f000003          	lb	zero,1520(zero) # 5f0 <.Ldebug_line0+0x5f0>
 218:	6564                	flw	fs1,76(a0)
 21a:	6166                	flw	ft2,88(sp)
 21c:	6c75                	lui	s8,0x1d
 21e:	5f74                	lw	a3,124(a4)
 220:	7974                	flw	fa3,116(a0)
 222:	6570                	flw	fa2,76(a0)
 224:	00682e73          	csrrs	t3,0x6,a6
 228:	0004                	0x4
 22a:	5f00                	lw	s0,56(a4)
 22c:	69647473          	csrrci	s0,0x696,8
 230:	746e                	flw	fs0,248(sp)
 232:	682e                	flw	fa6,200(sp)
 234:	0500                	addi	s0,sp,640
 236:	0000                	unimp
 238:	69647473          	csrrci	s0,0x696,8
 23c:	746e                	flw	fs0,248(sp)
 23e:	682e                	flw	fa6,200(sp)
 240:	0600                	addi	s0,sp,768
 242:	0000                	unimp
 244:	76686373          	csrrsi	t1,0x766,16
 248:	2e34                	fld	fa3,88(a2)
 24a:	0068                	addi	a0,sp,12
 24c:	0001                	nop
 24e:	3c00                	fld	fs0,56(s0)
 250:	7562                	flw	fa0,56(sp)
 252:	6c69                	lui	s8,0x1a
 254:	2d74                	fld	fa3,216(a0)
 256:	6e69                	lui	t3,0x1a
 258:	003e                	c.slli	zero,0xf
 25a:	0000                	unimp
 25c:	6f00                	flw	fs0,24(a4)
 25e:	65645f73          	csrrwi	t5,0x656,8
 262:	6966                	flw	fs2,88(sp)
 264:	656e                	flw	fa0,216(sp)
 266:	00682e73          	csrrs	t3,0x6,a6
 26a:	63000003          	lb	zero,1584(zero) # 630 <.Ldebug_line0+0x630>
 26e:	7570                	flw	fa2,108(a0)
 270:	645f 6665 6e69      	0x6e696665645f
 276:	7365                	lui	t1,0xffff9
 278:	682e                	flw	fa6,200(sp)
 27a:	0300                	addi	s0,sp,384
 27c:	0000                	unimp
 27e:	7370                	flw	fa2,100(a4)
 280:	6c74                	flw	fa3,92(s0)
 282:	635f 6e6f 6966      	0x69666e6f635f
 288:	00682e67          	0x682e67
 28c:	73000007          	0x73000007
 290:	6474                	flw	fa3,76(s0)
 292:	6e69                	lui	t3,0x1a
 294:	2e74                	fld	fa3,216(a2)
 296:	0068                	addi	a0,sp,12
 298:	0008                	0x8
 29a:	6600                	flw	fs0,8(a2)
 29c:	6165                	addi	sp,sp,112
 29e:	7574                	flw	fa3,108(a0)
 2a0:	6572                	flw	fa0,28(sp)
 2a2:	00682e73          	csrrs	t3,0x6,a6
 2a6:	0005                	c.nop	1
 2a8:	5f00                	lw	s0,56(a4)
 2aa:	656e                	flw	fa0,216(sp)
 2ac:	62696c77          	0x62696c77
 2b0:	765f 7265 6973      	0x69737265765f
 2b6:	682e6e6f          	jal	t3,e6938 <.LASF439+0xe08c9>
 2ba:	0600                	addi	s0,sp,768
 2bc:	0000                	unimp
 2be:	695f 746e 7573      	0x7573746e695f
 2c4:	2e70                	fld	fa2,216(a2)
 2c6:	0068                	addi	a0,sp,12
 2c8:	0005                	c.nop	1
 2ca:	0000                	unimp
 2cc:	0105                	addi	sp,sp,1
 2ce:	0500                	addi	s0,sp,640
 2d0:	0002                	c.slli64	zero
 2d2:	0000                	unimp
 2d4:	1600                	addi	s0,sp,800
 2d6:	00090503          	lb	a0,0(s2)
 2da:	0100                	addi	s0,sp,128
 2dc:	0a05                	addi	s4,s4,1
 2de:	00090103          	lb	sp,0(s2)
 2e2:	0100                	addi	s0,sp,128
 2e4:	00090103          	lb	sp,0(s2)
 2e8:	0100                	addi	s0,sp,128
 2ea:	00090103          	lb	sp,0(s2)
 2ee:	0100                	addi	s0,sp,128
 2f0:	1605                	addi	a2,a2,-31
 2f2:	00090203          	lb	tp,0(s2)
 2f6:	0100                	addi	s0,sp,128
 2f8:	00090103          	lb	sp,0(s2)
 2fc:	0100                	addi	s0,sp,128
 2fe:	0105                	addi	sp,sp,1
 300:	00090103          	lb	sp,0(s2)
 304:	0100                	addi	s0,sp,128
 306:	00090203          	lb	tp,0(s2)
 30a:	0100                	addi	s0,sp,128
 30c:	00090403          	lb	s0,0(s2)
 310:	0100                	addi	s0,sp,128
 312:	0a05                	addi	s4,s4,1
 314:	00090103          	lb	sp,0(s2)
 318:	0100                	addi	s0,sp,128
 31a:	00090103          	lb	sp,0(s2)
 31e:	0100                	addi	s0,sp,128
 320:	1905                	addi	s2,s2,-31
 322:	00090203          	lb	tp,0(s2)
 326:	0100                	addi	s0,sp,128
 328:	00090103          	lb	sp,0(s2)
 32c:	0100                	addi	s0,sp,128
 32e:	0105                	addi	sp,sp,1
 330:	00090103          	lb	sp,0(s2)
 334:	0100                	addi	s0,sp,128
 336:	00090203          	lb	tp,0(s2)
 33a:	0100                	addi	s0,sp,128
 33c:	0a05                	addi	s4,s4,1
 33e:	00090103          	lb	sp,0(s2)
 342:	0100                	addi	s0,sp,128
 344:	1805                	addi	a6,a6,-31
 346:	00090103          	lb	sp,0(s2)
 34a:	0100                	addi	s0,sp,128
 34c:	0105                	addi	sp,sp,1
 34e:	00090103          	lb	sp,0(s2)
 352:	0100                	addi	s0,sp,128
 354:	1505                	addi	a0,a0,-31
 356:	00090203          	lb	tp,0(s2)
 35a:	0100                	addi	s0,sp,128
 35c:	0c05                	addi	s8,s8,1
 35e:	00090103          	lb	sp,0(s2)
 362:	0100                	addi	s0,sp,128
 364:	0505                	addi	a0,a0,1
 366:	00090003          	lb	zero,0(s2)
 36a:	0100                	addi	s0,sp,128
 36c:	0105                	addi	sp,sp,1
 36e:	00090e03          	lb	t3,0(s2)
 372:	0100                	addi	s0,sp,128
 374:	1505                	addi	a0,a0,-31
 376:	00097803          	0x97803
 37a:	0100                	addi	s0,sp,128
 37c:	1d05                	addi	s10,s10,-31
 37e:	00090003          	lb	zero,0(s2)
 382:	0100                	addi	s0,sp,128
 384:	0d05                	addi	s10,s10,1
 386:	00090103          	lb	sp,0(s2)
 38a:	0100                	addi	s0,sp,128
 38c:	1505                	addi	a0,a0,-31
 38e:	00090303          	lb	t1,0(s2)
 392:	0100                	addi	s0,sp,128
 394:	2705                	jal	ab4 <.LASF727+0x18>
 396:	00090003          	lb	zero,0(s2)
 39a:	0100                	addi	s0,sp,128
 39c:	1505                	addi	a0,a0,-31
 39e:	00090003          	lb	zero,0(s2)
 3a2:	0100                	addi	s0,sp,128
 3a4:	2605                	jal	6c4 <.Ldebug_line0+0x6c4>
 3a6:	00090003          	lb	zero,0(s2)
 3aa:	0100                	addi	s0,sp,128
 3ac:	0d05                	addi	s10,s10,1
 3ae:	00090103          	lb	sp,0(s2)
 3b2:	0100                	addi	s0,sp,128
 3b4:	00097803          	0x97803
 3b8:	0100                	addi	s0,sp,128
 3ba:	0105                	addi	sp,sp,1
 3bc:	00090b03          	lb	s6,0(s2)
 3c0:	0100                	addi	s0,sp,128
 3c2:	1b05                	addi	s6,s6,-31
 3c4:	00090203          	lb	tp,0(s2)
 3c8:	0100                	addi	s0,sp,128
 3ca:	1405                	addi	s0,s0,-31
 3cc:	00090103          	lb	sp,0(s2)
 3d0:	0100                	addi	s0,sp,128
 3d2:	0105                	addi	sp,sp,1
 3d4:	00090103          	lb	sp,0(s2)
 3d8:	0100                	addi	s0,sp,128
 3da:	2505                	jal	9fa <.LASF492+0x3>
 3dc:	00090203          	lb	tp,0(s2)
 3e0:	0100                	addi	s0,sp,128
 3e2:	0a05                	addi	s4,s4,1
 3e4:	00090103          	lb	sp,0(s2)
 3e8:	0100                	addi	s0,sp,128
 3ea:	0505                	addi	a0,a0,1
 3ec:	00090103          	lb	sp,0(s2)
 3f0:	0100                	addi	s0,sp,128
 3f2:	1c05                	addi	s8,s8,-31
 3f4:	00090103          	lb	sp,0(s2)
 3f8:	0100                	addi	s0,sp,128
 3fa:	0105                	addi	sp,sp,1
 3fc:	00090703          	lb	a4,0(s2)
 400:	0100                	addi	s0,sp,128
 402:	0c05                	addi	s8,s8,1
 404:	00097c03          	0x97c03
 408:	0100                	addi	s0,sp,128
 40a:	0905                	addi	s2,s2,1
 40c:	00090003          	lb	zero,0(s2)
 410:	0100                	addi	s0,sp,128
 412:	1b05                	addi	s6,s6,-31
 414:	00090103          	lb	sp,0(s2)
 418:	0100                	addi	s0,sp,128
 41a:	0105                	addi	sp,sp,1
 41c:	00090303          	lb	t1,0(s2)
 420:	0100                	addi	s0,sp,128
 422:	1305                	addi	t1,t1,-31
 424:	00090a03          	lb	s4,0(s2)
 428:	0100                	addi	s0,sp,128
 42a:	1005                	c.nop	-31
 42c:	00090103          	lb	sp,0(s2)
 430:	0100                	addi	s0,sp,128
 432:	0105                	addi	sp,sp,1
 434:	00090103          	lb	sp,0(s2)
 438:	0100                	addi	s0,sp,128
 43a:	1505                	addi	a0,a0,-31
 43c:	00090203          	lb	tp,0(s2)
 440:	0100                	addi	s0,sp,128
 442:	0c05                	addi	s8,s8,1
 444:	00090503          	lb	a0,0(s2)
 448:	0100                	addi	s0,sp,128
 44a:	0905                	addi	s2,s2,1
 44c:	00090003          	lb	zero,0(s2)
 450:	0100                	addi	s0,sp,128
 452:	1805                	addi	a6,a6,-31
 454:	00090103          	lb	sp,0(s2)
 458:	0100                	addi	s0,sp,128
 45a:	00090103          	lb	sp,0(s2)
 45e:	0100                	addi	s0,sp,128
 460:	00090203          	lb	tp,0(s2)
 464:	0100                	addi	s0,sp,128
 466:	1005                	c.nop	-31
 468:	00090203          	lb	tp,0(s2)
 46c:	0100                	addi	s0,sp,128
 46e:	0d05                	addi	s10,s10,1
 470:	00090003          	lb	zero,0(s2)
 474:	0100                	addi	s0,sp,128
 476:	2a05                	jal	5a6 <.Ldebug_line0+0x5a6>
 478:	00090103          	lb	sp,0(s2)
 47c:	0100                	addi	s0,sp,128
 47e:	1c05                	addi	s8,s8,-31
 480:	00090003          	lb	zero,0(s2)
 484:	0100                	addi	s0,sp,128
 486:	2505                	jal	aa6 <.LASF727+0xa>
 488:	00090203          	lb	tp,0(s2)
 48c:	0100                	addi	s0,sp,128
 48e:	2005                	jal	4ae <.Ldebug_line0+0x4ae>
 490:	00090103          	lb	sp,0(s2)
 494:	0100                	addi	s0,sp,128
 496:	2605                	jal	7b6 <.Ldebug_line0+0x7b6>
 498:	00090003          	lb	zero,0(s2)
 49c:	0100                	addi	s0,sp,128
 49e:	1105                	addi	sp,sp,-31
 4a0:	00090003          	lb	zero,0(s2)
 4a4:	0100                	addi	s0,sp,128
 4a6:	2305                	jal	9c6 <.Ldebug_line0+0x9c6>
 4a8:	00090103          	lb	sp,0(s2)
 4ac:	0100                	addi	s0,sp,128
 4ae:	2005                	jal	4ce <.Ldebug_line0+0x4ce>
 4b0:	00090403          	lb	s0,0(s2)
 4b4:	0100                	addi	s0,sp,128
 4b6:	1105                	addi	sp,sp,-31
 4b8:	00090003          	lb	zero,0(s2)
 4bc:	0100                	addi	s0,sp,128
 4be:	2305                	jal	9de <.Ldebug_line0+0x9de>
 4c0:	00090103          	lb	sp,0(s2)
 4c4:	0100                	addi	s0,sp,128
 4c6:	1f05                	addi	t5,t5,-31
 4c8:	00090403          	lb	s0,0(s2)
 4cc:	0100                	addi	s0,sp,128
 4ce:	1a05                	addi	s4,s4,-31
 4d0:	00090103          	lb	sp,0(s2)
 4d4:	0100                	addi	s0,sp,128
 4d6:	1305                	addi	t1,t1,-31
 4d8:	00090103          	lb	sp,0(s2)
 4dc:	0100                	addi	s0,sp,128
 4de:	2205                	jal	5fe <.Ldebug_line0+0x5fe>
 4e0:	00090103          	lb	sp,0(s2)
 4e4:	0100                	addi	s0,sp,128
 4e6:	1e05                	addi	t3,t3,-31
 4e8:	00090103          	lb	sp,0(s2)
 4ec:	0100                	addi	s0,sp,128
 4ee:	0d05                	addi	s10,s10,1
 4f0:	00097e03          	0x97e03
 4f4:	0100                	addi	s0,sp,128
 4f6:	1005                	c.nop	-31
 4f8:	00090503          	lb	a0,0(s2)
 4fc:	0100                	addi	s0,sp,128
 4fe:	0d05                	addi	s10,s10,1
 500:	00090003          	lb	zero,0(s2)
 504:	0100                	addi	s0,sp,128
 506:	2505                	jal	b26 <.LASF190+0x8>
 508:	00090103          	lb	sp,0(s2)
 50c:	0100                	addi	s0,sp,128
 50e:	1b05                	addi	s6,s6,-31
 510:	00090303          	lb	t1,0(s2)
 514:	0100                	addi	s0,sp,128
 516:	1d05                	addi	s10,s10,-31
 518:	00090303          	lb	t1,0(s2)
 51c:	0100                	addi	s0,sp,128
 51e:	0905                	addi	s2,s2,1
 520:	00095e03          	lhu	t3,0(s2)
 524:	0100                	addi	s0,sp,128
 526:	1905                	addi	s2,s2,-31
 528:	00092703          	lw	a4,0(s2)
 52c:	0100                	addi	s0,sp,128
 52e:	1005                	c.nop	-31
 530:	00090103          	lb	sp,0(s2)
 534:	0100                	addi	s0,sp,128
 536:	0105                	addi	sp,sp,1
 538:	00090103          	lb	sp,0(s2)
 53c:	0100                	addi	s0,sp,128
 53e:	2405                	jal	75e <.Ldebug_line0+0x75e>
 540:	00090203          	lb	tp,0(s2)
 544:	0100                	addi	s0,sp,128
 546:	0f05                	addi	t5,t5,1
 548:	00090103          	lb	sp,0(s2)
 54c:	0100                	addi	s0,sp,128
 54e:	00090103          	lb	sp,0(s2)
 552:	0100                	addi	s0,sp,128
 554:	00090103          	lb	sp,0(s2)
 558:	0100                	addi	s0,sp,128
 55a:	00090103          	lb	sp,0(s2)
 55e:	0100                	addi	s0,sp,128
 560:	00090103          	lb	sp,0(s2)
 564:	0100                	addi	s0,sp,128
 566:	00090103          	lb	sp,0(s2)
 56a:	0100                	addi	s0,sp,128
 56c:	00090103          	lb	sp,0(s2)
 570:	0100                	addi	s0,sp,128
 572:	00090103          	lb	sp,0(s2)
 576:	0100                	addi	s0,sp,128
 578:	0805                	addi	a6,a6,1
 57a:	00090203          	lb	tp,0(s2)
 57e:	0100                	addi	s0,sp,128
 580:	0505                	addi	a0,a0,1
 582:	00090003          	lb	zero,0(s2)
 586:	0100                	addi	s0,sp,128
 588:	1405                	addi	s0,s0,-31
 58a:	0200                	addi	s0,sp,256
 58c:	0104                	addi	s1,sp,128
 58e:	00090003          	lb	zero,0(s2)
 592:	0100                	addi	s0,sp,128
 594:	00090103          	lb	sp,0(s2)
 598:	0100                	addi	s0,sp,128
 59a:	0f05                	addi	t5,t5,1
 59c:	00090103          	lb	sp,0(s2)
 5a0:	0100                	addi	s0,sp,128
 5a2:	1705                	addi	a4,a4,-31
 5a4:	00090103          	lb	sp,0(s2)
 5a8:	0100                	addi	s0,sp,128
 5aa:	1c05                	addi	s8,s8,-31
 5ac:	00090103          	lb	sp,0(s2)
 5b0:	0100                	addi	s0,sp,128
 5b2:	00090103          	lb	sp,0(s2)
 5b6:	0100                	addi	s0,sp,128
 5b8:	0905                	addi	s2,s2,1
 5ba:	00097d03          	0x97d03
 5be:	0100                	addi	s0,sp,128
 5c0:	2405                	jal	7e0 <.Ldebug_line0+0x7e0>
 5c2:	00090603          	lb	a2,0(s2)
 5c6:	0100                	addi	s0,sp,128
 5c8:	4e05                	li	t3,1
 5ca:	00090003          	lb	zero,0(s2)
 5ce:	0100                	addi	s0,sp,128
 5d0:	1605                	addi	a2,a2,-31
 5d2:	00090003          	lb	zero,0(s2)
 5d6:	0100                	addi	s0,sp,128
 5d8:	4e05                	li	t3,1
 5da:	00090203          	lb	tp,0(s2)
 5de:	0100                	addi	s0,sp,128
 5e0:	4705                	li	a4,1
 5e2:	0200                	addi	s0,sp,256
 5e4:	0104                	addi	s1,sp,128
 5e6:	00090003          	lb	zero,0(s2)
 5ea:	0100                	addi	s0,sp,128
 5ec:	3f05                	jal	51c <.Ldebug_line0+0x51c>
 5ee:	0200                	addi	s0,sp,256
 5f0:	0104                	addi	s1,sp,128
 5f2:	00090003          	lb	zero,0(s2)
 5f6:	0100                	addi	s0,sp,128
 5f8:	1805                	addi	a6,a6,-31
 5fa:	0200                	addi	s0,sp,256
 5fc:	0104                	addi	s1,sp,128
 5fe:	00090003          	lb	zero,0(s2)
 602:	0100                	addi	s0,sp,128
 604:	4e05                	li	t3,1
 606:	0200                	addi	s0,sp,256
 608:	0204                	addi	s1,sp,256
 60a:	00090003          	lb	zero,0(s2)
 60e:	0100                	addi	s0,sp,128
 610:	1c05                	addi	s8,s8,-31
 612:	00090103          	lb	sp,0(s2)
 616:	0100                	addi	s0,sp,128
 618:	3205                	jal	ffffff38 <.LASF439+0xffff9ec9>
 61a:	00090103          	lb	sp,0(s2)
 61e:	0100                	addi	s0,sp,128
 620:	1f05                	addi	t5,t5,-31
 622:	00090003          	lb	zero,0(s2)
 626:	0100                	addi	s0,sp,128
 628:	3a05                	jal	ffffff58 <.LASF439+0xffff9ee9>
 62a:	00090203          	lb	tp,0(s2)
 62e:	0100                	addi	s0,sp,128
 630:	3205                	jal	ffffff50 <.LASF439+0xffff9ee1>
 632:	00090003          	lb	zero,0(s2)
 636:	0100                	addi	s0,sp,128
 638:	0d05                	addi	s10,s10,1
 63a:	00090003          	lb	zero,0(s2)
 63e:	0100                	addi	s0,sp,128
 640:	1405                	addi	s0,s0,-31
 642:	00090103          	lb	sp,0(s2)
 646:	0100                	addi	s0,sp,128
 648:	2005                	jal	668 <.Ldebug_line0+0x668>
 64a:	00090003          	lb	zero,0(s2)
 64e:	0100                	addi	s0,sp,128
 650:	0200                	addi	s0,sp,256
 652:	0204                	addi	s1,sp,256
 654:	0306                	slli	t1,t1,0x1
 656:	0900                	addi	s0,sp,144
 658:	0000                	unimp
 65a:	0001                	nop
 65c:	0402                	c.slli64	s0
 65e:	09000303          	lb	t1,144(zero) # 90 <.Ldebug_line0+0x90>
 662:	0000                	unimp
 664:	0001                	nop
 666:	0402                	c.slli64	s0
 668:	0304                	addi	s1,sp,384
 66a:	0900                	addi	s0,sp,144
 66c:	0000                	unimp
 66e:	0501                	addi	a0,a0,0
 670:	0011                	c.nop	4
 672:	0402                	c.slli64	s0
 674:	0606                	slli	a2,a2,0x1
 676:	00090003          	lb	zero,0(s2)
 67a:	0100                	addi	s0,sp,128
 67c:	3205                	jal	ffffff9c <.LASF439+0xffff9f2d>
 67e:	00090103          	lb	sp,0(s2)
 682:	0100                	addi	s0,sp,128
 684:	2005                	jal	6a4 <.Ldebug_line0+0x6a4>
 686:	00090003          	lb	zero,0(s2)
 68a:	0100                	addi	s0,sp,128
 68c:	2505                	jal	cac <.LASF726+0x20>
 68e:	00090103          	lb	sp,0(s2)
 692:	0100                	addi	s0,sp,128
 694:	3005                	jal	fffffeb4 <.LASF439+0xffff9e45>
 696:	00090003          	lb	zero,0(s2)
 69a:	0100                	addi	s0,sp,128
 69c:	2a05                	jal	7cc <.Ldebug_line0+0x7cc>
 69e:	00090103          	lb	sp,0(s2)
 6a2:	0100                	addi	s0,sp,128
 6a4:	2005                	jal	6c4 <.Ldebug_line0+0x6c4>
 6a6:	00090103          	lb	sp,0(s2)
 6aa:	0100                	addi	s0,sp,128
 6ac:	3105                	jal	2cc <.Ldebug_line0+0x2cc>
 6ae:	00090203          	lb	tp,0(s2)
 6b2:	0100                	addi	s0,sp,128
 6b4:	3605                	jal	1d4 <.Ldebug_line0+0x1d4>
 6b6:	00090003          	lb	zero,0(s2)
 6ba:	0100                	addi	s0,sp,128
 6bc:	2905                	jal	aec <.LASF144+0x10>
 6be:	00090003          	lb	zero,0(s2)
 6c2:	0100                	addi	s0,sp,128
 6c4:	2a05                	jal	7f4 <.Ldebug_line0+0x7f4>
 6c6:	00090303          	lb	t1,0(s2)
 6ca:	0100                	addi	s0,sp,128
 6cc:	2005                	jal	6ec <.Ldebug_line0+0x6ec>
 6ce:	00090103          	lb	sp,0(s2)
 6d2:	0100                	addi	s0,sp,128
 6d4:	00090103          	lb	sp,0(s2)
 6d8:	0100                	addi	s0,sp,128
 6da:	2905                	jal	b0a <.LASF407+0x5>
 6dc:	00090203          	lb	tp,0(s2)
 6e0:	0100                	addi	s0,sp,128
 6e2:	3105                	jal	302 <.Ldebug_line0+0x302>
 6e4:	00090103          	lb	sp,0(s2)
 6e8:	0100                	addi	s0,sp,128
 6ea:	2905                	jal	b1a <.LASF407+0x15>
 6ec:	00090003          	lb	zero,0(s2)
 6f0:	0100                	addi	s0,sp,128
 6f2:	3305                	jal	412 <.Ldebug_line0+0x412>
 6f4:	00090103          	lb	sp,0(s2)
 6f8:	0100                	addi	s0,sp,128
 6fa:	2f05                	jal	e2a <.LASF735+0x18>
 6fc:	00090203          	lb	tp,0(s2)
 700:	0100                	addi	s0,sp,128
 702:	3805                	jal	ffffff32 <.LASF439+0xffff9ec3>
 704:	00090003          	lb	zero,0(s2)
 708:	0100                	addi	s0,sp,128
 70a:	2f05                	jal	e3a <.LASF735+0x28>
 70c:	00090003          	lb	zero,0(s2)
 710:	0100                	addi	s0,sp,128
 712:	1a05                	addi	s4,s4,-31
 714:	00090103          	lb	sp,0(s2)
 718:	0100                	addi	s0,sp,128
 71a:	1205                	addi	tp,tp,-31
 71c:	00090303          	lb	t1,0(s2)
 720:	0100                	addi	s0,sp,128
 722:	1c05                	addi	s8,s8,-31
 724:	00090103          	lb	sp,0(s2)
 728:	0100                	addi	s0,sp,128
 72a:	2d05                	jal	d5a <.LASF622+0x10>
 72c:	00090103          	lb	sp,0(s2)
 730:	0100                	addi	s0,sp,128
 732:	3205                	jal	52 <.Ldebug_line0+0x52>
 734:	00090003          	lb	zero,0(s2)
 738:	0100                	addi	s0,sp,128
 73a:	2505                	jal	d5a <.LASF622+0x10>
 73c:	00090003          	lb	zero,0(s2)
 740:	0100                	addi	s0,sp,128
 742:	2605                	jal	a62 <.LASF8+0x6>
 744:	00090103          	lb	sp,0(s2)
 748:	0100                	addi	s0,sp,128
 74a:	1e05                	addi	t3,t3,-31
 74c:	00090303          	lb	t1,0(s2)
 750:	0100                	addi	s0,sp,128
 752:	2405                	jal	972 <.Ldebug_line0+0x972>
 754:	00090103          	lb	sp,0(s2)
 758:	0100                	addi	s0,sp,128
 75a:	1c05                	addi	s8,s8,-31
 75c:	00090103          	lb	sp,0(s2)
 760:	0100                	addi	s0,sp,128
 762:	2805                	jal	792 <.Ldebug_line0+0x792>
 764:	00090203          	lb	tp,0(s2)
 768:	0100                	addi	s0,sp,128
 76a:	5205                	li	tp,-31
 76c:	00090003          	lb	zero,0(s2)
 770:	0100                	addi	s0,sp,128
 772:	1a05                	addi	s4,s4,-31
 774:	00090003          	lb	zero,0(s2)
 778:	0100                	addi	s0,sp,128
 77a:	0905                	addi	s2,s2,1
 77c:	00095c03          	lhu	s8,0(s2)
 780:	0100                	addi	s0,sp,128
 782:	1405                	addi	s0,s0,-31
 784:	00092803          	lw	a6,0(s2)
 788:	0100                	addi	s0,sp,128
 78a:	2505                	jal	daa <.LASF478+0xc>
 78c:	00090103          	lb	sp,0(s2)
 790:	0100                	addi	s0,sp,128
 792:	1d05                	addi	s10,s10,-31
 794:	00090003          	lb	zero,0(s2)
 798:	0100                	addi	s0,sp,128
 79a:	00090103          	lb	sp,0(s2)
 79e:	0100                	addi	s0,sp,128
 7a0:	1405                	addi	s0,s0,-31
 7a2:	00090103          	lb	sp,0(s2)
 7a6:	0100                	addi	s0,sp,128
 7a8:	0505                	addi	a0,a0,1
 7aa:	00094b03          	lbu	s6,0(s2)
 7ae:	0100                	addi	s0,sp,128
 7b0:	1005                	c.nop	-31
 7b2:	00093803          	0x93803
 7b6:	0100                	addi	s0,sp,128
 7b8:	0105                	addi	sp,sp,1
 7ba:	00090103          	lb	sp,0(s2)
 7be:	0100                	addi	s0,sp,128
 7c0:	2505                	jal	de0 <.LASF152+0x15>
 7c2:	00090203          	lb	tp,0(s2)
 7c6:	0100                	addi	s0,sp,128
 7c8:	0d05                	addi	s10,s10,1
 7ca:	00090103          	lb	sp,0(s2)
 7ce:	0100                	addi	s0,sp,128
 7d0:	2005                	jal	7f0 <.Ldebug_line0+0x7f0>
 7d2:	00090103          	lb	sp,0(s2)
 7d6:	0100                	addi	s0,sp,128
 7d8:	0d05                	addi	s10,s10,1
 7da:	00090103          	lb	sp,0(s2)
 7de:	0100                	addi	s0,sp,128
 7e0:	0f05                	addi	t5,t5,1
 7e2:	00090103          	lb	sp,0(s2)
 7e6:	0100                	addi	s0,sp,128
 7e8:	1005                	c.nop	-31
 7ea:	00090203          	lb	tp,0(s2)
 7ee:	0100                	addi	s0,sp,128
 7f0:	0805                	addi	a6,a6,1
 7f2:	00090103          	lb	sp,0(s2)
 7f6:	0100                	addi	s0,sp,128
 7f8:	0505                	addi	a0,a0,1
 7fa:	00090003          	lb	zero,0(s2)
 7fe:	0100                	addi	s0,sp,128
 800:	1405                	addi	s0,s0,-31
 802:	0200                	addi	s0,sp,256
 804:	0104                	addi	s1,sp,128
 806:	00090003          	lb	zero,0(s2)
 80a:	0100                	addi	s0,sp,128
 80c:	00090103          	lb	sp,0(s2)
 810:	0100                	addi	s0,sp,128
 812:	0905                	addi	s2,s2,1
 814:	00090103          	lb	sp,0(s2)
 818:	0100                	addi	s0,sp,128
 81a:	1005                	c.nop	-31
 81c:	00090103          	lb	sp,0(s2)
 820:	0100                	addi	s0,sp,128
 822:	0d05                	addi	s10,s10,1
 824:	00090003          	lb	zero,0(s2)
 828:	0100                	addi	s0,sp,128
 82a:	1c05                	addi	s8,s8,-31
 82c:	00090103          	lb	sp,0(s2)
 830:	0100                	addi	s0,sp,128
 832:	1405                	addi	s0,s0,-31
 834:	00090303          	lb	t1,0(s2)
 838:	0100                	addi	s0,sp,128
 83a:	1105                	addi	sp,sp,-31
 83c:	00090003          	lb	zero,0(s2)
 840:	0100                	addi	s0,sp,128
 842:	4405                	li	s0,1
 844:	00090103          	lb	sp,0(s2)
 848:	0100                	addi	s0,sp,128
 84a:	6e05                	lui	t3,0x1
 84c:	00090003          	lb	zero,0(s2)
 850:	0100                	addi	s0,sp,128
 852:	5205                	li	tp,-31
 854:	00090003          	lb	zero,0(s2)
 858:	0100                	addi	s0,sp,128
 85a:	2105                	jal	c7a <.LASF191+0xe>
 85c:	00090003          	lb	zero,0(s2)
 860:	0100                	addi	s0,sp,128
 862:	3505                	jal	682 <.Ldebug_line0+0x682>
 864:	00090003          	lb	zero,0(s2)
 868:	0100                	addi	s0,sp,128
 86a:	2105                	jal	c8a <.LASF191+0x1e>
 86c:	00090003          	lb	zero,0(s2)
 870:	0100                	addi	s0,sp,128
 872:	3505                	jal	692 <.Ldebug_line0+0x692>
 874:	00090003          	lb	zero,0(s2)
 878:	0100                	addi	s0,sp,128
 87a:	3605                	jal	39a <.Ldebug_line0+0x39a>
 87c:	00090103          	lb	sp,0(s2)
 880:	0100                	addi	s0,sp,128
 882:	2905                	jal	cb2 <.LASF726+0x26>
 884:	00090003          	lb	zero,0(s2)
 888:	0100                	addi	s0,sp,128
 88a:	1f05                	addi	t5,t5,-31
 88c:	00090303          	lb	t1,0(s2)
 890:	0100                	addi	s0,sp,128
 892:	2a05                	jal	9c2 <.Ldebug_line0+0x9c2>
 894:	00090403          	lb	s0,0(s2)
 898:	0100                	addi	s0,sp,128
 89a:	1805                	addi	a6,a6,-31
 89c:	00090003          	lb	zero,0(s2)
 8a0:	0100                	addi	s0,sp,128
 8a2:	0105                	addi	sp,sp,1
 8a4:	00092403          	lw	s0,0(s2)
 8a8:	0100                	addi	s0,sp,128
 8aa:	1e05                	addi	t3,t3,-31
 8ac:	00095f03          	lhu	t5,0(s2)
 8b0:	0100                	addi	s0,sp,128
 8b2:	0200                	addi	s0,sp,256
 8b4:	0104                	addi	s1,sp,128
 8b6:	0306                	slli	t1,t1,0x1
 8b8:	0900                	addi	s0,sp,144
 8ba:	0000                	unimp
 8bc:	0501                	addi	a0,a0,0
 8be:	0103061b          	0x103061b
 8c2:	0009                	c.nop	2
 8c4:	0100                	addi	s0,sp,128
 8c6:	2005                	jal	8e6 <.Ldebug_line0+0x8e6>
 8c8:	00090103          	lb	sp,0(s2)
 8cc:	0100                	addi	s0,sp,128
 8ce:	1105                	addi	sp,sp,-31
 8d0:	00090103          	lb	sp,0(s2)
 8d4:	0100                	addi	s0,sp,128
 8d6:	1b05                	addi	s6,s6,-31
 8d8:	00090103          	lb	sp,0(s2)
 8dc:	0100                	addi	s0,sp,128
 8de:	2e05                	jal	c0e <.LASF668+0xc>
 8e0:	00090003          	lb	zero,0(s2)
 8e4:	0100                	addi	s0,sp,128
 8e6:	2605                	jal	c06 <.LASF668+0x4>
 8e8:	00090003          	lb	zero,0(s2)
 8ec:	0100                	addi	s0,sp,128
 8ee:	1b05                	addi	s6,s6,-31
 8f0:	00090103          	lb	sp,0(s2)
 8f4:	0100                	addi	s0,sp,128
 8f6:	2e05                	jal	c26 <.LASF194+0x17>
 8f8:	00090003          	lb	zero,0(s2)
 8fc:	0100                	addi	s0,sp,128
 8fe:	2605                	jal	c1e <.LASF194+0xf>
 900:	00090003          	lb	zero,0(s2)
 904:	0100                	addi	s0,sp,128
 906:	1e05                	addi	t3,t3,-31
 908:	00090103          	lb	sp,0(s2)
 90c:	0100                	addi	s0,sp,128
 90e:	2005                	jal	92e <.Ldebug_line0+0x92e>
 910:	00090203          	lb	tp,0(s2)
 914:	0100                	addi	s0,sp,128
 916:	0d05                	addi	s10,s10,1
 918:	00097803          	0x97803
 91c:	0100                	addi	s0,sp,128
 91e:	2305                	jal	e3e <.LASF290+0x3>
 920:	00090a03          	lb	s4,0(s2)
 924:	0100                	addi	s0,sp,128
 926:	0200                	addi	s0,sp,256
 928:	0104                	addi	s1,sp,128
 92a:	0306                	slli	t1,t1,0x1
 92c:	0900                	addi	s0,sp,144
 92e:	0000                	unimp
 930:	0501                	addi	a0,a0,0
 932:	0620                	addi	s0,sp,776
 934:	00090103          	lb	sp,0(s2)
 938:	0100                	addi	s0,sp,128
 93a:	1105                	addi	sp,sp,-31
 93c:	00090103          	lb	sp,0(s2)
 940:	0100                	addi	s0,sp,128
 942:	1505                	addi	a0,a0,-31
 944:	00090103          	lb	sp,0(s2)
 948:	0100                	addi	s0,sp,128
 94a:	2205                	jal	a6a <.LASF8+0xe>
 94c:	00090103          	lb	sp,0(s2)
 950:	0100                	addi	s0,sp,128
 952:	1f05                	addi	t5,t5,-31
 954:	00090303          	lb	t1,0(s2)
 958:	0100                	addi	s0,sp,128
 95a:	3205                	jal	27a <.Ldebug_line0+0x27a>
 95c:	00090003          	lb	zero,0(s2)
 960:	0100                	addi	s0,sp,128
 962:	2a05                	jal	a92 <.LASF677+0x6>
 964:	00090003          	lb	zero,0(s2)
 968:	0100                	addi	s0,sp,128
 96a:	1f05                	addi	t5,t5,-31
 96c:	00090103          	lb	sp,0(s2)
 970:	0100                	addi	s0,sp,128
 972:	3205                	jal	292 <.Ldebug_line0+0x292>
 974:	00090003          	lb	zero,0(s2)
 978:	0100                	addi	s0,sp,128
 97a:	2a05                	jal	aaa <.LASF727+0xe>
 97c:	00090003          	lb	zero,0(s2)
 980:	0100                	addi	s0,sp,128
 982:	1f05                	addi	t5,t5,-31
 984:	00090103          	lb	sp,0(s2)
 988:	0100                	addi	s0,sp,128
 98a:	3305                	jal	6aa <.Ldebug_line0+0x6aa>
 98c:	00090003          	lb	zero,0(s2)
 990:	0100                	addi	s0,sp,128
 992:	3c05                	jal	3c2 <.Ldebug_line0+0x3c2>
 994:	00090003          	lb	zero,0(s2)
 998:	0100                	addi	s0,sp,128
 99a:	1f05                	addi	t5,t5,-31
 99c:	00090003          	lb	zero,0(s2)
 9a0:	0100                	addi	s0,sp,128
 9a2:	3305                	jal	6c2 <.Ldebug_line0+0x6c2>
 9a4:	00090003          	lb	zero,0(s2)
 9a8:	0100                	addi	s0,sp,128
 9aa:	2205                	jal	aca <.LASF266+0x8>
 9ac:	00090103          	lb	sp,0(s2)
 9b0:	0100                	addi	s0,sp,128
 9b2:	1505                	addi	a0,a0,-31
 9b4:	00090403          	lb	s0,0(s2)
 9b8:	0100                	addi	s0,sp,128
 9ba:	2405                	jal	bda <.LASF366+0x11>
 9bc:	00090103          	lb	sp,0(s2)
 9c0:	0100                	addi	s0,sp,128
 9c2:	2205                	jal	ae2 <.LASF144+0x6>
 9c4:	00090103          	lb	sp,0(s2)
 9c8:	0100                	addi	s0,sp,128
 9ca:	2005                	jal	9ea <.LASF755+0xb>
 9cc:	00090303          	lb	t1,0(s2)
 9d0:	0100                	addi	s0,sp,128
 9d2:	0d05                	addi	s10,s10,1
 9d4:	00096d03          	0x96d03
 9d8:	0100                	addi	s0,sp,128
 9da:	0105                	addi	sp,sp,1
 9dc:	00091703          	lh	a4,0(s2)
 9e0:	0100                	addi	s0,sp,128
 9e2:	0009                	c.nop	2
 9e4:	0000                	unimp
 9e6:	0101                	addi	sp,sp,0

Disassembly of section .debug_str:

00000000 <.LASF752>:
       0:	544e4957          	0x544e4957
       4:	4d5f 4e49 2820      	0x28204e494d5f
       a:	5f5f 4957 544e      	0x544e49575f5f
      10:	4d5f 4e49 5f5f      	0x5f5f4e494d5f
      16:	0029                	c.nop	10

00000018 <.LASF631>:
      18:	5f5f 5653 4449      	0x444956535f5f
      1e:	565f 5349 4249      	0x42495349565f
      24:	454c                	lw	a1,12(a0)
      26:	3020                	fld	fs0,96(s0)
	...

00000029 <.LASF757>:
      29:	4e49                	li	t3,18
      2b:	3354                	fld	fa3,160(a4)
      2d:	5f32                	lw	t5,44(sp)
      2f:	29782843          	fmadd.s	fa6,fa6,fs7,ft5,rdn
      33:	5f20                	lw	s0,120(a4)
      35:	495f 544e 3233      	0x3233544e495f
      3b:	435f 7828 0029      	0x297828435f

00000041 <.LASF347>:
      41:	5f5f 6972 6373      	0x637369725f5f
      47:	2076                	fld	ft0,344(sp)
      49:	0031                	c.nop	12

0000004b <.LASF794>:
      4b:	6e69                	lui	t3,0x1a
      4d:	3874                	fld	fa3,240(s0)
      4f:	745f        	0x465f5f00745f

00000052 <.LASF282>:
      52:	5f5f 4c46 3154      	0x31544c465f5f
      58:	3832                	fld	fa6,296(sp)
      5a:	4d5f 4e49 315f      	0x315f4e494d5f
      60:	5f30                	lw	a2,120(a4)
      62:	5845                	li	a6,-15
      64:	5f50                	lw	a2,60(a4)
      66:	205f 2d28 3934      	0x39342d28205f
      6c:	00293133          	sltu	sp,s2,sp

00000070 <.LASF354>:
      70:	5f5f 6972 6373      	0x637369725f5f
      76:	5f76                	lw	t5,124(sp)
      78:	6c66                	flw	fs8,88(sp)
      7a:	5f74616f          	jal	sp,46e70 <.LASF439+0x40e01>
      7e:	6261                	lui	tp,0x18
      80:	5f69                	li	t5,-6
      82:	74666f73          	csrrsi	t5,0x746,12
      86:	3120                	fld	fs0,96(a0)
	...

00000089 <.LASF616>:
      89:	535f 5359 465f      	0x465f5359535f
      8f:	4145                	li	sp,17
      91:	5554                	lw	a3,44(a0)
      93:	4552                	lw	a0,20(sp)
      95:	20485f53          	0x20485f53
	...

0000009a <.LASF335>:
      9a:	5f5f 4347 5f43      	0x5f4343475f5f
      a0:	5441                	li	s0,-16
      a2:	43494d4f          	fnmadd.d	fs10,fs2,fs4,fs0,rmm
      a6:	575f 4843 5241      	0x52414843575f
      ac:	545f 4c5f 434f      	0x434f4c5f545f
      b2:	52465f4b          	fnmsub.d	ft10,fa2,ft4,fa0,unknown
      b6:	4545                	li	a0,17
      b8:	3220                	fld	fs0,96(a2)
	...

000000bb <.LASF329>:
      bb:	5f5f 4843 5241      	0x524148435f5f
      c1:	555f 534e 4749      	0x4749534e555f
      c7:	454e                	lw	a0,208(sp)
      c9:	5f44                	lw	s1,60(a4)
      cb:	205f 0031       	0x505f0031205f

000000cf <.LASF457>:
      cf:	505f 5453 5f4c      	0x5f4c5453505f
      d5:	5250                	lw	a2,36(a2)
      d7:	4741                	li	a4,16
      d9:	414d                	li	sp,19
      db:	465f 524f 4543      	0x4543524f465f
      e1:	4e49                	li	t3,18
      e3:	494c                	lw	a1,20(a0)
      e5:	454e                	lw	a0,208(sp)
      e7:	0020                	addi	s0,sp,8

000000e9 <.LASF277>:
      e9:	5f5f 4c46 3654      	0x36544c465f5f
      ef:	5f34                	lw	a3,120(a4)
      f1:	4148                	lw	a0,4(a0)
      f3:	4e495f53          	0x4e495f53
      f7:	4946                	lw	s2,80(sp)
      f9:	494e                	lw	s2,208(sp)
      fb:	5954                	lw	a3,52(a0)
      fd:	5f5f 3120       	0x5f0031205f5f

00000102 <.LASF856>:
     102:	5a5f 374e 7073      	0x7073374e5a5f
     108:	6f72                	flw	ft10,28(sp)
     10a:	43745f63          	bge	s0,s7,548 <.LASF2+0xd>
     10e:	4534                	lw	a3,72(a0)
     110:	3150                	fld	fa2,160(a0)
     112:	6531                	lui	a0,0xc
     114:	6578                	flw	fa4,76(a0)
     116:	61625f63          	bge	tp,s6,734 <.LASF61+0xb>
     11a:	745f6573          	csrrsi	a0,0x745,30
     11e:	6879                	lui	a6,0x1e
	...

00000121 <.LASF1>:
     121:	5f5f 7063 756c      	0x756c70635f5f
     127:	756c7073          	csrci	0x756,24
     12b:	30322073          	csrs	mideleg,tp
     12f:	3731                	jal	3b <.LASF757+0x12>
     131:	3330                	fld	fa2,96(a4)
     133:	004c                	addi	a1,sp,4

00000135 <.LASF711>:
     135:	4e49                	li	t3,18
     137:	3154                	fld	fa3,160(a0)
     139:	5f36                	lw	t5,108(sp)
     13b:	494d                	li	s2,19
     13d:	204e                	fld	ft0,208(sp)
     13f:	2d28                	fld	fa0,88(a0)
     141:	5f5f 4e49 3154      	0x31544e495f5f
     147:	5f36                	lw	t5,108(sp)
     149:	414d                	li	sp,19
     14b:	5f58                	lw	a4,60(a4)
     14d:	205f 202d 2931      	0x2931202d205f
	...

00000154 <.LASF525>:
     154:	475f 494c 4342      	0x4342494c475f
     15a:	5858                	lw	a4,52(s0)
     15c:	485f 5641 5f45      	0x5f455641485f
     162:	4e49                	li	t3,18
     164:	5454                	lw	a3,44(s0)
     166:	5059                	c.li	zero,-10
     168:	5345                	li	t1,-15
     16a:	485f 3120       	0x5f003120485f

0000016f <.LASF135>:
     16f:	5f5f 5450 4452      	0x445254505f5f
     175:	4649                	li	a2,18
     177:	5f46                	lw	t5,112(sp)
     179:	414d                	li	sp,19
     17b:	5f58                	lw	a4,60(a4)
     17d:	205f 7830 6637      	0x66377830205f
     183:	6666                	flw	fa2,88(sp)
     185:	6666                	flw	fa2,88(sp)
     187:	6666                	flw	fa2,88(sp)
	...

0000018a <.LASF371>:
     18a:	475f 494c 4342      	0x4342494c475f
     190:	5858                	lw	a4,52(s0)
     192:	445f 5045 4552      	0x45525045445f
     198:	45544143          	0x45544143
     19c:	2044                	fld	fs1,128(s0)
     19e:	5f5f 7461 7274      	0x727474615f5f
     1a4:	6269                	lui	tp,0x1a
     1a6:	7475                	lui	s0,0xffffd
     1a8:	5f65                	li	t5,-7
     1aa:	205f 2828 5f5f      	0x5f5f2828205f
     1b0:	6564                	flw	fs1,76(a0)
     1b2:	7270                	flw	fa2,100(a2)
     1b4:	6365                	lui	t1,0x19
     1b6:	7461                	lui	s0,0xffff8
     1b8:	6465                	lui	s0,0x19
     1ba:	5f5f 2929       	0x5f0029295f5f

000001bf <.LASF147>:
     1bf:	5f5f 4e49 4d54      	0x4d544e495f5f
     1c5:	5841                	li	a6,-16
     1c7:	435f 6328 2029      	0x20296328435f
     1cd:	23232063          	0x23232063
     1d1:	4c20                	lw	s0,88(s0)
     1d3:	004c                	addi	a1,sp,4

000001d5 <.LASF685>:
     1d5:	555f 4e49 3354      	0x33544e49555f
     1db:	5f32                	lw	t5,44(sp)
     1dd:	5f54                	lw	a3,60(a4)
     1df:	4544                	lw	s1,12(a0)
     1e1:	52414c43          	fmadd.d	fs8,ft2,ft4,fa0,rmm
     1e5:	4445                	li	s0,17
     1e7:	0020                	addi	s0,sp,8

000001e9 <.LASF146>:
     1e9:	5f5f 4e49 4d54      	0x4d544e495f5f
     1ef:	5841                	li	a6,-16
     1f1:	4d5f 5841 5f5f      	0x5f5f58414d5f
     1f7:	3020                	fld	fs0,96(s0)
     1f9:	3778                	fld	fa4,232(a4)
     1fb:	6666                	flw	fa2,88(sp)
     1fd:	6666                	flw	fa2,88(sp)
     1ff:	6666                	flw	fa2,88(sp)
     201:	6666                	flw	fa2,88(sp)
     203:	6666                	flw	fa2,88(sp)
     205:	6666                	flw	fa2,88(sp)
     207:	6666                	flw	fa2,88(sp)
     209:	4c66                	lw	s8,88(sp)
     20b:	004c                	addi	a1,sp,4

0000020d <.LASF877>:
     20d:	656a626f          	jal	tp,a6863 <.LASF439+0xa07f4>
     211:	          	bgeu	zero,a6,7f9 <.LASF254+0x13>

00000214 <.LASF547>:
     214:	475f 494c 4342      	0x4342494c475f
     21a:	5858                	lw	a4,52(s0)
     21c:	485f 5641 5f45      	0x5f455641485f
     222:	54525153          	0x54525153
     226:	2046                	fld	ft0,80(sp)
     228:	0031                	c.nop	12

0000022a <.LASF589>:
     22a:	475f 494c 4342      	0x4342494c475f
     230:	5858                	lw	a4,52(s0)
     232:	3839                	jal	fffffa50 <.LASF439+0xffff99e1>
     234:	555f 4553 435f      	0x435f4553555f
     23a:	3939                	jal	fffffe58 <.LASF439+0xffff9de9>
     23c:	535f 4454 494c      	0x494c4454535f
     242:	2042                	fld	ft0,16(sp)
     244:	0031                	c.nop	12

00000246 <.LASF14>:
     246:	5f5f 5441 4d4f      	0x4d4f54415f5f
     24c:	4349                	li	t1,18
     24e:	435f 4e4f 5553      	0x55534e4f435f
     254:	454d                	li	a0,19
     256:	3120                	fld	fs0,96(a0)
	...

00000259 <.LASF540>:
     259:	475f 494c 4342      	0x4342494c475f
     25f:	5858                	lw	a4,52(s0)
     261:	485f 5641 5f45      	0x5f455641485f
     267:	454d                	li	a0,19
     269:	414d                	li	sp,19
     26b:	494c                	lw	a1,20(a0)
     26d:	31204e47          	fmsub.s	ft8,ft0,fs2,ft6,rmm
	...

00000272 <.LASF421>:
     272:	475f 494c 4342      	0x4342494c475f
     278:	5858                	lw	a4,52(s0)
     27a:	505f 4553 4455      	0x44554553505f
     280:	49565f4f          	fnmadd.s	ft10,fa2,fs5,fs1,unknown
     284:	49424953          	0x49424953
     288:	494c                	lw	a1,20(a0)
     28a:	5954                	lw	a3,52(a0)
     28c:	5628                	lw	a0,104(a2)
     28e:	2029                	jal	298 <.LASF474+0x7>
	...

00000291 <.LASF474>:
     291:	505f 5453 5f4c      	0x5f4c5453505f
     297:	5250                	lw	a2,36(a2)
     299:	4741                	li	a4,16
     29b:	414d                	li	sp,19
     29d:	565f 4345 4f54      	0x4f544345565f
     2a3:	5f52                	lw	t5,52(sp)
     2a5:	4e55                	li	t3,21
     2a7:	4c41                	li	s8,16
     2a9:	4749                	li	a4,18
     2ab:	454e                	lw	a0,208(sp)
     2ad:	2044                	fld	fs1,128(s0)
	...

000002b0 <.LASF310>:
     2b0:	5f5f 4c46 3654      	0x36544c465f5f
     2b6:	5834                	lw	a3,112(s0)
     2b8:	445f 4749 5f5f      	0x5f5f4749445f
     2be:	3320                	fld	fs0,96(a4)
     2c0:	          	0x5f5f0033

000002c2 <.LASF319>:
     2c2:	5f5f 4c46 3654      	0x36544c465f5f
     2c8:	5834                	lw	a3,112(s0)
     2ca:	455f 5350 4c49      	0x4c495350455f
     2d0:	5f5f4e4f          	fnmadd.q	ft8,ft10,fs5,fa1,rmm
     2d4:	3120                	fld	fs0,96(a0)
     2d6:	392e                	fld	fs2,232(sp)
     2d8:	3532                	fld	fa0,296(sp)
     2da:	3239                	jal	fffffbe8 <.LASF439+0xffff9b79>
     2dc:	3939                	jal	fffffefa <.LASF439+0xffff9e8b>
     2de:	3434                	fld	fa3,104(s0)
     2e0:	32373833          	0x32373833
     2e4:	35383533          	0x35383533
     2e8:	35353033          	0x35353033
     2ec:	3739                	jal	1fa <.LASF146+0x11>
     2ee:	32343937          	lui	s2,0x32343
     2f2:	3835                	jal	fffffb2e <.LASF439+0xffff9abf>
     2f4:	3934                	fld	fa3,112(a0)
     2f6:	3732                	fld	fa4,296(sp)
     2f8:	2d653233          	0x2d653233
     2fc:	36463433          	0x36463433
     300:	7834                	flw	fa3,112(s0)
	...

00000303 <.LASF653>:
     303:	5f5f 6e69 3274      	0x32746e695f5f
     309:	5f30                	lw	a2,120(a4)
     30b:	005f        	0x746e6975005f

0000030d <.LASF821>:
     30d:	6975                	lui	s2,0x1d
     30f:	746e                	flw	fs0,248(sp)
     311:	665f 7361 3674      	0x36747361665f
     317:	5f34                	lw	a3,120(a4)
     319:	0074                	addi	a3,sp,12

0000031b <.LASF798>:
     31b:	6e69                	lui	t3,0x1a
     31d:	3374                	fld	fa3,224(a4)
     31f:	5f32                	lw	t5,44(sp)
     321:	0074                	addi	a3,sp,12

00000323 <.LASF782>:
     323:	5f5f 6975 746e      	0x746e69755f5f
     329:	6c5f 6165 7473      	0x747361656c5f
     32f:	5f38                	lw	a4,120(a4)
     331:	0074                	addi	a3,sp,12

00000333 <.LASF18>:
     333:	5f5f 4953 455a      	0x455a49535f5f
     339:	4c5f464f          	0x4c5f464f
     33d:	5f474e4f          	fnmadd.q	ft8,fa4,fs4,fa1,rmm
     341:	4f4c                	lw	a1,28(a4)
     343:	474e                	lw	a4,208(sp)
     345:	5f5f 3820       	0x5f0038205f5f

0000034a <.LASF124>:
     34a:	5f5f 7063 5f70      	0x5f7070635f5f
     350:	7865                	lui	a6,0xffff9
     352:	74706563          	bltu	zero,t2,a9c <.LASF727>
     356:	6f69                	lui	t5,0x1a
     358:	736e                	flw	ft6,248(sp)
     35a:	3120                	fld	fs0,96(a0)
     35c:	3939                	jal	ffffff7a <.LASF439+0xffff9f0b>
     35e:	4c313137          	lui	sp,0x4c313
	...

00000363 <.LASF223>:
     363:	5f5f 4244 5f4c      	0x5f4c42445f5f
     369:	414d                	li	sp,19
     36b:	5f58                	lw	a4,60(a4)
     36d:	3031                	jal	fffffb79 <.LASF439+0xffff9b0a>
     36f:	455f 5058 5f5f      	0x5f5f5058455f
     375:	3320                	fld	fs0,96(a4)
     377:	3830                	fld	fa2,112(s0)
	...

0000037a <.LASF396>:
     37a:	475f 494c 4342      	0x4342494c475f
     380:	5858                	lw	a4,52(s0)
     382:	445f 4645 5541      	0x55414645445f
     388:	544c                	lw	a1,44(s0)
     38a:	415f 4942 545f      	0x545f4942415f
     390:	4741                	li	a4,16
     392:	5f20                	lw	s0,120(a4)
     394:	42494c47          	fmsub.d	fs8,fs2,ft4,fs0,rmm
     398:	5f585843          	fmadd.q	fa6,fa6,fs5,fa1,unknown
     39c:	4241                	li	tp,16
     39e:	5f49                	li	t5,-14
     3a0:	4154                	lw	a3,4(a0)
     3a2:	58435f47          	fmsub.s	ft10,ft6,ft4,fa1,unknown
     3a6:	3158                	fld	fa4,160(a0)
     3a8:	0031                	c.nop	12

000003aa <.LASF264>:
     3aa:	5f5f 4c46 3654      	0x36544c465f5f
     3b0:	5f34                	lw	a3,120(a4)
     3b2:	414d                	li	sp,19
     3b4:	544e                	lw	s0,240(sp)
     3b6:	445f 4749 5f5f      	0x5f5f4749445f
     3bc:	3520                	fld	fs0,104(a0)
     3be:	          	0x49530033

000003c0 <.LASF744>:
     3c0:	455a4953          	0x455a4953
     3c4:	4d5f 5841 2820      	0x282058414d5f
     3ca:	5f5f 4953 455a      	0x455a49535f5f
     3d0:	4d5f 5841 5f5f      	0x5f5f58414d5f
     3d6:	0029                	c.nop	10

000003d8 <.LASF585>:
     3d8:	475f 494c 4342      	0x4342494c475f
     3de:	5858                	lw	a4,52(s0)
     3e0:	3131                	jal	ffffffec <.LASF439+0xffff9f7d>
     3e2:	555f 4553 435f      	0x435f4553555f
     3e8:	3939                	jal	6 <.LASF752+0x6>
     3ea:	535f 4454 494c      	0x494c4454535f
     3f0:	2042                	fld	ft0,16(sp)
     3f2:	0031                	c.nop	12

000003f4 <.LASF150>:
     3f4:	5f5f 4e49 4d54      	0x4d544e495f5f
     3fa:	5841                	li	a6,-16
     3fc:	575f 4449 4854      	0x48544449575f
     402:	5f5f 3620 0034      	0x3436205f5f

00000408 <.LASF864>:
     408:	6f727073          	csrci	0x6f7,4
     40c:	6b735f63          	bge	t1,s7,aca <.LASF266+0x8>
     410:	7069                	c.lui	zero,0xffffa
	...

00000413 <.LASF33>:
     413:	5f5f 4953 455a      	0x455a49535f5f
     419:	545f 5059 5f45      	0x5f455059545f
     41f:	205f 6e75 6973      	0x69736e75205f
     425:	64656e67          	0x64656e67
     429:	6920                	flw	fs0,80(a0)
     42b:	746e                	flw	fs0,248(sp)
	...

0000042e <.LASF424>:
     42e:	475f 494c 4342      	0x4342494c475f
     434:	5858                	lw	a4,52(s0)
     436:	545f 4e58 535f      	0x535f4e58545f
     43c:	4641                	li	a2,16
     43e:	2045                	jal	4de <.LASF227+0x31>
	...

00000441 <.LASF215>:
     441:	5f5f 4c46 5f54      	0x5f544c465f5f
     447:	4148                	lw	a0,4(a0)
     449:	45445f53          	0x45445f53
     44d:	4f4e                	lw	t5,208(sp)
     44f:	4d52                	lw	s10,20(sp)
     451:	5f5f 3120       	0x5f0031205f5f

00000456 <.LASF42>:
     456:	5f5f 4e49 3854      	0x38544e495f5f
     45c:	545f 5059 5f45      	0x5f455059545f
     462:	205f 6973 6e67      	0x6e676973205f
     468:	6465                	lui	s0,0x19
     46a:	6320                	flw	fs0,64(a4)
     46c:	6168                	flw	fa0,68(a0)
     46e:	0072                	c.slli	zero,0x1c

00000470 <.LASF98>:
     470:	5f5f 7063 5f70      	0x5f7070635f5f
     476:	6e75                	lui	t3,0x1d
     478:	6369                	lui	t1,0x1a
     47a:	5f65646f          	jal	s0,56a70 <.LASF439+0x50a01>
     47e:	72616863          	bltu	sp,t1,bae <.LASF137+0xf>
     482:	6361                	lui	t1,0x18
     484:	6574                	flw	fa3,76(a0)
     486:	7372                	flw	ft6,60(sp)
     488:	3220                	fld	fs0,96(a2)
     48a:	3130                	fld	fa2,96(a0)
     48c:	3134                	fld	fa3,96(a0)
     48e:	4c31                	li	s8,12
	...

00000491 <.LASF92>:
     491:	5f5f 7063 5f70      	0x5f7070635f5f
     497:	6e69                	lui	t3,0x1a
     499:	7469                	lui	s0,0xffffa
     49b:	635f 7061 7574      	0x75747061635f
     4a1:	6572                	flw	fa0,28(sp)
     4a3:	30322073          	csrs	mideleg,tp
     4a7:	3331                	jal	1b3 <.LASF371+0x29>
     4a9:	3430                	fld	fa2,104(s0)
     4ab:	004c                	addi	a1,sp,4

000004ad <.LASF227>:
     4ad:	5f5f 4244 5f4c      	0x5f4c42445f5f
     4b3:	494d                	li	s2,19
     4b5:	5f4e                	lw	t5,240(sp)
     4b7:	205f 6f64 6275      	0x62756f64205f
     4bd:	656c                	flw	fa1,76(a0)
     4bf:	3228                	fld	fa0,96(a2)
     4c1:	322e                	fld	ft4,232(sp)
     4c3:	3532                	fld	fa0,296(sp)
     4c5:	3730                	fld	fa2,104(a4)
     4c7:	38353833          	0x38353833
     4cb:	3035                	jal	fffffcf7 <.LASF439+0xffff9c88>
     4cd:	31303237          	lui	tp,0x31303
     4d1:	30333833          	0x30333833
     4d5:	3039                	jal	fffffce3 <.LASF439+0xffff9c74>
     4d7:	3332                	fld	ft6,296(sp)
     4d9:	3732                	fld	fa4,296(sp)
     4db:	3731                	jal	3e7 <.LASF585+0xf>
     4dd:	34323333          	0x34323333
     4e1:	3430                	fld	fa2,104(s0)
     4e3:	3630                	fld	fa2,104(a2)
     4e5:	2d65                	jal	b9d <.LASF314+0x19>
     4e7:	4c383033          	0x4c383033
     4eb:	0029                	c.nop	10

000004ed <.LASF255>:
     4ed:	5f5f 4c46 3354      	0x33544c465f5f
     4f3:	5f32                	lw	t5,44(sp)
     4f5:	4544                	lw	s1,12(a0)
     4f7:	414d4943          	fmadd.s	fs2,fs10,fs4,fs0,rmm
     4fb:	5f4c                	lw	a1,60(a4)
     4fd:	4944                	lw	s1,20(a0)
     4ff:	205f5f47          	fmsub.s	ft10,ft10,ft5,ft4,unknown
     503:	0039                	c.nop	14

00000505 <.LASF315>:
     505:	5f5f 4c46 3654      	0x36544c465f5f
     50b:	5834                	lw	a3,112(s0)
     50d:	445f 4345 4d49      	0x4d494345445f
     513:	4c41                	li	s8,16
     515:	445f 4749 5f5f      	0x5f5f4749445f
     51b:	3320                	fld	fs0,96(a4)
     51d:	0036                	c.slli	zero,0xd

0000051f <.LASF531>:
     51f:	475f 494c 4342      	0x4342494c475f
     525:	5858                	lw	a4,52(s0)
     527:	485f 5641 5f45      	0x5f455641485f
     52d:	494c                	lw	a1,20(a0)
     52f:	494d                	li	s2,19
     531:	5f54                	lw	a3,60(a4)
     533:	5346                	lw	t1,112(sp)
     535:	5a49                	li	s4,-14
     537:	2045                	jal	5d7 <.LASF718+0x15>
     539:	0030                	addi	a2,sp,8

0000053b <.LASF2>:
     53b:	5f5f 5453 4344      	0x434454535f5f
     541:	555f 4654 315f      	0x315f4654555f
     547:	5f36                	lw	t5,108(sp)
     549:	205f 0031       	0x4e490031205f

0000054d <.LASF732>:
     54d:	4e49                	li	t3,18
     54f:	5f54                	lw	a3,60(a4)
     551:	4146                	lw	sp,80(sp)
     553:	36315453          	0x36315453
     557:	4d5f 4e49 2820      	0x28204e494d5f
     55d:	5f2d                	li	t5,-21
     55f:	495f 544e 465f      	0x465f544e495f
     565:	5341                	li	t1,-16
     567:	3154                	fld	fa3,160(a0)
     569:	5f36                	lw	t5,108(sp)
     56b:	414d                	li	sp,19
     56d:	5f58                	lw	a4,60(a4)
     56f:	205f 202d 2931      	0x2931202d205f
	...

00000576 <.LASF120>:
     576:	5f5f 5453 4344      	0x434454535f5f
     57c:	5050                	lw	a2,36(s0)
     57e:	445f 4645 5541      	0x55414645445f
     584:	544c                	lw	a1,44(s0)
     586:	4e5f 5745 415f      	0x415f57454e5f
     58c:	494c                	lw	a1,20(a0)
     58e:	454d4e47          	0x454d4e47
     592:	544e                	lw	s0,240(sp)
     594:	5f5f 3120 0036      	0x3631205f5f

0000059a <.LASF175>:
     59a:	5f5f 4955 544e      	0x544e49555f5f
     5a0:	5f38                	lw	a4,120(a4)
     5a2:	29632843          	fmadd.s	fa6,ft6,fs6,ft5,rdn
     5a6:	6320                	flw	fs0,64(a4)
	...

000005a9 <.LASF43>:
     5a9:	5f5f 4e49 3154      	0x31544e495f5f
     5af:	5f36                	lw	t5,108(sp)
     5b1:	5954                	lw	a3,52(a0)
     5b3:	4550                	lw	a2,12(a0)
     5b5:	5f5f 7320 6f68      	0x6f6873205f5f
     5bb:	7472                	flw	fs0,60(sp)
     5bd:	6920                	flw	fs0,80(a0)
     5bf:	746e                	flw	fs0,248(sp)
	...

000005c2 <.LASF718>:
     5c2:	4e49                	li	t3,18
     5c4:	3354                	fld	fa3,160(a4)
     5c6:	5f32                	lw	t5,44(sp)
     5c8:	414d                	li	sp,19
     5ca:	2058                	fld	fa4,128(s0)
     5cc:	5f28                	lw	a0,120(a4)
     5ce:	495f 544e 3233      	0x3233544e495f
     5d4:	4d5f 5841 5f5f      	0x5f5f58414d5f
     5da:	0029                	c.nop	10

000005dc <.LASF569>:
     5dc:	475f 494c 4342      	0x4342494c475f
     5e2:	5858                	lw	a4,52(s0)
     5e4:	485f 5641 5f45      	0x5f455641485f
     5ea:	5356                	lw	t1,116(sp)
     5ec:	41435357          	0x41435357
     5f0:	464e                	lw	a2,208(sp)
     5f2:	3120                	fld	fs0,96(a0)
	...

000005f5 <.LASF349>:
     5f5:	5f5f 6972 6373      	0x637369725f5f
     5fb:	5f76                	lw	t5,124(sp)
     5fd:	7461                	lui	s0,0xffff8
     5ff:	63696d6f          	jal	s10,96c35 <.LASF439+0x90bc6>
     603:	3120                	fld	fs0,96(a0)
	...

00000606 <.LASF456>:
     606:	505f 5453 5f4c      	0x5f4c5453505f
     60c:	5250                	lw	a2,36(a2)
     60e:	4741                	li	a4,16
     610:	414d                	li	sp,19
     612:	535f 4d49 5f44      	0x5f444d49535f
     618:	4552                	lw	a0,20(sp)
     61a:	5544                	lw	s1,44(a0)
     61c:	4f495443          	fmadd.q	fs0,fs2,fs4,fs1,unknown
     620:	284e                	fld	fa6,208(sp)
     622:	5250                	lw	a2,36(a2)
     624:	294d                	jal	ad6 <.LASF266+0x14>
     626:	5f20                	lw	s0,120(a4)
     628:	5350                	lw	a2,36(a4)
     62a:	4c54                	lw	a3,28(s0)
     62c:	505f 4152 4d47      	0x4d474152505f
     632:	2841                	jal	6c2 <.LASF715+0x17>
     634:	20706d6f          	jal	s10,703a <.LASF439+0xfcb>
     638:	646d6973          	csrrsi	s2,0x646,26
     63c:	7220                	flw	fs0,96(a2)
     63e:	6465                	lui	s0,0x19
     640:	6375                	lui	t1,0x1d
     642:	6974                	flw	fa3,84(a0)
     644:	50286e6f          	jal	t3,86b46 <.LASF439+0x80ad7>
     648:	4d52                	lw	s10,20(sp)
     64a:	2929                	jal	a64 <.LASF8+0x8>
	...

0000064d <.LASF316>:
     64d:	5f5f 4c46 3654      	0x36544c465f5f
     653:	5834                	lw	a3,112(s0)
     655:	4d5f 5841 5f5f      	0x5f5f58414d5f
     65b:	3120                	fld	fs0,96(a0)
     65d:	312e                	fld	ft2,232(sp)
     65f:	3938                	fld	fa4,112(a0)
     661:	34313337          	lui	t1,0x34313
     665:	3539                	jal	473 <.LASF98+0x3>
     667:	32373533          	0x32373533
     66b:	36373133          	0x36373133
     66f:	3035                	jal	fffffe9b <.LASF439+0xffff9e2c>
     671:	3538                	fld	fa4,104(a0)
     673:	33393537          	lui	a0,0x33393
     677:	3632                	fld	fa2,296(sp)
     679:	3236                	fld	ft4,360(sp)
     67b:	3038                	fld	fa4,96(s0)
     67d:	3730                	fld	fa2,104(a4)
     67f:	3230                	fld	fa2,96(a2)
     681:	2b65                	jal	c39 <.LASF228+0x10>
     683:	3934                	fld	fa3,112(a0)
     685:	36463233          	0x36463233
     689:	7834                	flw	fa3,112(s0)
	...

0000068c <.LASF665>:
     68c:	5f5f 4e49 3854      	0x38544e495f5f
     692:	2220                	fld	fs0,64(a2)
     694:	6868                	flw	fa0,84(s0)
     696:	0022                	c.slli	zero,0x8

00000698 <.LASF239>:
     698:	5f5f 4544 4943      	0x494345445f5f
     69e:	414d                	li	sp,19
     6a0:	5f4c                	lw	a1,60(a4)
     6a2:	4944                	lw	s1,20(a0)
     6a4:	205f5f47          	fmsub.s	ft10,ft10,ft5,ft4,unknown
     6a8:	          	0x49003633

000006ab <.LASF715>:
     6ab:	4e49                	li	t3,18
     6ad:	5f54                	lw	a3,60(a4)
     6af:	454c                	lw	a1,12(a0)
     6b1:	5341                	li	t1,-16
     6b3:	3154                	fld	fa3,160(a0)
     6b5:	5f36                	lw	t5,108(sp)
     6b7:	414d                	li	sp,19
     6b9:	2058                	fld	fa4,128(s0)
     6bb:	5f28                	lw	a0,120(a4)
     6bd:	495f 544e 4c5f      	0x4c5f544e495f
     6c3:	4145                	li	sp,17
     6c5:	36315453          	0x36315453
     6c9:	4d5f 5841 5f5f      	0x5f5f58414d5f
     6cf:	0029                	c.nop	10

000006d1 <.LASF4>:
     6d1:	5f5f 5453 4344      	0x434454535f5f
     6d7:	485f 534f 4554      	0x4554534f485f
     6dd:	5f44                	lw	s1,60(a4)
     6df:	205f 0031       	0x505f0031205f

000006e3 <.LASF471>:
     6e3:	505f 5453 5f4c      	0x5f4c5453505f
     6e9:	5250                	lw	a2,36(a2)
     6eb:	4741                	li	a4,16
     6ed:	414d                	li	sp,19
     6ef:	535f 4d49 5f44      	0x5f444d49535f
     6f5:	4544524f          	0x4544524f
     6f9:	4552                	lw	a0,20(sp)
     6fb:	5f44                	lw	s1,60(a4)
     6fd:	4f4d                	li	t5,19
     6ff:	4f4e                	lw	t5,208(sp)
     701:	4f54                	lw	a3,28(a4)
     703:	494e                	lw	s2,208(sp)
     705:	52502843          	fmadd.d	fa6,ft0,ft5,fa0,rdn
     709:	294d                	jal	bbb <.LASF185+0xa>
     70b:	0020                	addi	s0,sp,8

0000070d <.LASF373>:
     70d:	475f 494c 4342      	0x4342494c475f
     713:	5858                	lw	a4,52(s0)
     715:	3032                	fld	ft0,296(sp)
     717:	445f 5045 4552      	0x45525045445f
     71d:	45544143          	0x45544143
     721:	2844                	fld	fs1,144(s0)
     723:	534d                	li	t1,-13
     725:	00202947          	fmsub.s	fs2,ft0,ft2,ft0,rdn

00000729 <.LASF61>:
     729:	5f5f 4e49 5f54      	0x5f544e495f5f
     72f:	4146                	lw	sp,80(sp)
     731:	34365453          	0x34365453
     735:	545f 5059 5f45      	0x5f455059545f
     73b:	205f 6f6c 676e      	0x676e6f6c205f
     741:	6c20                	flw	fs0,88(s0)
     743:	20676e6f          	jal	t3,76949 <.LASF439+0x708da>
     747:	6e69                	lui	t3,0x1a
     749:	0074                	addi	a3,sp,12

0000074b <.LASF706>:
     74b:	4e49                	li	t3,18
     74d:	3854                	fld	fa3,176(s0)
     74f:	4d5f 5841 2820      	0x282058414d5f
     755:	5f5f 4e49 3854      	0x38544e495f5f
     75b:	4d5f 5841 5f5f      	0x5f5f58414d5f
     761:	0029                	c.nop	10

00000763 <.LASF588>:
     763:	475f 494c 4342      	0x4342494c475f
     769:	5858                	lw	a4,52(s0)
     76b:	3839                	jal	ffffff89 <.LASF439+0xffff9f1a>
     76d:	555f 4553 435f      	0x435f4553555f
     773:	3939                	jal	391 <.LASF396+0x17>
     775:	535f 4454 4f49      	0x4f494454535f
     77b:	3120                	fld	fs0,96(a0)
	...

0000077e <.LASF809>:
     77e:	6975                	lui	s2,0x1d
     780:	746e                	flw	fs0,248(sp)
     782:	6c5f 6165 7473      	0x747361656c5f
     788:	3631                	jal	294 <.LASF474+0x3>
     78a:	745f        	0x465f5f00745f

0000078d <.LASF258>:
     78d:	5f5f 4c46 3354      	0x33544c465f5f
     793:	5f32                	lw	t5,44(sp)
     795:	494d                	li	s2,19
     797:	5f4e                	lw	t5,240(sp)
     799:	205f 2e31 3731      	0x37312e31205f
     79f:	3435                	jal	1cb <.LASF147+0xc>
     7a1:	3439                	jal	1af <.LASF371+0x25>
     7a3:	38303533          	0x38303533
     7a7:	3232                	fld	ft4,296(sp)
     7a9:	3832                	fld	fa6,296(sp)
     7ab:	37303537          	lui	a0,0x37303
     7af:	3639                	jal	2bd <.LASF310+0xd>
     7b1:	3738                	fld	fa4,104(a4)
     7b3:	33353633          	0x33353633
     7b7:	32323237          	lui	tp,0x32323
     7bb:	3432                	fld	fs0,296(sp)
     7bd:	3635                	jal	2e9 <.LASF319+0x27>
     7bf:	6538                	flw	fa4,72(a0)
     7c1:	332d                	jal	4eb <.LASF227+0x3e>
     7c3:	4638                	lw	a4,72(a2)
     7c5:	          	0x50003233

000007c8 <.LASF747>:
     7c8:	5450                	lw	a2,44(s0)
     7ca:	4452                	lw	s0,20(sp)
     7cc:	4649                	li	a2,18
     7ce:	5f46                	lw	t5,112(sp)
     7d0:	414d                	li	sp,19
     7d2:	2058                	fld	fa4,128(s0)
     7d4:	5f28                	lw	a0,120(a4)
     7d6:	505f 5254 4944      	0x49445254505f
     7dc:	4646                	lw	a2,80(sp)
     7de:	4d5f 5841 5f5f      	0x5f5f58414d5f
     7e4:	0029                	c.nop	10

000007e6 <.LASF254>:
     7e6:	5f5f 4c46 3354      	0x33544c465f5f
     7ec:	5f32                	lw	t5,44(sp)
     7ee:	414d                	li	sp,19
     7f0:	5f58                	lw	a4,60(a4)
     7f2:	3031                	jal	fffffffe <.LASF439+0xffff9f8f>
     7f4:	455f 5058 5f5f      	0x5f5f5058455f
     7fa:	3320                	fld	fs0,96(a4)
     7fc:	0038                	addi	a4,sp,8

000007fe <.LASF814>:
     7fe:	6e69                	lui	t3,0x1a
     800:	5f74                	lw	a3,124(a4)
     802:	6166                	flw	ft2,88(sp)
     804:	5f387473          	csrrci	s0,0x5f3,16
     808:	0074                	addi	a3,sp,12

0000080a <.LASF211>:
     80a:	5f5f 4c46 5f54      	0x5f544c465f5f
     810:	4f4e                	lw	t5,208(sp)
     812:	4d52                	lw	s10,20(sp)
     814:	4d5f 5841 5f5f      	0x5f5f58414d5f
     81a:	3320                	fld	fs0,96(a4)
     81c:	342e                	fld	fs0,232(sp)
     81e:	3230                	fld	fa2,96(a2)
     820:	3238                	fld	fa4,96(a2)
     822:	36363433          	0x36363433
     826:	32353833          	0x32353833
     82a:	3838                	fld	fa4,112(s0)
     82c:	3935                	jal	468 <.LASF42+0x12>
     82e:	3138                	fld	fa4,96(a0)
     830:	3731                	jal	73c <.LASF61+0x13>
     832:	3430                	fld	fa2,104(s0)
     834:	3831                	jal	50 <.LASF794+0x5>
     836:	34383433          	0x34383433
     83a:	3135                	jal	466 <.LASF42+0x10>
     83c:	3936                	fld	fs2,360(sp)
     83e:	3532                	fld	fa0,296(sp)
     840:	2b65                	jal	df8 <.LASF307>
     842:	00463833          	sltu	a6,a2,tp

00000846 <.LASF608>:
     846:	475f 494c 4342      	0x4342494c475f
     84c:	5858                	lw	a4,52(s0)
     84e:	565f 5245 4f42      	0x4f425245565f
     854:	31204553          	0x31204553
	...

00000859 <.LASF196>:
     859:	5f5f 4955 544e      	0x544e49555f5f
     85f:	5450                	lw	a2,44(s0)
     861:	5f52                	lw	t5,52(sp)
     863:	414d                	li	sp,19
     865:	5f58                	lw	a4,60(a4)
     867:	205f 7830 6666      	0x66667830205f
     86d:	6666                	flw	fa2,88(sp)
     86f:	6666                	flw	fa2,88(sp)
     871:	6666                	flw	fa2,88(sp)
     873:	0055                	c.nop	21

00000875 <.LASF251>:
     875:	5f5f 4c46 3354      	0x33544c465f5f
     87b:	5f32                	lw	t5,44(sp)
     87d:	494d                	li	s2,19
     87f:	5f4e                	lw	t5,240(sp)
     881:	5845                	li	a6,-15
     883:	5f50                	lw	a2,60(a4)
     885:	205f 2d28 3231      	0x32312d28205f
     88b:	2935                	jal	cc7 <.LASF452+0x10>
	...

0000088e <.LASF444>:
     88e:	505f 5453 5f4c      	0x5f4c5453505f
     894:	4556                	lw	a0,84(sp)
     896:	5352                	lw	t1,52(sp)
     898:	4f49                	li	t5,18
     89a:	204e                	fld	ft0,208(sp)
     89c:	3039                	jal	aa <.LASF335+0x10>
     89e:	3030                	fld	fa2,96(s0)
	...

000008a1 <.LASF539>:
     8a1:	475f 494c 4342      	0x4342494c475f
     8a7:	5858                	lw	a4,52(s0)
     8a9:	485f 5641 5f45      	0x5f455641485f
     8af:	424d                	li	tp,19
     8b1:	54415453          	0x54415453
     8b5:	5f45                	li	t5,-15
     8b7:	2054                	fld	fa3,128(s0)
     8b9:	0031                	c.nop	12

000008bb <.LASF447>:
     8bb:	505f 5453 5f4c      	0x5f4c5453505f
     8c1:	4556                	lw	a0,84(sp)
     8c3:	5352                	lw	t1,52(sp)
     8c5:	4f49                	li	t5,18
     8c7:	5f4e                	lw	t5,240(sp)
     8c9:	4150                	lw	a2,4(a0)
     8cb:	4354                	lw	a3,4(a4)
     8cd:	2048                	fld	fa0,128(s0)
     8cf:	5f28                	lw	a0,120(a4)
     8d1:	5350                	lw	a2,36(a4)
     8d3:	4c54                	lw	a3,28(s0)
     8d5:	565f 5245 4953      	0x49535245565f
     8db:	25204e4f          	0x25204e4f
     8df:	3120                	fld	fs0,96(a0)
     8e1:	2930                	fld	fa2,80(a0)
	...

000008e4 <.LASF464>:
     8e4:	505f 5453 5f4c      	0x5f4c5453505f
     8ea:	31505043          	fmadd.s	ft0,ft0,fs5,ft6,unknown
     8ee:	5f34                	lw	a3,120(a4)
     8f0:	4e49                	li	t3,18
     8f2:	4554                	lw	a3,12(a0)
     8f4:	5f524547          	fmsub.q	fa0,ft4,fs5,fa1,rmm
     8f8:	55514553          	0x55514553
     8fc:	4e45                	li	t3,17
     8fe:	505f4543          	fmadd.s	fa0,ft10,ft5,fa0,rmm
     902:	4552                	lw	a0,20(sp)
     904:	544e4553          	0x544e4553
     908:	2820                	fld	fs0,80(s0)
     90a:	4d5f 4353 565f      	0x565f43534d5f
     910:	5245                	li	tp,-15
     912:	3e20                	fld	fs0,120(a2)
     914:	203d                	jal	942 <.LASF267+0xc>
     916:	3931                	jal	532 <.LASF531+0x13>
     918:	3030                	fld	fa2,96(s0)
     91a:	7c20                	flw	fs0,120(s0)
     91c:	207c                	fld	fa5,192(s0)
     91e:	5f5f 7063 756c      	0x756c70635f5f
     924:	756c7073          	csrci	0x756,24
     928:	3d3e2073          	csrs	0x3d3,t3
     92c:	3220                	fld	fs0,96(a2)
     92e:	3130                	fld	fa2,96(a0)
     930:	3034                	fld	fa3,96(s0)
     932:	4c32                	lw	s8,12(sp)
     934:	0029                	c.nop	10

00000936 <.LASF267>:
     936:	5f5f 4c46 3654      	0x36544c465f5f
     93c:	5f34                	lw	a3,120(a4)
     93e:	494d                	li	s2,19
     940:	5f4e                	lw	t5,240(sp)
     942:	3031                	jal	14e <.LASF711+0x19>
     944:	455f 5058 5f5f      	0x5f5f5058455f
     94a:	2820                	fld	fs0,80(s0)
     94c:	332d                	jal	676 <.LASF316+0x29>
     94e:	3730                	fld	fa2,104(a4)
     950:	0029                	c.nop	10

00000952 <.LASF738>:
     952:	4e49                	li	t3,18
     954:	5f54                	lw	a3,60(a4)
     956:	4146                	lw	sp,80(sp)
     958:	34365453          	0x34365453
     95c:	4d5f 4e49 2820      	0x28204e494d5f
     962:	5f2d                	li	t5,-21
     964:	495f 544e 465f      	0x465f544e495f
     96a:	5341                	li	t1,-16
     96c:	3654                	fld	fa3,168(a2)
     96e:	5f34                	lw	a3,120(a4)
     970:	414d                	li	sp,19
     972:	5f58                	lw	a4,60(a4)
     974:	205f 202d 2931      	0x2931202d205f
	...

0000097b <.LASF700>:
     97b:	5f5f 6e69 5f74      	0x5f746e695f5f
     981:	6166                	flw	ft2,88(sp)
     983:	32337473          	csrrci	s0,mhpmevent3,6
     987:	745f 645f 6665      	0x6665645f745f
     98d:	6e69                	lui	t3,0x1a
     98f:	6465                	lui	s0,0x19
     991:	3120                	fld	fs0,96(a0)
	...

00000994 <.LASF189>:
     994:	5f5f 4e49 5f54      	0x5f544e495f5f
     99a:	4146                	lw	sp,80(sp)
     99c:	34365453          	0x34365453
     9a0:	575f 4449 4854      	0x48544449575f
     9a6:	5f5f 3620 0034      	0x3436205f5f

000009ac <.LASF270>:
     9ac:	5f5f 4c46 3654      	0x36544c465f5f
     9b2:	5f34                	lw	a3,120(a4)
     9b4:	4544                	lw	s1,12(a0)
     9b6:	414d4943          	fmadd.s	fs2,fs10,fs4,fs0,rmm
     9ba:	5f4c                	lw	a1,60(a4)
     9bc:	4944                	lw	s1,20(a0)
     9be:	205f5f47          	fmsub.s	ft10,ft10,ft5,ft4,unknown
     9c2:	3731                	jal	8ce <.LASF447+0x13>
	...

000009c5 <.LASF502>:
     9c5:	475f 494c 4342      	0x4342494c475f
     9cb:	5858                	lw	a4,52(s0)
     9cd:	485f 5641 5f45      	0x5f455641485f
     9d3:	4f45                	li	t5,17
     9d5:	4556                	lw	a0,84(sp)
     9d7:	4652                	lw	a2,20(sp)
     9d9:	4f4c                	lw	a1,28(a4)
     9db:	00312057          	0x312057

000009df <.LASF755>:
     9df:	4e49                	li	t3,18
     9e1:	3154                	fld	fa3,160(a0)
     9e3:	5f36                	lw	t5,108(sp)
     9e5:	29782843          	fmadd.s	fa6,fa6,fs7,ft5,rdn
     9e9:	5f20                	lw	s0,120(a4)
     9eb:	495f 544e 3631      	0x3631544e495f
     9f1:	435f 7828 0029      	0x297828435f

000009f7 <.LASF492>:
     9f7:	475f 494c 4342      	0x4342494c475f
     9fd:	5858                	lw	a4,52(s0)
     9ff:	485f 5641 5f45      	0x5f455641485f
     a05:	4345                	li	t1,17
     a07:	4e41                	li	t3,16
     a09:	454c4543          	0x454c4543
     a0d:	2044                	fld	fs1,128(s0)
     a0f:	0031                	c.nop	12

00000a11 <.LASF221>:
     a11:	5f5f 4244 5f4c      	0x5f4c42445f5f
     a17:	494d                	li	s2,19
     a19:	5f4e                	lw	t5,240(sp)
     a1b:	3031                	jal	227 <.LASF547+0x13>
     a1d:	455f 5058 5f5f      	0x5f5f5058455f
     a23:	2820                	fld	fs0,80(s0)
     a25:	332d                	jal	74f <.LASF706+0x4>
     a27:	3730                	fld	fa2,104(a4)
     a29:	0029                	c.nop	10

00000a2b <.LASF27>:
     a2b:	5f5f 524f 4544      	0x4544524f5f5f
     a31:	5f52                	lw	t5,52(sp)
     a33:	4942                	lw	s2,16(sp)
     a35:	4e455f47          	fmsub.q	ft10,fa0,ft4,fs1,unknown
     a39:	4944                	lw	s1,20(a0)
     a3b:	4e41                	li	t3,16
     a3d:	5f5f 3420 3233      	0x323334205f5f
     a43:	0031                	c.nop	12

00000a45 <.LASF327>:
     a45:	5f5f 4f4e 495f      	0x495f4f4e5f5f
     a4b:	4c4e                	lw	s8,208(sp)
     a4d:	4e49                	li	t3,18
     a4f:	5f45                	li	t5,-15
     a51:	205f 0031       	0x49530031205f

00000a55 <.LASF844>:
     a55:	474e4953          	0x474e4953
     a59:	454c                	lw	a1,12(a0)
	...

00000a5c <.LASF8>:
     a5c:	5f5f 4556 5352      	0x535245565f5f
     a62:	4f49                	li	t5,18
     a64:	5f4e                	lw	t5,240(sp)
     a66:	205f 3122 2e30      	0x2e303122205f
     a6c:	2e32                	fld	ft8,264(sp)
     a6e:	2230                	fld	fa2,64(a2)
	...

00000a71 <.LASF293>:
     a71:	5f5f 4c46 3154      	0x31544c465f5f
     a77:	3832                	fld	fa6,296(sp)
     a79:	485f 5341 515f      	0x515f5341485f
     a7f:	4955                	li	s2,21
     a81:	5445                	li	s0,-15
     a83:	4e5f 4e41 5f5f      	0x5f5f4e414e5f
     a89:	3120                	fld	fs0,96(a0)
	...

00000a8c <.LASF677>:
     a8c:	535f 5359 5f5f      	0x5f5f5359535f
     a92:	49445453          	0x49445453
     a96:	544e                	lw	s0,240(sp)
     a98:	485f 0020       	0x4e490020485f

00000a9c <.LASF727>:
     a9c:	4e49                	li	t3,18
     a9e:	5f54                	lw	a3,60(a4)
     aa0:	454c                	lw	a1,12(a0)
     aa2:	5341                	li	t1,-16
     aa4:	3654                	fld	fa3,168(a2)
     aa6:	5f34                	lw	a3,120(a4)
     aa8:	414d                	li	sp,19
     aaa:	2058                	fld	fa4,128(s0)
     aac:	5f28                	lw	a0,120(a4)
     aae:	495f 544e 4c5f      	0x4c5f544e495f
     ab4:	4145                	li	sp,17
     ab6:	34365453          	0x34365453
     aba:	4d5f 5841 5f5f      	0x5f5f58414d5f
     ac0:	0029                	c.nop	10

00000ac2 <.LASF266>:
     ac2:	5f5f 4c46 3654      	0x36544c465f5f
     ac8:	5f34                	lw	a3,120(a4)
     aca:	494d                	li	s2,19
     acc:	5f4e                	lw	t5,240(sp)
     ace:	5845                	li	a6,-15
     ad0:	5f50                	lw	a2,60(a4)
     ad2:	205f 2d28 3031      	0x30312d28205f
     ad8:	3132                	fld	ft2,296(sp)
     ada:	0029                	c.nop	10

00000adc <.LASF144>:
     adc:	5f5f 5450 4452      	0x445254505f5f
     ae2:	4649                	li	a2,18
     ae4:	5f46                	lw	t5,112(sp)
     ae6:	54444957          	0x54444957
     aea:	5f48                	lw	a0,60(a4)
     aec:	205f 3233       	0x5f003233205f

00000af1 <.LASF610>:
     af1:	5f5f 5453 4344      	0x434454535f5f
     af7:	4c5f 4d49 5449      	0x54494d494c5f
     afd:	4d5f 4341 4f52      	0x4f5243414d5f
     b03:	          	0x475f0053

00000b05 <.LASF407>:
     b05:	475f 494c 4342      	0x4342494c475f
     b0b:	5858                	lw	a4,52(s0)
     b0d:	4e5f 4d41 5345      	0x53454d414e5f
     b13:	4150                	lw	a2,4(a0)
     b15:	4c5f4543          	0x4c5f4543
     b19:	4244                	lw	s1,4(a2)
     b1b:	204c                	fld	fa1,128(s0)
	...

00000b1e <.LASF190>:
     b1e:	5f5f 4955 544e      	0x544e49555f5f
     b24:	465f 5341 3854      	0x38545341465f
     b2a:	4d5f 5841 5f5f      	0x5f5f58414d5f
     b30:	3020                	fld	fs0,96(s0)
     b32:	6678                	flw	fa4,76(a2)
     b34:	6666                	flw	fa2,88(sp)
     b36:	6666                	flw	fa2,88(sp)
     b38:	6666                	flw	fa2,88(sp)
     b3a:	5566                	lw	a0,120(sp)
	...

00000b3d <.LASF53>:
     b3d:	5f5f 4e49 5f54      	0x5f544e495f5f
     b43:	454c                	lw	a1,12(a0)
     b45:	5341                	li	t1,-16
     b47:	3654                	fld	fa3,168(a2)
     b49:	5f34                	lw	a3,120(a4)
     b4b:	5954                	lw	a3,52(a0)
     b4d:	4550                	lw	a2,12(a0)
     b4f:	5f5f 6c20 6e6f      	0x6e6f6c205f5f
     b55:	6f6c2067          	0x6f6c2067
     b59:	676e                	flw	fa4,216(sp)
     b5b:	6920                	flw	fs0,80(a0)
     b5d:	746e                	flw	fs0,248(sp)
	...

00000b60 <.LASF709>:
     b60:	4e49                	li	t3,18
     b62:	5f54                	lw	a3,60(a4)
     b64:	454c                	lw	a1,12(a0)
     b66:	5341                	li	t1,-16
     b68:	3854                	fld	fa3,176(s0)
     b6a:	4d5f 5841 2820      	0x282058414d5f
     b70:	5f5f 4e49 5f54      	0x5f544e495f5f
     b76:	454c                	lw	a1,12(a0)
     b78:	5341                	li	t1,-16
     b7a:	3854                	fld	fa3,176(s0)
     b7c:	4d5f 5841 5f5f      	0x5f5f58414d5f
     b82:	0029                	c.nop	10

00000b84 <.LASF314>:
     b84:	5f5f 4c46 3654      	0x36544c465f5f
     b8a:	5834                	lw	a3,112(s0)
     b8c:	4d5f 5841 315f      	0x315f58414d5f
     b92:	5f30                	lw	a2,120(a4)
     b94:	5845                	li	a6,-15
     b96:	5f50                	lw	a2,60(a4)
     b98:	205f 3934 3233      	0x32333934205f
	...

00000b9f <.LASF137>:
     b9f:	5f5f 4353 4148      	0x414843535f5f
     ba5:	5f52                	lw	t5,52(sp)
     ba7:	54444957          	0x54444957
     bab:	5f48                	lw	a0,60(a4)
     bad:	205f 0038       	0x5f5f0038205f

00000bb1 <.LASF185>:
     bb1:	5f5f 4e49 5f54      	0x5f544e495f5f
     bb7:	4146                	lw	sp,80(sp)
     bb9:	36315453          	0x36315453
     bbd:	575f 4449 4854      	0x48544449575f
     bc3:	5f5f 3320 0032      	0x3233205f5f

00000bc9 <.LASF366>:
     bc9:	475f 494c 4342      	0x4342494c475f
     bcf:	5858                	lw	a4,52(s0)
     bd1:	435f 4e4f 5453      	0x54534e4f435f
     bd7:	5f20                	lw	s0,120(a4)
     bd9:	615f 7474 6972      	0x69727474615f
     bdf:	7562                	flw	fa0,56(sp)
     be1:	6574                	flw	fa3,76(a0)
     be3:	5f5f 2820 5f28      	0x5f2828205f5f
     be9:	635f 6e6f 7473      	0x74736e6f635f
     bef:	5f5f 2929       	0x5f0029295f5f

00000bf4 <.LASF675>:
     bf4:	5f5f 454c 5341      	0x5341454c5f5f
     bfa:	3354                	fld	fa3,160(a4)
     bfc:	2032                	fld	ft0,264(sp)
     bfe:	6c22                	flw	fs8,8(sp)
     c00:	0022                	c.slli	zero,0x8

00000c02 <.LASF668>:
     c02:	5f5f 4e49 3654      	0x36544e495f5f
     c08:	2034                	fld	fa3,64(s0)
     c0a:	6c22                	flw	fs8,8(sp)
     c0c:	226c                	fld	fa1,192(a2)
	...

00000c0f <.LASF194>:
     c0f:	5f5f 4e49 5054      	0x50544e495f5f
     c15:	5254                	lw	a3,36(a2)
     c17:	4d5f 5841 5f5f      	0x5f5f58414d5f
     c1d:	3020                	fld	fs0,96(s0)
     c1f:	3778                	fld	fa4,232(a4)
     c21:	6666                	flw	fa2,88(sp)
     c23:	6666                	flw	fa2,88(sp)
     c25:	6666                	flw	fa2,88(sp)
     c27:	0066                	c.slli	zero,0x19

00000c29 <.LASF228>:
     c29:	5f5f 4244 5f4c      	0x5f4c42445f5f
     c2f:	5045                	c.li	zero,-15
     c31:	4f4c4953          	0x4f4c4953
     c35:	5f4e                	lw	t5,240(sp)
     c37:	205f 6f64 6275      	0x62756f64205f
     c3d:	656c                	flw	fa1,76(a0)
     c3f:	3228                	fld	fa0,96(a2)
     c41:	322e                	fld	ft4,232(sp)
     c43:	3032                	fld	ft0,296(sp)
     c45:	3434                	fld	fa3,104(s0)
     c47:	3036                	fld	ft0,360(sp)
     c49:	3934                	fld	fa3,112(a0)
     c4b:	3532                	fld	fa0,296(sp)
     c4d:	3330                	fld	fa2,96(a4)
     c4f:	3331                	jal	95b <.LASF738+0x9>
     c51:	3830                	fld	fa2,112(s0)
     c53:	3830                	fld	fa2,112(s0)
     c55:	3734                	fld	fa3,104(a4)
     c57:	3632                	fld	fa2,296(sp)
     c59:	36333333          	0x36333333
     c5d:	3831                	jal	479 <.LASF98+0x9>
     c5f:	3631                	jal	76b <.LASF588+0x8>
     c61:	3034                	fld	fa3,96(s0)
     c63:	3236                	fld	ft4,360(sp)
     c65:	2d65                	jal	131d <.LASF568+0xa>
     c67:	3631                	jal	773 <.LASF588+0x10>
     c69:	294c                	fld	fa1,144(a0)
	...

00000c6c <.LASF191>:
     c6c:	5f5f 4955 544e      	0x544e49555f5f
     c72:	465f 5341 3154      	0x31545341465f
     c78:	5f36                	lw	t5,108(sp)
     c7a:	414d                	li	sp,19
     c7c:	5f58                	lw	a4,60(a4)
     c7e:	205f 7830 6666      	0x66667830205f
     c84:	6666                	flw	fa2,88(sp)
     c86:	6666                	flw	fa2,88(sp)
     c88:	6666                	flw	fa2,88(sp)
     c8a:	0055                	c.nop	21

00000c8c <.LASF726>:
     c8c:	4e49                	li	t3,18
     c8e:	5f54                	lw	a3,60(a4)
     c90:	454c                	lw	a1,12(a0)
     c92:	5341                	li	t1,-16
     c94:	3654                	fld	fa3,168(a2)
     c96:	5f34                	lw	a3,120(a4)
     c98:	494d                	li	s2,19
     c9a:	204e                	fld	ft0,208(sp)
     c9c:	2d28                	fld	fa0,88(a0)
     c9e:	5f5f 4e49 5f54      	0x5f544e495f5f
     ca4:	454c                	lw	a1,12(a0)
     ca6:	5341                	li	t1,-16
     ca8:	3654                	fld	fa3,168(a2)
     caa:	5f34                	lw	a3,120(a4)
     cac:	414d                	li	sp,19
     cae:	5f58                	lw	a4,60(a4)
     cb0:	205f 202d 2931      	0x2931202d205f
	...

00000cb7 <.LASF452>:
     cb7:	505f 5453 5f4c      	0x5f4c5453505f
     cbd:	49525453          	0x49525453
     cc1:	474e                	lw	a4,208(sp)
     cc3:	435f 4e4f 4143      	0x41434e4f435f
     cc9:	2854                	fld	fa3,144(s0)
     ccb:	2c78                	fld	fa4,216(s0)
     ccd:	2979                	jal	116b <.LASF245+0x3c>
     ccf:	7820                	flw	fs0,112(s0)
     cd1:	2320                	fld	fs0,64(a4)
     cd3:	0079                	c.nop	30

00000cd5 <.LASF490>:
     cd5:	475f 494c 4342      	0x4342494c475f
     cdb:	5858                	lw	a4,52(s0)
     cdd:	485f 5641 5f45      	0x5f455641485f
     ce3:	48534f43          	fmadd.s	ft10,ft6,ft5,fs1,rmm
     ce7:	2046                	fld	ft0,80(sp)
     ce9:	0031                	c.nop	12

00000ceb <.LASF590>:
     ceb:	475f 494c 4342      	0x4342494c475f
     cf1:	5858                	lw	a4,52(s0)
     cf3:	3839                	jal	511 <.LASF315+0xc>
     cf5:	555f 4553 435f      	0x435f4553555f
     cfb:	3939                	jal	919 <.LASF464+0x35>
     cfd:	575f 4843 5241      	0x52414843575f
     d03:	3120                	fld	fs0,96(a0)
	...

00000d06 <.LASF287>:
     d06:	5f5f 4c46 3154      	0x31544c465f5f
     d0c:	3832                	fld	fa6,296(sp)
     d0e:	4e5f 524f 5f4d      	0x5f4d524f4e5f
     d14:	414d                	li	sp,19
     d16:	5f58                	lw	a4,60(a4)
     d18:	205f 2e31 3831      	0x38312e31205f
     d1e:	3739                	jal	c2c <.LASF228+0x3>
     d20:	39343133          	0x39343133
     d24:	3335                	jal	a50 <.LASF327+0xb>
     d26:	3735                	jal	c52 <.LASF228+0x29>
     d28:	3332                	fld	ft6,296(sp)
     d2a:	3731                	jal	c36 <.LASF228+0xd>
     d2c:	3536                	fld	fa0,360(sp)
     d2e:	3830                	fld	fa2,112(s0)
     d30:	3735                	jal	c5c <.LASF228+0x33>
     d32:	3935                	jal	96e <.LASF738+0x1c>
     d34:	36363233          	0x36363233
     d38:	3832                	fld	fa6,296(sp)
     d3a:	3030                	fld	fa2,96(s0)
     d3c:	65323037          	lui	zero,0x65323
     d40:	3339342b          	0x3339342b
     d44:	4632                	lw	a2,12(sp)
     d46:	3231                	jal	652 <.LASF316+0x5>
     d48:	0038                	addi	a4,sp,8

00000d4a <.LASF622>:
     d4a:	5f5f 4e47 4355      	0x43554e475f5f
     d50:	505f 4552 4552      	0x45524552505f
     d56:	2851                	jal	dea <.LASF152+0x1f>
     d58:	616d                	addi	sp,sp,240
     d5a:	2c6a                	fld	fs8,152(sp)
     d5c:	696d                	lui	s2,0x1b
     d5e:	296e                	fld	fs2,216(sp)
     d60:	2820                	fld	fs0,80(s0)
     d62:	5f28                	lw	a0,120(a4)
     d64:	475f 554e 5f43      	0x5f43554e475f
     d6a:	205f 3c3c 3120      	0x31203c3c205f
     d70:	2936                	fld	fs2,328(sp)
     d72:	2b20                	fld	fs0,80(a4)
     d74:	5f20                	lw	s0,120(a4)
     d76:	475f 554e 5f43      	0x5f43554e475f
     d7c:	494d                	li	s2,19
     d7e:	4f4e                	lw	t5,208(sp)
     d80:	5f52                	lw	t5,52(sp)
     d82:	205f 3d3e 2820      	0x28203d3e205f
     d88:	6d28                	flw	fa0,88(a0)
     d8a:	6a61                	lui	s4,0x18
     d8c:	2029                	jal	d96 <.LASF622+0x4c>
     d8e:	3c3c                	fld	fa5,120(s0)
     d90:	3120                	fld	fs0,96(a0)
     d92:	2936                	fld	fs2,328(sp)
     d94:	2b20                	fld	fs0,80(a4)
     d96:	2820                	fld	fs0,80(s0)
     d98:	696d                	lui	s2,0x1b
     d9a:	296e                	fld	fs2,216(sp)
     d9c:	0029                	c.nop	10

00000d9e <.LASF478>:
     d9e:	505f 5453 5f4c      	0x5f4c5453505f
     da4:	5250                	lw	a2,36(a2)
     da6:	4741                	li	a4,16
     da8:	414d                	li	sp,19
     daa:	4d5f 5345 4153      	0x415353454d5f
     db0:	78284547          	fmsub.s	fa0,fa6,ft2,fa5,rmm
     db4:	2029                	jal	dbe <.LASF692+0x7>
	...

00000db7 <.LASF692>:
     db7:	495f 544e 5450      	0x5450544e495f
     dbd:	5f52                	lw	t5,52(sp)
     dbf:	5f54                	lw	a3,60(a4)
     dc1:	4544                	lw	s1,12(a0)
     dc3:	52414c43          	fmadd.d	fs8,ft2,ft4,fa0,rmm
     dc7:	4445                	li	s0,17
     dc9:	0020                	addi	s0,sp,8

00000dcb <.LASF152>:
     dcb:	5f5f 4953 5f47      	0x5f4749535f5f
     dd1:	5441                	li	s0,-16
     dd3:	43494d4f          	fnmadd.d	fs10,fs2,fs4,fs0,rmm
     dd7:	4d5f 4e49 5f5f      	0x5f5f4e494d5f
     ddd:	2820                	fld	fs0,80(s0)
     ddf:	5f2d                	li	t5,-21
     de1:	535f 4749 415f      	0x415f4749535f
     de7:	4f54                	lw	a3,28(a4)
     de9:	494d                	li	s2,19
     deb:	414d5f43          	fmadd.s	ft10,fs10,fs4,fs0,unknown
     def:	5f58                	lw	a4,60(a4)
     df1:	205f 202d 2931      	0x2931202d205f
	...

00000df8 <.LASF307>:
     df8:	5f5f 4c46 3354      	0x33544c465f5f
     dfe:	5832                	lw	a6,44(sp)
     e00:	485f 5341 495f      	0x495f5341485f
     e06:	464e                	lw	a2,208(sp)
     e08:	4e49                	li	t3,18
     e0a:	5449                	li	s0,-14
     e0c:	5f59                	li	t5,-10
     e0e:	205f 0031       	0x4e490031205f

00000e12 <.LASF735>:
     e12:	4e49                	li	t3,18
     e14:	5f54                	lw	a3,60(a4)
     e16:	4146                	lw	sp,80(sp)
     e18:	32335453          	0x32335453
     e1c:	4d5f 4e49 2820      	0x28204e494d5f
     e22:	5f2d                	li	t5,-21
     e24:	495f 544e 465f      	0x465f544e495f
     e2a:	5341                	li	t1,-16
     e2c:	3354                	fld	fa3,160(a4)
     e2e:	5f32                	lw	t5,44(sp)
     e30:	414d                	li	sp,19
     e32:	5f58                	lw	a4,60(a4)
     e34:	205f 202d 2931      	0x2931202d205f
	...

00000e3b <.LASF290>:
     e3b:	5f5f 4c46 3154      	0x31544c465f5f
     e41:	3832                	fld	fa6,296(sp)
     e43:	445f 4e45 524f      	0x524f4e45445f
     e49:	5f4d                	li	t5,-13
     e4b:	494d                	li	s2,19
     e4d:	5f4e                	lw	t5,240(sp)
     e4f:	205f 2e36 3734      	0x37342e36205f
     e55:	3135                	jal	a81 <.LASF293+0x10>
     e57:	31313537          	lui	a0,0x31313
     e5b:	3439                	jal	869 <.LASF196+0x10>
     e5d:	32303833          	0x32303833
     e61:	3135                	jal	a8d <.LASF677+0x1>
     e63:	3031                	jal	66f <.LASF316+0x22>
     e65:	3239                	jal	773 <.LASF588+0x10>
     e67:	3434                	fld	fa3,104(s0)
     e69:	35393833          	0x35393833
     e6d:	3238                	fld	fa4,96(a2)
     e6f:	3732                	fld	fa4,296(sp)
     e71:	3436                	fld	fs0,360(sp)
     e73:	3536                	fld	fa0,360(sp)
     e75:	6535                	lui	a0,0xd
     e77:	342d                	jal	8a1 <.LASF539>
     e79:	3639                	jal	987 <.LASF700+0xc>
     e7b:	4636                	lw	a2,76(sp)
     e7d:	3231                	jal	789 <.LASF809+0xb>
     e7f:	0038                	addi	a4,sp,8

00000e81 <.LASF54>:
     e81:	5f5f 4955 544e      	0x544e49555f5f
     e87:	4c5f 4145 5453      	0x545341454c5f
     e8d:	5f38                	lw	a4,120(a4)
     e8f:	5954                	lw	a3,52(a0)
     e91:	4550                	lw	a2,12(a0)
     e93:	5f5f 7520 736e      	0x736e75205f5f
     e99:	6769                	lui	a4,0x1a
     e9b:	656e                	flw	fa0,216(sp)
     e9d:	2064                	fld	fs1,192(s0)
     e9f:	72616863          	bltu	sp,t1,15cf <.LASF326+0xd>
	...

00000ea4 <.LASF825>:
     ea4:	5a5f 334e 6373      	0x6373334e5a5f
     eaa:	3168                	fld	fa0,224(a0)
     eac:	7331                	lui	t1,0xfffec
     eae:	7270                	flw	fa2,100(a2)
     eb0:	635f636f          	jal	t1,f7ce4 <.LASF439+0xf1c75>
     eb4:	746e756f          	jal	a0,e85fa <.LASF439+0xe258b>
     eb8:	0045                	c.nop	17

00000eba <.LASF352>:
     eba:	5f5f 6972 6373      	0x637369725f5f
     ec0:	5f76                	lw	t5,124(sp)
     ec2:	756d                	lui	a0,0xffffb
     ec4:	646c                	flw	fa1,76(s0)
     ec6:	7669                	lui	a2,0xffffa
     ec8:	3120                	fld	fs0,96(a0)
	...

00000ecb <.LASF774>:
     ecb:	6f6c                	flw	fa1,92(a4)
     ecd:	676e                	flw	fa4,216(sp)
     ecf:	6920                	flw	fs0,80(a0)
     ed1:	746e                	flw	fs0,248(sp)
	...

00000ed4 <.LASF530>:
     ed4:	475f 494c 4342      	0x4342494c475f
     eda:	5858                	lw	a4,52(s0)
     edc:	485f 5641 5f45      	0x5f455641485f
     ee2:	494c                	lw	a1,20(a0)
     ee4:	494d                	li	s2,19
     ee6:	5f54                	lw	a3,60(a4)
     ee8:	4144                	lw	s1,4(a0)
     eea:	4154                	lw	a3,4(a0)
     eec:	3020                	fld	fs0,96(s0)
	...

00000eef <.LASF505>:
     eef:	475f 494c 4342      	0x4342494c475f
     ef5:	5858                	lw	a4,52(s0)
     ef7:	485f 5641 5f45      	0x5f455641485f
     efd:	5045                	c.li	zero,-15
     eff:	4f52                	lw	t5,20(sp)
     f01:	4f54                	lw	a3,28(a4)
     f03:	3120                	fld	fs0,96(a0)
	...

00000f06 <.LASF188>:
     f06:	5f5f 4e49 5f54      	0x5f544e495f5f
     f0c:	4146                	lw	sp,80(sp)
     f0e:	34365453          	0x34365453
     f12:	4d5f 5841 5f5f      	0x5f5f58414d5f
     f18:	3020                	fld	fs0,96(s0)
     f1a:	3778                	fld	fa4,232(a4)
     f1c:	6666                	flw	fa2,88(sp)
     f1e:	6666                	flw	fa2,88(sp)
     f20:	6666                	flw	fa2,88(sp)
     f22:	6666                	flw	fa2,88(sp)
     f24:	6666                	flw	fa2,88(sp)
     f26:	6666                	flw	fa2,88(sp)
     f28:	6666                	flw	fa2,88(sp)
     f2a:	4c66                	lw	s8,88(sp)
     f2c:	004c                	addi	a1,sp,4

00000f2e <.LASF300>:
     f2e:	5f5f 4c46 3354      	0x33544c465f5f
     f34:	5832                	lw	a6,44(sp)
     f36:	445f 4345 4d49      	0x4d494345445f
     f3c:	4c41                	li	s8,16
     f3e:	445f 4749 5f5f      	0x5f5f4749445f
     f44:	3120                	fld	fs0,96(a0)
     f46:	          	lui	zero,0x5f5f0

00000f48 <.LASF308>:
     f48:	5f5f 4c46 3354      	0x33544c465f5f
     f4e:	5832                	lw	a6,44(sp)
     f50:	485f 5341 515f      	0x515f5341485f
     f56:	4955                	li	s2,21
     f58:	5445                	li	s0,-15
     f5a:	4e5f 4e41 5f5f      	0x5f5f4e414e5f
     f60:	3120                	fld	fs0,96(a0)
	...

00000f63 <.LASF453>:
     f63:	505f 5453 5f4c      	0x5f4c5453505f
     f69:	5f434347          	fmsub.q	ft6,ft6,fs4,fa1,rmm
     f6d:	4556                	lw	a0,84(sp)
     f6f:	5352                	lw	t1,52(sp)
     f71:	4f49                	li	t5,18
     f73:	204e                	fld	ft0,208(sp)
     f75:	5f28                	lw	a0,120(a4)
     f77:	475f 554e 5f43      	0x5f43554e475f
     f7d:	205f 202a 3031      	0x3031202a205f
     f83:	3030                	fld	fa2,96(s0)
     f85:	2030                	fld	fa2,64(s0)
     f87:	5f5f202b          	0x5f5f202b
     f8b:	43554e47          	fmsub.d	ft8,fa0,fs5,fs0,rmm
     f8f:	4d5f 4e49 524f      	0x524f4e494d5f
     f95:	5f5f 2a20 3120      	0x31202a205f5f
     f9b:	3030                	fld	fa2,96(s0)
     f9d:	2b20                	fld	fs0,80(a4)
     f9f:	5f20                	lw	s0,120(a4)
     fa1:	475f 554e 5f43      	0x5f43554e475f
     fa7:	4150                	lw	a2,4(a0)
     fa9:	4354                	lw	a3,4(a4)
     fab:	4c48                	lw	a0,28(s0)
     fad:	5645                	li	a2,-15
     faf:	4c45                	li	s8,17
     fb1:	5f5f 0029       	0x5f5f00295f5f

00000fb5 <.LASF75>:
     fb5:	5f5f 7063 5f70      	0x5f7070635f5f
     fbb:	7572                	flw	fa0,60(sp)
     fbd:	746e                	flw	fs0,248(sp)
     fbf:	6d69                	lui	s10,0x1a
     fc1:	5f65                	li	t5,-7
     fc3:	7261                	lui	tp,0xffff8
     fc5:	6172                	flw	ft2,28(sp)
     fc7:	7379                	lui	t1,0xffffe
     fc9:	3120                	fld	fs0,96(a0)
     fcb:	3839                	jal	7e9 <.LASF254+0x3>
     fcd:	4c323137          	lui	sp,0x4c323
	...

00000fd2 <.LASF58>:
     fd2:	5f5f 4e49 5f54      	0x5f544e495f5f
     fd8:	4146                	lw	sp,80(sp)
     fda:	5f385453          	0x5f385453
     fde:	5954                	lw	a3,52(a0)
     fe0:	4550                	lw	a2,12(a0)
     fe2:	5f5f 6920 746e      	0x746e69205f5f
	...

00000fe9 <.LASF281>:
     fe9:	5f5f 4c46 3154      	0x31544c465f5f
     fef:	3832                	fld	fa6,296(sp)
     ff1:	4d5f 4e49 455f      	0x455f4e494d5f
     ff7:	5058                	lw	a4,36(s0)
     ff9:	5f5f 2820 312d      	0x312d28205f5f
     fff:	3336                	fld	ft6,360(sp)
    1001:	3138                	fld	fa4,96(a0)
    1003:	0029                	c.nop	10

00001005 <.LASF149>:
    1005:	5f5f 4955 544e      	0x544e49555f5f
    100b:	414d                	li	sp,19
    100d:	5f58                	lw	a4,60(a4)
    100f:	29632843          	fmadd.s	fa6,ft6,fs6,ft5,rdn
    1013:	6320                	flw	fs0,64(a4)
    1015:	2320                	fld	fs0,64(a4)
    1017:	4c552023          	sw	t0,1216(a0) # ffffb4c0 <.LASF439+0xffff5451>
    101b:	004c                	addi	a1,sp,4

0000101d <.LASF31>:
    101d:	5f5f 4953 455a      	0x455a49535f5f
    1023:	505f464f          	fnmadd.s	fa2,ft10,ft5,fa0,rmm
    1027:	544e494f          	0x544e494f
    102b:	5245                	li	tp,-15
    102d:	5f5f 3420       	0x5f0034205f5f

00001032 <.LASF50>:
    1032:	5f5f 4e49 5f54      	0x5f544e495f5f
    1038:	454c                	lw	a1,12(a0)
    103a:	5341                	li	t1,-16
    103c:	3854                	fld	fa3,176(s0)
    103e:	545f 5059 5f45      	0x5f455059545f
    1044:	205f 6973 6e67      	0x6e676973205f
    104a:	6465                	lui	s0,0x19
    104c:	6320                	flw	fs0,64(a4)
    104e:	6168                	flw	fa0,68(a0)
    1050:	0072                	c.slli	zero,0x1c

00001052 <.LASF331>:
    1052:	5f5f 4347 5f43      	0x5f4343475f5f
    1058:	5441                	li	s0,-16
    105a:	43494d4f          	fnmadd.d	fs10,fs2,fs4,fs0,rmm
    105e:	425f 4f4f 5f4c      	0x5f4c4f4f425f
    1064:	4f4c                	lw	a1,28(a4)
    1066:	465f4b43          	fmadd.q	fs6,ft10,ft5,fs0,rmm
    106a:	4552                	lw	a0,20(sp)
    106c:	2045                	jal	110c <.LASF433+0xd>
    106e:	0031                	c.nop	12

00001070 <.LASF563>:
    1070:	475f 494c 4342      	0x4342494c475f
    1076:	5858                	lw	a4,52(s0)
    1078:	485f 5641 5f45      	0x5f455641485f
    107e:	4154                	lw	a3,4(a0)
    1080:	484e                	lw	a6,208(sp)
    1082:	2046                	fld	ft0,80(sp)
    1084:	0031                	c.nop	12

00001086 <.LASF882>:
    1086:	6c6c6163          	bltu	s8,t1,1748 <.LASF886+0xe>
    108a:	6162                	flw	ft2,24(sp)
    108c:	695f6b63          	bltu	t5,s5,1722 <.LASF647+0x4>
    1090:	706e                	flw	ft0,248(sp)
	...

00001093 <.LASF399>:
    1093:	475f 494c 4342      	0x4342494c475f
    1099:	5858                	lw	a4,52(s0)
    109b:	455f 444e 4e5f      	0x4e5f444e455f
    10a1:	4d41                	li	s10,16
    10a3:	5345                	li	t1,-15
    10a5:	4150                	lw	a2,4(a0)
    10a7:	565f4543          	fmadd.q	fa0,ft10,ft5,fa0,rmm
    10ab:	5245                	li	tp,-15
    10ad:	4e4f4953          	0x4e4f4953
    10b1:	0020                	addi	s0,sp,8

000010b3 <.LASF321>:
    10b3:	5f5f 4c46 3654      	0x36544c465f5f
    10b9:	5834                	lw	a3,112(s0)
    10bb:	485f 5341 445f      	0x445f5341485f
    10c1:	4e45                	li	t3,17
    10c3:	5f4d524f          	fnmadd.q	ft4,fs10,fs4,fa1,unknown
    10c7:	205f 0031       	0x49550031205f

000010cb <.LASF704>:
    10cb:	4955                	li	s2,21
    10cd:	544e                	lw	s0,240(sp)
    10cf:	5450                	lw	a2,44(s0)
    10d1:	5f52                	lw	t5,52(sp)
    10d3:	414d                	li	sp,19
    10d5:	2058                	fld	fa4,128(s0)
    10d7:	5f28                	lw	a0,120(a4)
    10d9:	555f 4e49 5054      	0x50544e49555f
    10df:	5254                	lw	a3,36(a2)
    10e1:	4d5f 5841 5f5f      	0x5f5f58414d5f
    10e7:	0029                	c.nop	10

000010e9 <.LASF253>:
    10e9:	5f5f 4c46 3354      	0x33544c465f5f
    10ef:	5f32                	lw	t5,44(sp)
    10f1:	414d                	li	sp,19
    10f3:	5f58                	lw	a4,60(a4)
    10f5:	5845                	li	a6,-15
    10f7:	5f50                	lw	a2,60(a4)
    10f9:	205f 3231 0038      	0x383231205f

000010ff <.LASF433>:
    10ff:	475f 494c 4342      	0x4342494c475f
    1105:	5858                	lw	a4,52(s0)
    1107:	555f 4553 435f      	0x435f4553555f
    110d:	3939                	jal	d2b <.LASF287+0x25>
    110f:	575f 4843 5241      	0x52414843575f
    1115:	5f20                	lw	s0,120(a4)
    1117:	42494c47          	fmsub.d	fs8,fs2,ft4,fs0,rmm
    111b:	31585843          	fmadd.s	fa6,fa6,fs5,ft6,unknown
    111f:	5f31                	li	t5,-20
    1121:	5355                	li	t1,-11
    1123:	5f45                	li	t5,-15
    1125:	5f393943          	fmadd.q	fs2,fs2,fs3,fa1,rup
    1129:	41484357          	0x41484357
    112d:	0052                	c.slli	zero,0x14

0000112f <.LASF245>:
    112f:	5f5f 444c 4c42      	0x4c42444c5f5f
    1135:	445f 4e45 524f      	0x524f4e45445f
    113b:	5f4d                	li	t5,-13
    113d:	494d                	li	s2,19
    113f:	5f4e                	lw	t5,240(sp)
    1141:	205f 2e36 3734      	0x37342e36205f
    1147:	3135                	jal	d73 <.LASF622+0x29>
    1149:	31313537          	lui	a0,0x31313
    114d:	3439                	jal	b5b <.LASF53+0x1e>
    114f:	32303833          	0x32303833
    1153:	3135                	jal	d7f <.LASF622+0x35>
    1155:	3031                	jal	961 <.LASF738+0xf>
    1157:	3239                	jal	a65 <.LASF8+0x9>
    1159:	3434                	fld	fa3,104(s0)
    115b:	35393833          	0x35393833
    115f:	3238                	fld	fa4,96(a2)
    1161:	3732                	fld	fa4,296(sp)
    1163:	3436                	fld	fs0,360(sp)
    1165:	3536                	fld	fa0,360(sp)
    1167:	6535                	lui	a0,0xd
    1169:	342d                	jal	b93 <.LASF314+0xf>
    116b:	3639                	jal	c79 <.LASF191+0xd>
    116d:	4c36                	lw	s8,76(sp)
	...

00001170 <.LASF836>:
    1170:	5a5f 334e 6373      	0x6373334e5a5f
    1176:	3868                	fld	fa0,240(s0)
    1178:	70616373          	csrrsi	t1,0x706,2
    117c:	7574                	flw	fa3,108(a0)
    117e:	6572                	flw	fa0,28(sp)
    1180:	7645                	lui	a2,0xffff1
	...

00001183 <.LASF507>:
    1183:	475f 494c 4342      	0x4342494c475f
    1189:	5858                	lw	a4,52(s0)
    118b:	485f 5641 5f45      	0x5f455641485f
    1191:	5445                	li	s0,-15
    1193:	4d49                	li	s10,18
    1195:	4445                	li	s0,17
    1197:	2054554f          	fnmadd.s	fa0,fs0,ft5,ft4,unknown
    119b:	0031                	c.nop	12

0000119d <.LASF297>:
    119d:	5f5f 4c46 3354      	0x33544c465f5f
    11a3:	5832                	lw	a6,44(sp)
    11a5:	4d5f 4e49 315f      	0x315f4e494d5f
    11ab:	5f30                	lw	a2,120(a4)
    11ad:	5845                	li	a6,-15
    11af:	5f50                	lw	a2,60(a4)
    11b1:	205f 2d28 3033      	0x30332d28205f
    11b7:	          	lui	s2,0x5f002

000011ba <.LASF379>:
    11ba:	475f 494c 4342      	0x4342494c475f
    11c0:	5858                	lw	a4,52(s0)
    11c2:	3731                	jal	10ce <.LASF704+0x3>
    11c4:	435f 4e4f 5453      	0x54534e4f435f
    11ca:	5845                	li	a6,-15
    11cc:	5250                	lw	a2,36(a2)
    11ce:	6320                	flw	fs0,64(a4)
    11d0:	74736e6f          	jal	t3,38116 <.LASF439+0x320a7>
    11d4:	7865                	lui	a6,0xffff9
    11d6:	7270                	flw	fa2,100(a2)
	...

000011d9 <.LASF40>:
    11d9:	5f5f 4843 5241      	0x524148435f5f
    11df:	545f3233          	0x545f3233
    11e3:	5059                	c.li	zero,-10
    11e5:	5f45                	li	t5,-15
    11e7:	205f 6f6c 676e      	0x676e6f6c205f
    11ed:	7520                	flw	fs0,104(a0)
    11ef:	736e                	flw	ft6,248(sp)
    11f1:	6769                	lui	a4,0x1a
    11f3:	656e                	flw	fa0,216(sp)
    11f5:	2064                	fld	fs1,192(s0)
    11f7:	6e69                	lui	t3,0x1a
    11f9:	0074                	addi	a3,sp,12

000011fb <.LASF378>:
    11fb:	475f 494c 4342      	0x4342494c475f
    1201:	5858                	lw	a4,52(s0)
    1203:	3431                	jal	c0f <.LASF194>
    1205:	435f 4e4f 5453      	0x54534e4f435f
    120b:	5845                	li	a6,-15
    120d:	5250                	lw	a2,36(a2)
    120f:	6320                	flw	fs0,64(a4)
    1211:	74736e6f          	jal	t3,38157 <.LASF439+0x320e8>
    1215:	7865                	lui	a6,0xffff9
    1217:	7270                	flw	fa2,100(a2)
	...

0000121a <.LASF824>:
    121a:	6f727073          	csrci	0x6f7,4
    121e:	65725f63          	bge	tp,s7,187c <.LASF884+0x3c>
    1222:	6461                	lui	s0,0x18
    1224:	0079                	c.nop	30

00001226 <.LASF289>:
    1226:	5f5f 4c46 3154      	0x31544c465f5f
    122c:	3832                	fld	fa6,296(sp)
    122e:	455f 5350 4c49      	0x4c495350455f
    1234:	5f5f4e4f          	fnmadd.q	ft8,ft10,fs5,fa1,rmm
    1238:	3120                	fld	fs0,96(a0)
    123a:	392e                	fld	fs2,232(sp)
    123c:	3532                	fld	fa0,296(sp)
    123e:	3239                	jal	b4c <.LASF53+0xf>
    1240:	3939                	jal	e5e <.LASF290+0x23>
    1242:	3434                	fld	fa3,104(s0)
    1244:	32373833          	0x32373833
    1248:	35383533          	0x35383533
    124c:	35353033          	0x35353033
    1250:	3739                	jal	115e <.LASF245+0x2f>
    1252:	32343937          	lui	s2,0x32343
    1256:	3835                	jal	a92 <.LASF677+0x6>
    1258:	3934                	fld	fa3,112(a0)
    125a:	3732                	fld	fa4,296(sp)
    125c:	2d653233          	0x2d653233
    1260:	31463433          	0x31463433
    1264:	3832                	fld	fa6,296(sp)
	...

00001267 <.LASF406>:
    1267:	475f 494c 4342      	0x4342494c475f
    126d:	5858                	lw	a4,52(s0)
    126f:	4c5f 4e4f 5f47      	0x5f474e4f4c5f
    1275:	4f44                	lw	s1,28(a4)
    1277:	4255                	li	tp,21
    1279:	454c                	lw	a1,12(a0)
    127b:	435f 4d4f 4150      	0x41504d4f435f
    1281:	0054                	addi	a3,sp,4

00001283 <.LASF382>:
    1283:	475f 494c 4342      	0x4342494c475f
    1289:	5858                	lw	a4,52(s0)
    128b:	4e5f 454f 4358      	0x4358454f4e5f
    1291:	5045                	c.li	zero,-15
    1293:	2054                	fld	fa3,128(s0)
    1295:	6f6e                	flw	ft10,216(sp)
    1297:	7865                	lui	a6,0xffff9
    1299:	74706563          	bltu	zero,t2,19e3 <.LASF237+0xb>
	...

0000129e <.LASF207>:
    129e:	5f5f 4c46 5f54      	0x5f544c465f5f
    12a4:	414d                	li	sp,19
    12a6:	5f58                	lw	a4,60(a4)
    12a8:	5845                	li	a6,-15
    12aa:	5f50                	lw	a2,60(a4)
    12ac:	205f 3231 0038      	0x383231205f

000012b2 <.LASF17>:
    12b2:	5f5f 4953 455a      	0x455a49535f5f
    12b8:	4c5f464f          	0x4c5f464f
    12bc:	5f474e4f          	fnmadd.q	ft8,fa4,fs4,fa1,rmm
    12c0:	205f 0034       	0x5f5f0034205f

000012c4 <.LASF637>:
    12c4:	5f5f 695f 746e      	0x746e695f5f5f
    12ca:	5f38                	lw	a4,120(a4)
    12cc:	5f74                	lw	a3,124(a4)
    12ce:	6564                	flw	fs1,76(a0)
    12d0:	6966                	flw	fs2,88(sp)
    12d2:	656e                	flw	fa0,216(sp)
    12d4:	2064                	fld	fs1,192(s0)
    12d6:	0031                	c.nop	12

000012d8 <.LASF380>:
    12d8:	475f 494c 4342      	0x4342494c475f
    12de:	5858                	lw	a4,52(s0)
    12e0:	3032                	fld	ft0,296(sp)
    12e2:	435f 4e4f 5453      	0x54534e4f435f
    12e8:	5845                	li	a6,-15
    12ea:	5250                	lw	a2,36(a2)
    12ec:	0020                	addi	s0,sp,8

000012ee <.LASF121>:
    12ee:	5f5f 7063 5f70      	0x5f7070635f5f
    12f4:	6574                	flw	fa3,76(a0)
    12f6:	706d                	c.lui	zero,0xffffb
    12f8:	616c                	flw	fa1,68(a0)
    12fa:	6574                	flw	fa3,76(a0)
    12fc:	745f 6d65 6c70      	0x6c706d65745f
    1302:	7461                	lui	s0,0xffff8
    1304:	5f65                	li	t5,-7
    1306:	7261                	lui	tp,0xffff8
    1308:	32207367          	0x32207367
    130c:	3130                	fld	fa2,96(a0)
    130e:	3136                	fld	ft2,360(sp)
    1310:	4c31                	li	s8,12
	...

00001313 <.LASF568>:
    1313:	475f 494c 4342      	0x4342494c475f
    1319:	5858                	lw	a4,52(s0)
    131b:	485f 5641 5f45      	0x5f455641485f
    1321:	4656                	lw	a2,84(sp)
    1323:	41435357          	0x41435357
    1327:	464e                	lw	a2,208(sp)
    1329:	3120                	fld	fs0,96(a0)
	...

0000132c <.LASF404>:
    132c:	475f 494c 4342      	0x4342494c475f
    1332:	5858                	lw	a4,52(s0)
    1334:	425f 4745 4e49      	0x4e494745425f
    133a:	4e5f 4d41 5345      	0x53454d414e5f
    1340:	4150                	lw	a2,4(a0)
    1342:	415f4543          	fmadd.s	fa0,ft10,fs5,fs0,rmm
    1346:	474c                	lw	a1,12(a4)
    1348:	          	fnmadd.q	ft0,ft0,fa6,fa1,rdn

0000134b <.LASF21>:
    134b:	5f5f 4953 455a      	0x455a49535f5f
    1351:	445f464f          	0x445f464f
    1355:	4c42554f          	0x4c42554f
    1359:	5f45                	li	t5,-15
    135b:	205f 0038       	0x5f5f0038205f

0000135f <.LASF170>:
    135f:	5f5f 4e49 5f54      	0x5f544e495f5f
    1365:	454c                	lw	a1,12(a0)
    1367:	5341                	li	t1,-16
    1369:	3354                	fld	fa3,160(a4)
    136b:	5f32                	lw	t5,44(sp)
    136d:	54444957          	0x54444957
    1371:	5f48                	lw	a0,60(a4)
    1373:	205f 3233       	0x5f003233205f

00001378 <.LASF296>:
    1378:	5f5f 4c46 3354      	0x33544c465f5f
    137e:	5832                	lw	a6,44(sp)
    1380:	4d5f 4e49 455f      	0x455f4e494d5f
    1386:	5058                	lw	a4,36(s0)
    1388:	5f5f 2820 312d      	0x312d28205f5f
    138e:	3230                	fld	fa2,96(a2)
    1390:	2931                	jal	17ac <.LASF259+0xa>
	...

00001393 <.LASF513>:
    1393:	475f 494c 4342      	0x4342494c475f
    1399:	5858                	lw	a4,52(s0)
    139b:	485f 5641 5f45      	0x5f455641485f
    13a1:	4546                	lw	a0,80(sp)
    13a3:	564e                	lw	a2,240(sp)
    13a5:	485f 3120       	0x5f003120485f

000013aa <.LASF364>:
    13aa:	5f5f 4c47 4249      	0x42494c475f5f
    13b0:	5f585843          	fmadd.q	fa6,fa6,fs5,fa1,unknown
    13b4:	205f 3032 3032      	0x30323032205f
    13ba:	3730                	fld	fa2,104(a4)
    13bc:	3332                	fld	ft6,296(sp)
	...

000013bf <.LASF122>:
    13bf:	5f5f 7063 5f70      	0x5f7070635f5f
    13c5:	6874                	flw	fa3,84(s0)
    13c7:	6572                	flw	fa0,28(sp)
    13c9:	6461                	lui	s0,0x18
    13cb:	65666173          	csrrsi	sp,0x656,12
    13cf:	735f 6174 6974      	0x69746174735f
    13d5:	6e695f63          	bge	s2,t1,1ad3 <.LASF288+0xd>
    13d9:	7469                	lui	s0,0xffffa
    13db:	3220                	fld	fs0,96(a2)
    13dd:	3030                	fld	fa2,96(s0)
    13df:	3038                	fld	fa4,96(s0)
    13e1:	4c36                	lw	s8,76(sp)
	...

000013e4 <.LASF670>:
    13e4:	5f5f 4146 5453      	0x545341465f5f
    13ea:	3631                	jal	ef6 <.LASF505+0x7>
    13ec:	0020                	addi	s0,sp,8

000013ee <.LASF501>:
    13ee:	475f 494c 4342      	0x4342494c475f
    13f4:	5858                	lw	a4,52(s0)
    13f6:	485f 5641 5f45      	0x5f455641485f
    13fc:	4e45                	li	t3,17
    13fe:	5553544f          	0x5553544f
    1402:	2050                	fld	fa2,128(s0)
    1404:	0031                	c.nop	12

00001406 <.LASF725>:
    1406:	4955                	li	s2,21
    1408:	544e                	lw	s0,240(sp)
    140a:	3436                	fld	fs0,360(sp)
    140c:	4d5f 5841 2820      	0x282058414d5f
    1412:	5f5f 4955 544e      	0x544e49555f5f
    1418:	3436                	fld	fs0,360(sp)
    141a:	4d5f 5841 5f5f      	0x5f5f58414d5f
    1420:	0029                	c.nop	10

00001422 <.LASF628>:
    1422:	5f5f 414c 4752      	0x4752414c5f5f
    1428:	4645                	li	a2,17
    142a:	4c49                	li	s8,18
    142c:	5f45                	li	t5,-15
    142e:	4956                	lw	s2,84(sp)
    1430:	4c424953          	0x4c424953
    1434:	2045                	jal	14d4 <.LASF209+0x6>
    1436:	0030                	addi	a2,sp,8

00001438 <.LASF361>:
    1438:	475f 494c 4342      	0x4342494c475f
    143e:	5858                	lw	a4,52(s0)
    1440:	435f 5453 4944      	0x49445453435f
    1446:	544e                	lw	s0,240(sp)
    1448:	3120                	fld	fs0,96(a0)
	...

0000144b <.LASF619>:
    144b:	5f5f 454e 4c57      	0x4c57454e5f5f
    1451:	4249                	li	tp,18
    1453:	5f5f 3320       	0x730033205f5f

00001458 <.LASF866>:
    1458:	6f727073          	csrci	0x6f7,4
    145c:	74695f63          	bge	s2,t1,1bba <.LASF761>
    1460:	7265                	lui	tp,0xffff9
    1462:	7461                	lui	s0,0xffff8
    1464:	          	jal	tp,8a54 <.LASF439+0x29e5>

00001467 <.LASF351>:
    1467:	5f5f 6972 6373      	0x637369725f5f
    146d:	5f76                	lw	t5,124(sp)
    146f:	6964                	flw	fs1,84(a0)
    1471:	2076                	fld	ft0,344(sp)
    1473:	0031                	c.nop	12

00001475 <.LASF206>:
    1475:	5f5f 4c46 5f54      	0x5f544c465f5f
    147b:	494d                	li	s2,19
    147d:	5f4e                	lw	t5,240(sp)
    147f:	3031                	jal	c8b <.LASF191+0x1f>
    1481:	455f 5058 5f5f      	0x5f5f5058455f
    1487:	2820                	fld	fs0,80(s0)
    1489:	332d                	jal	11b3 <.LASF297+0x16>
    148b:	          	lui	s2,0x75002

0000148e <.LASF813>:
    148e:	6975                	lui	s2,0x1d
    1490:	746e                	flw	fs0,248(sp)
    1492:	6c5f 6165 7473      	0x747361656c5f
    1498:	3436                	fld	fs0,360(sp)
    149a:	745f        	0x4c475f00745f

0000149d <.LASF367>:
    149d:	475f 494c 4342      	0x4342494c475f
    14a3:	5858                	lw	a4,52(s0)
    14a5:	4e5f 524f 5445      	0x5445524f4e5f
    14ab:	5255                	li	tp,-11
    14ad:	204e                	fld	ft0,208(sp)
    14af:	5f5f 7461 7274      	0x727474615f5f
    14b5:	6269                	lui	tp,0x1a
    14b7:	7475                	lui	s0,0xffffd
    14b9:	5f65                	li	t5,-7
    14bb:	205f 2828 5f5f      	0x5f5f2828205f
    14c1:	6f6e                	flw	ft10,216(sp)
    14c3:	6572                	flw	fa0,28(sp)
    14c5:	7574                	flw	fa3,108(a0)
    14c7:	6e72                	flw	ft8,28(sp)
    14c9:	5f5f 2929       	0x5f0029295f5f

000014ce <.LASF209>:
    14ce:	5f5f 4c46 5f54      	0x5f544c465f5f
    14d4:	4544                	lw	s1,12(a0)
    14d6:	414d4943          	fmadd.s	fs2,fs10,fs4,fs0,rmm
    14da:	5f4c                	lw	a1,60(a4)
    14dc:	4944                	lw	s1,20(a0)
    14de:	205f5f47          	fmsub.s	ft10,ft10,ft5,ft4,unknown
    14e2:	0039                	c.nop	14

000014e4 <.LASF411>:
    14e4:	475f 494c 4342      	0x4342494c475f
    14ea:	5858                	lw	a4,52(s0)
    14ec:	425f 4745 4e49      	0x4e494745425f
    14f2:	4e5f 4d41 5345      	0x53454d414e5f
    14f8:	4150                	lw	a2,4(a0)
    14fa:	4c5f4543          	0x4c5f4543
    14fe:	4244                	lw	s1,4(a2)
    1500:	5f4c                	lw	a1,60(a4)
    1502:	435f524f          	fnmadd.d	ft4,ft10,fs5,fs0,unknown
    1506:	5858                	lw	a4,52(s0)
    1508:	3131                	jal	1114 <.LASF433+0x15>
    150a:	5f20                	lw	s0,120(a4)
    150c:	42494c47          	fmsub.d	fs8,fs2,ft4,fs0,rmm
    1510:	5f585843          	fmadd.q	fa6,fa6,fs5,fa1,unknown
    1514:	4542                	lw	a0,16(sp)
    1516:	5f4e4947          	fmsub.q	fs2,ft8,fs4,fa1,rmm
    151a:	414e                	lw	sp,208(sp)
    151c:	454d                	li	a0,19
    151e:	43415053          	0x43415053
    1522:	5f45                	li	t5,-15
    1524:	31585843          	fmadd.s	fa6,fa6,fs5,ft6,unknown
    1528:	0031                	c.nop	12

0000152a <.LASF592>:
    152a:	475f 494c 4342      	0x4342494c475f
    1530:	5858                	lw	a4,52(s0)
    1532:	485f 534f 4554      	0x4554534f485f
    1538:	2044                	fld	fs1,128(s0)
    153a:	0031                	c.nop	12

0000153c <.LASF767>:
    153c:	6e676973          	csrrsi	s2,0x6e6,14
    1540:	6465                	lui	s0,0x19
    1542:	6320                	flw	fs0,64(a4)
    1544:	6168                	flw	fa0,68(a0)
    1546:	0072                	c.slli	zero,0x1c

00001548 <.LASF795>:
    1548:	6975                	lui	s2,0x1d
    154a:	746e                	flw	fs0,248(sp)
    154c:	5f38                	lw	a4,120(a4)
    154e:	0074                	addi	a3,sp,12

00001550 <.LASF467>:
    1550:	505f 5453 5f4c      	0x5f4c5453505f
    1556:	4f4d                	li	t5,19
    1558:	4f4e                	lw	t5,208(sp)
    155a:	4f54                	lw	a3,28(a4)
    155c:	494e                	lw	s2,208(sp)
    155e:	52505f43          	fmadd.d	ft10,ft0,ft5,fa0,unknown
    1562:	5345                	li	t1,-15
    1564:	4e45                	li	t3,17
    1566:	2054                	fld	fa3,128(s0)
    1568:	5f28                	lw	a0,120(a4)
    156a:	495f 544e 4c45      	0x4c45544e495f
    1570:	435f 4d4f 4950      	0x49504d4f435f
    1576:	454c                	lw	a1,12(a0)
    1578:	2052                	fld	ft0,272(sp)
    157a:	3d3e                	fld	fs10,488(sp)
    157c:	3120                	fld	fs0,96(a0)
    157e:	3038                	fld	fa4,96(s0)
    1580:	2930                	fld	fa2,80(a0)
	...

00001583 <.LASF73>:
    1583:	5f5f 7063 5f70      	0x5f7070635f5f
    1589:	6962                	flw	fs2,24(sp)
    158b:	616e                	flw	ft2,216(sp)
    158d:	7972                	flw	fs2,60(sp)
    158f:	6c5f 7469 7265      	0x726574696c5f
    1595:	6c61                	lui	s8,0x18
    1597:	30322073          	csrs	mideleg,tp
    159b:	3331                	jal	12a7 <.LASF207+0x9>
    159d:	3430                	fld	fa2,104(s0)
    159f:	004c                	addi	a1,sp,4

000015a1 <.LASF377>:
    15a1:	475f 494c 4342      	0x4342494c475f
    15a7:	5858                	lw	a4,52(s0)
    15a9:	555f 4553 435f      	0x435f4553555f
    15af:	54534e4f          	0x54534e4f
    15b3:	5845                	li	a6,-15
    15b5:	5250                	lw	a2,36(a2)
    15b7:	6320                	flw	fs0,64(a4)
    15b9:	74736e6f          	jal	t3,384ff <.LASF439+0x32490>
    15bd:	7865                	lui	a6,0xffff9
    15bf:	7270                	flw	fa2,100(a2)
	...

000015c2 <.LASF326>:
    15c2:	5f5f 4e47 4355      	0x43554e475f5f
    15c8:	535f 4454 5f43      	0x5f434454535f
    15ce:	4e49                	li	t3,18
    15d0:	494c                	lw	a1,20(a0)
    15d2:	454e                	lw	a0,208(sp)
    15d4:	5f5f 3120       	0x5f0031205f5f

000015d9 <.LASF78>:
    15d9:	5f5f 7063 5f70      	0x5f7070635f5f
    15df:	7375                	lui	t1,0xffffd
    15e1:	7265                	lui	tp,0xffff9
    15e3:	645f 6665 6e69      	0x6e696665645f
    15e9:	6465                	lui	s0,0x19
    15eb:	6c5f 7469 7265      	0x726574696c5f
    15f1:	6c61                	lui	s8,0x18
    15f3:	30322073          	csrs	mideleg,tp
    15f7:	3830                	fld	fa2,112(s0)
    15f9:	3930                	fld	fa2,112(a0)
    15fb:	004c                	addi	a1,sp,4

000015fd <.LASF498>:
    15fd:	475f 494c 4342      	0x4342494c475f
    1603:	5858                	lw	a4,52(s0)
    1605:	485f 5641 5f45      	0x5f455641485f
    160b:	4e45                	li	t3,17
    160d:	2052534f          	fnmadd.s	ft6,ft4,ft5,ft4,unknown
    1611:	0031                	c.nop	12

00001613 <.LASF7>:
    1613:	5f5f 4e47 4355      	0x43554e475f5f
    1619:	505f 5441 4843      	0x48435441505f
    161f:	454c                	lw	a1,12(a0)
    1621:	4556                	lw	a0,84(sp)
    1623:	5f4c                	lw	a1,60(a4)
    1625:	205f 0030       	0x505f0030205f

00001629 <.LASF475>:
    1629:	505f 5453 5f4c      	0x5f4c5453505f
    162f:	5355                	li	t1,-11
    1631:	5f45                	li	t5,-15
    1633:	4f4e                	lw	t5,208(sp)
    1635:	544e                	lw	s0,240(sp)
    1637:	4d45                	li	s10,17
    1639:	4f50                	lw	a2,28(a4)
    163b:	4152                	lw	sp,20(sp)
    163d:	5f4c                	lw	a1,60(a4)
    163f:	524f5453          	0x524f5453
    1643:	5345                	li	t1,-15
    1645:	495f 5f46 4c41      	0x4c415f46495f
    164b:	4f4c                	lw	a1,28(a4)
    164d:	20444557          	0x20444557
	...

00001652 <.LASF176>:
    1652:	5f5f 4955 544e      	0x544e49555f5f
    1658:	4c5f 4145 5453      	0x545341454c5f
    165e:	3631                	jal	116a <.LASF245+0x3b>
    1660:	4d5f 5841 5f5f      	0x5f5f58414d5f
    1666:	3020                	fld	fs0,96(s0)
    1668:	6678                	flw	fa4,76(a2)
    166a:	6666                	flw	fa2,88(sp)
    166c:	0066                	c.slli	zero,0x19

0000166e <.LASF397>:
    166e:	475f 494c 4342      	0x4342494c475f
    1674:	5858                	lw	a4,52(s0)
    1676:	495f 4c4e 4e49      	0x4e494c4e495f
    167c:	5f45                	li	t5,-15
    167e:	4556                	lw	a0,84(sp)
    1680:	5352                	lw	t1,52(sp)
    1682:	4f49                	li	t5,18
    1684:	204e                	fld	ft0,208(sp)
    1686:	0030                	addi	a2,sp,8

00001688 <.LASF543>:
    1688:	475f 494c 4342      	0x4342494c475f
    168e:	5858                	lw	a4,52(s0)
    1690:	485f 5641 5f45      	0x5f455641485f
    1696:	4f50                	lw	a2,28(a4)
    1698:	31204657          	0x31204657
	...

0000169d <.LASF614>:
    169d:	535f 4454 4e49      	0x4e494454535f
    16a3:	5f54                	lw	a3,60(a4)
    16a5:	2048                	fld	fa0,128(s0)
	...

000016a8 <.LASF510>:
    16a8:	475f 494c 4342      	0x4342494c475f
    16ae:	5858                	lw	a4,52(s0)
    16b0:	485f 5641 5f45      	0x5f455641485f
    16b6:	5845                	li	a6,-15
    16b8:	4650                	lw	a2,12(a2)
    16ba:	3120                	fld	fs0,96(a0)
	...

000016bd <.LASF109>:
    16bd:	5f5f 7063 5f70      	0x5f7070635f5f
    16c3:	6e69                	lui	t3,0x1a
    16c5:	696c                	flw	fa1,84(a0)
    16c7:	656e                	flw	fa0,216(sp)
    16c9:	765f 7261 6169      	0x61697261765f
    16cf:	6c62                	flw	fs8,24(sp)
    16d1:	7365                	lui	t1,0xffff9
    16d3:	3220                	fld	fs0,96(a2)
    16d5:	3130                	fld	fa2,96(a0)
    16d7:	3036                	fld	ft0,360(sp)
    16d9:	4c36                	lw	s8,76(sp)
	...

000016dc <.LASF269>:
    16dc:	5f5f 4c46 3654      	0x36544c465f5f
    16e2:	5f34                	lw	a3,120(a4)
    16e4:	414d                	li	sp,19
    16e6:	5f58                	lw	a4,60(a4)
    16e8:	3031                	jal	ef4 <.LASF505+0x5>
    16ea:	455f 5058 5f5f      	0x5f5f5058455f
    16f0:	3320                	fld	fs0,96(a4)
    16f2:	3830                	fld	fa2,112(s0)
	...

000016f5 <.LASF508>:
    16f5:	475f 494c 4342      	0x4342494c475f
    16fb:	5858                	lw	a4,52(s0)
    16fd:	485f 5641 5f45      	0x5f455641485f
    1703:	5445                	li	s0,-15
    1705:	5458                	lw	a4,44(s0)
    1707:	5342                	lw	t1,48(sp)
    1709:	2059                	jal	178f <.LASF20>
    170b:	0031                	c.nop	12

0000170d <.LASF784>:
    170d:	5f5f 6975 746e      	0x746e69755f5f
    1713:	6c5f 6165 7473      	0x747361656c5f
    1719:	3631                	jal	1225 <.LASF824+0xb>
    171b:	745f        	0x535f5f00745f

0000171e <.LASF647>:
    171e:	5f5f 5453 4944      	0x494454535f5f
    1724:	544e                	lw	s0,240(sp)
    1726:	455f 5058 7828      	0x78285058455f
    172c:	2029                	jal	1736 <.LASF647+0x18>
    172e:	5f5f 2320 7823      	0x782323205f5f
    1734:	2320                	fld	fs0,64(a4)
    1736:	005f5f23          	0x5f5f23

0000173a <.LASF886>:
    173a:	6d6f682f          	0x6d6f682f
    173e:	2f65                	jal	1ef6 <.LASF741>
    1740:	6179                	addi	sp,sp,464
    1742:	442f6f67          	0x442f6f67
    1746:	6d75636f          	jal	t1,5861c <.LASF439+0x525ad>
    174a:	6e65                	lui	t3,0x19
    174c:	7374                	flw	fa3,100(a4)
    174e:	646f632f          	0x646f632f
    1752:	5f65                	li	t5,-7
    1754:	73656f67          	0x73656f67
    1758:	685f 7265 2f65      	0x2f657265685f
    175e:	32336467          	0x32336467
    1762:	5f76                	lw	t5,124(sp)
    1764:	6574                	flw	fa3,76(a0)
    1766:	622f7473          	csrrci	s0,0x622,30
    176a:	6975                	lui	s2,0x1d
    176c:	646c                	flw	fa1,76(s0)
	...

0000176f <.LASF768>:
    176f:	6e75                	lui	t3,0x1d
    1771:	6e676973          	csrrsi	s2,0x6e6,14
    1775:	6465                	lui	s0,0x19
    1777:	6320                	flw	fs0,64(a4)
    1779:	6168                	flw	fa0,68(a0)
    177b:	0072                	c.slli	zero,0x1c

0000177d <.LASF3>:
    177d:	5f5f 5453 4344      	0x434454535f5f
    1783:	555f 4654 335f      	0x335f4654555f
    1789:	5f32                	lw	t5,44(sp)
    178b:	205f 0031       	0x5f5f0031205f

0000178f <.LASF20>:
    178f:	5f5f 4953 455a      	0x455a49535f5f
    1795:	465f464f          	fnmadd.q	fa2,ft10,ft5,fs0,rmm
    1799:	4f4c                	lw	a1,28(a4)
    179b:	5441                	li	s0,-16
    179d:	5f5f 3420       	0x5f0034205f5f

000017a2 <.LASF259>:
    17a2:	5f5f 4c46 3354      	0x33544c465f5f
    17a8:	5f32                	lw	t5,44(sp)
    17aa:	5045                	c.li	zero,-15
    17ac:	4f4c4953          	0x4f4c4953
    17b0:	5f4e                	lw	t5,240(sp)
    17b2:	205f 2e31 3931      	0x39312e31205f
    17b8:	3032                	fld	ft0,296(sp)
    17ba:	3239                	jal	10c8 <.LASF321+0x15>
    17bc:	3938                	fld	fa4,112(a0)
    17be:	3535                	jal	15ea <.LASF78+0x11>
    17c0:	3730                	fld	fa2,104(a4)
    17c2:	3138                	fld	fa4,96(a0)
    17c4:	3532                	fld	fa0,296(sp)
    17c6:	3030                	fld	fa2,96(s0)
    17c8:	3030                	fld	fa2,96(s0)
    17ca:	3030                	fld	fa2,96(s0)
    17cc:	3030                	fld	fa2,96(s0)
    17ce:	3030                	fld	fa2,96(s0)
    17d0:	3030                	fld	fa2,96(s0)
    17d2:	3030                	fld	fa2,96(s0)
    17d4:	3030                	fld	fa2,96(s0)
    17d6:	3030                	fld	fa2,96(s0)
    17d8:	6530                	flw	fa2,72(a0)
    17da:	372d                	jal	1704 <.LASF508+0xf>
    17dc:	3346                	fld	ft6,112(sp)
    17de:	0032                	c.slli	zero,0xc

000017e0 <.LASF515>:
    17e0:	475f 494c 4342      	0x4342494c475f
    17e6:	5858                	lw	a4,52(s0)
    17e8:	485f 5641 5f45      	0x5f455641485f
    17ee:	4c46                	lw	s8,80(sp)
    17f0:	46524f4f          	fnmadd.q	ft10,ft4,ft5,fs0,rmm
    17f4:	3120                	fld	fs0,96(a0)
	...

000017f7 <.LASF208>:
    17f7:	5f5f 4c46 5f54      	0x5f544c465f5f
    17fd:	414d                	li	sp,19
    17ff:	5f58                	lw	a4,60(a4)
    1801:	3031                	jal	100d <.LASF149+0x8>
    1803:	455f 5058 5f5f      	0x5f5f5058455f
    1809:	3320                	fld	fs0,96(a4)
    180b:	0038                	addi	a4,sp,8

0000180d <.LASF440>:
    180d:	505f 5453 5f4c      	0x5f4c5453505f
    1813:	4150                	lw	a2,4(a0)
    1815:	5f52                	lw	t5,52(sp)
    1817:	4142                	lw	sp,16(sp)
    1819:	4e454b43          	fmadd.q	fs6,fa0,ft4,fs1,rmm
    181d:	5f44                	lw	s1,60(a4)
    181f:	49524553          	0x49524553
    1823:	4c41                	li	s8,16
    1825:	0020                	addi	s0,sp,8

00001827 <.LASF81>:
    1827:	5f5f 7063 5f70      	0x5f7070635f5f
    182d:	7461                	lui	s0,0xffff8
    182f:	7274                	flw	fa3,100(a2)
    1831:	6269                	lui	tp,0x1a
    1833:	7475                	lui	s0,0xffffd
    1835:	7365                	lui	t1,0xffff9
    1837:	3220                	fld	fs0,96(a2)
    1839:	3030                	fld	fa2,96(s0)
    183b:	3038                	fld	fa4,96(s0)
    183d:	4c39                	li	s8,14
	...

00001840 <.LASF884>:
    1840:	20554e47          	fmsub.s	ft8,fa0,ft5,ft4,rmm
    1844:	312b2b43          	fmadd.s	fs6,fs6,fs2,ft6,rdn
    1848:	30312037          	lui	zero,0x30312
    184c:	322e                	fld	ft4,232(sp)
    184e:	302e                	fld	ft0,232(sp)
    1850:	2d20                	fld	fs0,88(a0)
    1852:	616d                	addi	sp,sp,240
    1854:	6372                	flw	ft6,28(sp)
    1856:	3d68                	fld	fa0,248(a0)
    1858:	7672                	flw	fa2,60(sp)
    185a:	6d693233          	0x6d693233
    185e:	6361                	lui	t1,0x18
    1860:	2d20                	fld	fs0,88(a0)
    1862:	616d                	addi	sp,sp,240
    1864:	6962                	flw	fs2,24(sp)
    1866:	693d                	lui	s2,0xf
    1868:	706c                	flw	fa1,100(s0)
    186a:	2d203233          	0x2d203233
    186e:	636d                	lui	t1,0x1b
    1870:	6f6d                	lui	t5,0x1b
    1872:	6564                	flw	fs1,76(a0)
    1874:	3d6c                	fld	fa1,248(a0)
    1876:	656d                	lui	a0,0x1b
    1878:	6c64                	flw	fs1,92(s0)
    187a:	2d20776f          	jal	a4,8b4c <.LASF439+0x2add>
    187e:	746d                	lui	s0,0xffffb
    1880:	6e75                	lui	t3,0x1d
    1882:	3d65                	jal	173a <.LASF886>
    1884:	6f72                	flw	ft10,28(sp)
    1886:	74656b63          	bltu	a0,t1,1fdc <.LASF283+0xb>
    188a:	2d20                	fld	fs0,88(a0)
    188c:	616d                	addi	sp,sp,240
    188e:	6372                	flw	ft6,28(sp)
    1890:	3d68                	fld	fa0,248(a0)
    1892:	7672                	flw	fa2,60(sp)
    1894:	6d693233          	0x6d693233
    1898:	6361                	lui	t1,0x18
    189a:	2d20                	fld	fs0,88(a0)
    189c:	2d203367          	0x2d203367
    18a0:	2d20304f          	0x2d20304f
    18a4:	3d647473          	csrrci	s0,0x3d6,8
    18a8:	312b2b63          	0x312b2b63
    18ac:	          	lui	zero,0x5f5f0

000018ae <.LASF186>:
    18ae:	5f5f 4e49 5f54      	0x5f544e495f5f
    18b4:	4146                	lw	sp,80(sp)
    18b6:	32335453          	0x32335453
    18ba:	4d5f 5841 5f5f      	0x5f5f58414d5f
    18c0:	3020                	fld	fs0,96(s0)
    18c2:	3778                	fld	fa4,232(a4)
    18c4:	6666                	flw	fa2,88(sp)
    18c6:	6666                	flw	fa2,88(sp)
    18c8:	6666                	flw	fa2,88(sp)
    18ca:	0066                	c.slli	zero,0x19

000018cc <.LASF578>:
    18cc:	475f 494c 4342      	0x4342494c475f
    18d2:	5858                	lw	a4,52(s0)
    18d4:	505f 4341 414b      	0x414b4341505f
    18da:	545f4547          	0x545f4547
    18de:	5241                	li	tp,-16
    18e0:	414e                	lw	sp,208(sp)
    18e2:	454d                	li	a0,19
    18e4:	2220                	fld	fs0,64(a2)
    18e6:	696c                	flw	fa1,84(a0)
    18e8:	7362                	flw	ft6,56(sp)
    18ea:	6474                	flw	fa3,76(s0)
    18ec:	222b2b63          	0x222b2b63
	...

000018f1 <.LASF461>:
    18f1:	505f 5453 5f4c      	0x5f4c5453505f
    18f7:	31505043          	fmadd.s	ft0,ft0,fs5,ft6,unknown
    18fb:	58455f37          	lui	t5,0x58455
    18ff:	4345                	li	t1,17
    1901:	5455                	li	s0,-11
    1903:	4f49                	li	t5,18
    1905:	5f4e                	lw	t5,240(sp)
    1907:	4f50                	lw	a2,28(a4)
    1909:	494c                	lw	a1,20(a0)
    190b:	53454943          	fmadd.d	fs2,fa0,fs4,fa0,rmm
    190f:	505f 4552 4553      	0x45534552505f
    1915:	544e                	lw	s0,240(sp)
    1917:	2820                	fld	fs0,80(s0)
    1919:	4d5f 4353 565f      	0x565f43534d5f
    191f:	5245                	li	tp,-15
    1921:	3e20                	fld	fs0,120(a2)
    1923:	203d                	jal	1951 <.LASF828+0x10>
    1925:	3931                	jal	1541 <.LASF767+0x5>
    1927:	3231                	jal	1233 <.LASF289+0xd>
    1929:	0029                	c.nop	10

0000192b <.LASF159>:
    192b:	5f5f 4955 544e      	0x544e49555f5f
    1931:	3631                	jal	143d <.LASF361+0x5>
    1933:	4d5f 5841 5f5f      	0x5f5f58414d5f
    1939:	3020                	fld	fs0,96(s0)
    193b:	6678                	flw	fa4,76(a2)
    193d:	6666                	flw	fa2,88(sp)
    193f:	0066                	c.slli	zero,0x19

00001941 <.LASF828>:
    1941:	5a5f 334e 6373      	0x6373334e5a5f
    1947:	3168                	fld	fa0,224(a0)
    1949:	7330                	flw	fa2,96(a4)
    194b:	7270                	flw	fa2,100(a2)
    194d:	635f636f          	jal	t1,f8781 <.LASF439+0xf2712>
    1951:	7275                	lui	tp,0xffffd
    1953:	4572                	lw	a0,28(sp)
	...

00001956 <.LASF781>:
    1956:	5f5f 6e69 5f74      	0x5f746e695f5f
    195c:	656c                	flw	fa1,76(a0)
    195e:	7361                	lui	t1,0xffff8
    1960:	3874                	fld	fa3,240(s0)
    1962:	745f        	0x2f2e2e00745f

00001965 <.LASF885>:
    1965:	2e2e                	fld	ft8,200(sp)
    1967:	6372732f          	0x6372732f
    196b:	6863732f          	0x6863732f
    196f:	3476                	fld	fs0,376(sp)
    1971:	632e                	flw	ft6,200(sp)
    1973:	7070                	flw	fa2,100(s0)
	...

00001976 <.LASF630>:
    1976:	5f5f 4f50 4953      	0x49534f505f5f
    197c:	5f58                	lw	a4,60(a4)
    197e:	4956                	lw	s2,84(sp)
    1980:	4c424953          	0x4c424953
    1984:	2045                	jal	1a24 <.LASF360+0x3>
    1986:	0030                	addi	a2,sp,8

00001988 <.LASF595>:
    1988:	475f 494c 4342      	0x4342494c475f
    198e:	5858                	lw	a4,52(s0)
    1990:	535f 5a49 5f45      	0x5f455a49535f
    1996:	5f54                	lw	a3,60(a4)
    1998:	5349                	li	t1,-14
    199a:	555f 4e49 2054      	0x20544e49555f
    19a0:	0031                	c.nop	12

000019a2 <.LASF701>:
    19a2:	5f5f 6e69 5f74      	0x5f746e695f5f
    19a8:	6166                	flw	ft2,88(sp)
    19aa:	34367473          	csrrci	s0,mtval,12
    19ae:	745f 645f 6665      	0x6665645f745f
    19b4:	6e69                	lui	t3,0x1a
    19b6:	6465                	lui	s0,0x19
    19b8:	3120                	fld	fs0,96(a0)
	...

000019bb <.LASF89>:
    19bb:	5f5f 7063 5f70      	0x5f7070635f5f
    19c1:	6572                	flw	fa0,28(sp)
    19c3:	5f66                	lw	t5,120(sp)
    19c5:	7571                	lui	a0,0xffffc
    19c7:	6c61                	lui	s8,0x18
    19c9:	6669                	lui	a2,0x1a
    19cb:	6569                	lui	a0,0x1a
    19cd:	7372                	flw	ft6,60(sp)
    19cf:	3220                	fld	fs0,96(a2)
    19d1:	3030                	fld	fa2,96(s0)
    19d3:	4c303137          	lui	sp,0x4c303
	...

000019d8 <.LASF237>:
    19d8:	5f5f 444c 4c42      	0x4c42444c5f5f
    19de:	4d5f 5841 455f      	0x455f58414d5f
    19e4:	5058                	lw	a4,36(s0)
    19e6:	5f5f 3120 3336      	0x333631205f5f
    19ec:	3438                	fld	fa4,104(s0)
	...

000019ef <.LASF723>:
    19ef:	4e49                	li	t3,18
    19f1:	3654                	fld	fa3,168(a2)
    19f3:	5f34                	lw	a3,120(a4)
    19f5:	494d                	li	s2,19
    19f7:	204e                	fld	ft0,208(sp)
    19f9:	2d28                	fld	fa0,88(a0)
    19fb:	5f5f 4e49 3654      	0x36544e495f5f
    1a01:	5f34                	lw	a3,120(a4)
    1a03:	414d                	li	sp,19
    1a05:	5f58                	lw	a4,60(a4)
    1a07:	205f 202d 2931      	0x2931202d205f
	...

00001a0e <.LASF19>:
    1a0e:	5f5f 4953 455a      	0x455a49535f5f
    1a14:	535f464f          	fnmadd.d	fa2,ft10,fs5,fa0,rmm
    1a18:	4f48                	lw	a0,28(a4)
    1a1a:	5452                	lw	s0,52(sp)
    1a1c:	5f5f 3220       	0x530032205f5f

00001a21 <.LASF360>:
    1a21:	56484353          	0x56484353
    1a25:	5f34                	lw	a3,120(a4)
    1a27:	2048                	fld	fa0,128(s0)
	...

00001a2a <.LASF328>:
    1a2a:	5f5f 5453 4952      	0x495254535f5f
    1a30:	415f5443          	fmadd.s	fs0,ft10,fs5,fs0,unknown
    1a34:	534e                	lw	t1,240(sp)
    1a36:	5f49                	li	t5,-14
    1a38:	205f 0031       	0x475f0031205f

00001a3c <.LASF606>:
    1a3c:	475f 494c 4342      	0x4342494c475f
    1a42:	5858                	lw	a4,52(s0)
    1a44:	555f 4553 545f      	0x545f4553555f
    1a4a:	504d                	c.li	zero,-13
    1a4c:	414e                	lw	sp,208(sp)
    1a4e:	204d                	jal	1af0 <.LASF288+0x2a>
    1a50:	0031                	c.nop	12

00001a52 <.LASF702>:
    1a52:	4e49                	li	t3,18
    1a54:	5054                	lw	a3,36(s0)
    1a56:	5254                	lw	a3,36(a2)
    1a58:	4d5f 4e49 2820      	0x28204e494d5f
    1a5e:	5f2d                	li	t5,-21
    1a60:	495f 544e 5450      	0x5450544e495f
    1a66:	5f52                	lw	t5,52(sp)
    1a68:	414d                	li	sp,19
    1a6a:	5f58                	lw	a4,60(a4)
    1a6c:	205f 202d 2931      	0x2931202d205f
	...

00001a73 <.LASF553>:
    1a73:	475f 494c 4342      	0x4342494c475f
    1a79:	5858                	lw	a4,52(s0)
    1a7b:	485f 5641 5f45      	0x5f455641485f
    1a81:	49525453          	0x49525453
    1a85:	474e                	lw	a4,208(sp)
    1a87:	20485f53          	0x20485f53
    1a8b:	0031                	c.nop	12

00001a8d <.LASF110>:
    1a8d:	5f5f 7063 5f70      	0x5f7070635f5f
    1a93:	6761                	lui	a4,0x18
    1a95:	67657267          	0x67657267
    1a99:	7461                	lui	s0,0xffff8
    1a9b:	5f65                	li	t5,-7
    1a9d:	6162                	flw	ft2,24(sp)
    1a9f:	20736573          	csrrsi	a0,0x207,6
    1aa3:	3032                	fld	ft0,296(sp)
    1aa5:	3631                	jal	15b1 <.LASF377+0x10>
    1aa7:	3330                	fld	fa2,96(a4)
    1aa9:	004c                	addi	a1,sp,4

00001aab <.LASF559>:
    1aab:	475f 494c 4342      	0x4342494c475f
    1ab1:	5858                	lw	a4,52(s0)
    1ab3:	485f 5641 5f45      	0x5f455641485f
    1ab9:	5f535953          	0x5f535953
    1abd:	4954                	lw	a3,20(a0)
    1abf:	454d                	li	a0,19
    1ac1:	485f 3120       	0x5f003120485f

00001ac6 <.LASF288>:
    1ac6:	5f5f 4c46 3154      	0x31544c465f5f
    1acc:	3832                	fld	fa6,296(sp)
    1ace:	4d5f 4e49 5f5f      	0x5f5f4e494d5f
    1ad4:	3320                	fld	fs0,96(a4)
    1ad6:	332e                	fld	ft6,232(sp)
    1ad8:	3236                	fld	ft4,360(sp)
    1ada:	3031                	jal	12e6 <.LASF380+0xe>
    1adc:	33343133          	0x33343133
    1ae0:	3131                	jal	16ec <.LASF269+0x10>
    1ae2:	3032                	fld	ft0,296(sp)
    1ae4:	3339                	jal	17f2 <.LASF515+0x12>
    1ae6:	3035                	jal	1312 <.LASF121+0x24>
    1ae8:	3236                	fld	ft4,360(sp)
    1aea:	3236                	fld	ft4,360(sp)
    1aec:	3736                	fld	fa4,360(sp)
    1aee:	37313837          	lui	a6,0x37313
    1af2:	37313233          	0x37313233
    1af6:	3235                	jal	1422 <.LASF628>
    1af8:	3036                	fld	ft0,360(sp)
    1afa:	2d65                	jal	21b2 <.LASF695+0xc>
    1afc:	3934                	fld	fa3,112(a0)
    1afe:	31463233          	0x31463233
    1b02:	3832                	fld	fa6,296(sp)
	...

00001b05 <.LASF460>:
    1b05:	505f 5453 5f4c      	0x5f4c5453505f
    1b0b:	5250                	lw	a2,36(a2)
    1b0d:	4741                	li	a4,16
    1b0f:	414d                	li	sp,19
    1b11:	535f 4d49 5f44      	0x5f444d49535f
    1b17:	5845                	li	a6,-15
    1b19:	53554c43          	fmadd.d	fs8,fa0,fs5,fa0,rmm
    1b1d:	5649                	li	a2,-14
    1b1f:	5f45                	li	t5,-15
    1b21:	4e414353          	0x4e414353
    1b25:	5028                	lw	a0,96(s0)
    1b27:	4d52                	lw	s10,20(sp)
    1b29:	2029                	jal	1b33 <.LASF460+0x2e>
    1b2b:	505f 5453 5f4c      	0x5f4c5453505f
    1b31:	5250                	lw	a2,36(a2)
    1b33:	4741                	li	a4,16
    1b35:	414d                	li	sp,19
    1b37:	6f28                	flw	fa0,88(a4)
    1b39:	706d                	c.lui	zero,0xffffb
    1b3b:	7320                	flw	fs0,96(a4)
    1b3d:	206e6163          	bltu	t3,t1,1d3f <.LASF480+0x3a>
    1b41:	7865                	lui	a6,0xffff9
    1b43:	73756c63          	bltu	a0,s7,227b <.LASF408+0x15>
    1b47:	7669                	lui	a2,0xffffa
    1b49:	2865                	jal	1c01 <.LASF387+0xe>
    1b4b:	5250                	lw	a2,36(a2)
    1b4d:	294d                	jal	1fff <.LASF734+0x7>
    1b4f:	0029                	c.nop	10

00001b51 <.LASF238>:
    1b51:	5f5f 444c 4c42      	0x4c42444c5f5f
    1b57:	4d5f 5841 315f      	0x315f58414d5f
    1b5d:	5f30                	lw	a2,120(a4)
    1b5f:	5845                	li	a6,-15
    1b61:	5f50                	lw	a2,60(a4)
    1b63:	205f 3934 3233      	0x32333934205f
	...

00001b6a <.LASF343>:
    1b6a:	5f5f 5250 4741      	0x474152505f5f
    1b70:	414d                	li	sp,19
    1b72:	525f 4445 4645      	0x46454445525f
    1b78:	4e49                	li	t3,18
    1b7a:	5f45                	li	t5,-15
    1b7c:	5845                	li	a6,-15
    1b7e:	4e54                	lw	a3,28(a2)
    1b80:	4d41                	li	s10,16
    1b82:	2045                	jal	1c22 <.LASF826+0x2>
    1b84:	0031                	c.nop	12

00001b86 <.LASF650>:
    1b86:	72616863          	bltu	sp,t1,22b6 <.LASF684+0x6>
	...

00001b8b <.LASF534>:
    1b8b:	475f 494c 4342      	0x4342494c475f
    1b91:	5858                	lw	a4,52(s0)
    1b93:	485f 5641 5f45      	0x5f455641485f
    1b99:	4f4c                	lw	a1,28(a4)
    1b9b:	454c4143          	0x454c4143
    1b9f:	485f 3120       	0x5f003120485f

00001ba4 <.LASF542>:
    1ba4:	475f 494c 4342      	0x4342494c475f
    1baa:	5858                	lw	a4,52(s0)
    1bac:	485f 5641 5f45      	0x5f455641485f
    1bb2:	4f4d                	li	t5,19
    1bb4:	4644                	lw	s1,12(a2)
    1bb6:	2046                	fld	ft0,80(sp)
    1bb8:	0031                	c.nop	12

00001bba <.LASF761>:
    1bba:	4e49                	li	t3,18
    1bbc:	4d54                	lw	a3,28(a0)
    1bbe:	5841                	li	a6,-16
    1bc0:	435f 7828 2029      	0x20297828435f
    1bc6:	5f5f 4e49 4d54      	0x4d544e495f5f
    1bcc:	5841                	li	a6,-16
    1bce:	435f 7828 0029      	0x297828435f

00001bd4 <.LASF748>:
    1bd4:	5450                	lw	a2,44(s0)
    1bd6:	4452                	lw	s0,20(sp)
    1bd8:	4649                	li	a2,18
    1bda:	5f46                	lw	t5,112(sp)
    1bdc:	494d                	li	s2,19
    1bde:	204e                	fld	ft0,208(sp)
    1be0:	2d28                	fld	fa0,88(a0)
    1be2:	5450                	lw	a2,44(s0)
    1be4:	4452                	lw	s0,20(sp)
    1be6:	4649                	li	a2,18
    1be8:	5f46                	lw	t5,112(sp)
    1bea:	414d                	li	sp,19
    1bec:	2058                	fld	fa4,128(s0)
    1bee:	202d                	jal	1c18 <.LASF387+0x25>
    1bf0:	2931                	jal	200c <.LASF734+0x14>
	...

00001bf3 <.LASF387>:
    1bf3:	475f 494c 4342      	0x4342494c475f
    1bf9:	5858                	lw	a4,52(s0)
    1bfb:	545f 5248 574f      	0x574f5248545f
    1c01:	4f5f 5f52 4241      	0x42415f524f5f
    1c07:	2854524f          	fnmadd.s	ft4,fs0,ft5,ft5,unknown
    1c0b:	455f 4358 2029      	0x20294358455f
    1c11:	7428                	flw	fa0,104(s0)
    1c13:	7268                	flw	fa0,100(a2)
    1c15:	2820776f          	jal	a4,8e97 <.LASF439+0x2e28>
    1c19:	455f 4358 2929      	0x29294358455f
	...

00001c20 <.LASF826>:
    1c20:	5a5f 334e 6373      	0x6373334e5a5f
    1c26:	3168                	fld	fa0,224(a0)
    1c28:	7331                	lui	t1,0xfffec
    1c2a:	7270                	flw	fa2,100(a2)
    1c2c:	725f636f          	jal	t1,f8b50 <.LASF439+0xf2ae1>
    1c30:	6165                	addi	sp,sp,112
    1c32:	7964                	flw	fs1,116(a0)
    1c34:	0045                	c.nop	17

00001c36 <.LASF65>:
    1c36:	5f5f 4955 544e      	0x544e49555f5f
    1c3c:	465f 5341 3654      	0x36545341465f
    1c42:	5f34                	lw	a3,120(a4)
    1c44:	5954                	lw	a3,52(a0)
    1c46:	4550                	lw	a2,12(a0)
    1c48:	5f5f 6c20 6e6f      	0x6e6f6c205f5f
    1c4e:	6f6c2067          	0x6f6c2067
    1c52:	676e                	flw	fa4,216(sp)
    1c54:	7520                	flw	fs0,104(a0)
    1c56:	736e                	flw	ft6,248(sp)
    1c58:	6769                	lui	a4,0x1a
    1c5a:	656e                	flw	fa0,216(sp)
    1c5c:	2064                	fld	fs1,192(s0)
    1c5e:	6e69                	lui	t3,0x1a
    1c60:	0074                	addi	a3,sp,12

00001c62 <.LASF868>:
    1c62:	6564                	flw	fs1,76(a0)
    1c64:	616c                	flw	fa1,68(a0)
    1c66:	5f79                	li	t5,-2
    1c68:	6361                	lui	t1,0x18
    1c6a:	756d7563          	bgeu	s10,s6,23b4 <.LASF263+0x14>
    1c6e:	616c                	flw	fa1,68(a0)
    1c70:	6574                	flw	fa3,76(a0)
    1c72:	0064                	addi	s1,sp,12

00001c74 <.LASF432>:
    1c74:	475f 494c 4342      	0x4342494c475f
    1c7a:	5858                	lw	a4,52(s0)
    1c7c:	555f 4553 435f      	0x435f4553555f
    1c82:	3939                	jal	18a0 <.LASF884+0x60>
    1c84:	535f 4454 494c      	0x494c4454535f
    1c8a:	2042                	fld	ft0,16(sp)
    1c8c:	475f 494c 4342      	0x4342494c475f
    1c92:	5858                	lw	a4,52(s0)
    1c94:	3131                	jal	18a0 <.LASF884+0x60>
    1c96:	555f 4553 435f      	0x435f4553555f
    1c9c:	3939                	jal	18ba <.LASF186+0xc>
    1c9e:	535f 4454 494c      	0x494c4454535f
    1ca4:	0042                	c.slli	zero,0x10

00001ca6 <.LASF827>:
    1ca6:	6f727073          	csrci	0x6f7,4
    1caa:	75635f63          	bge	t1,s6,2408 <.LASF788+0x10>
    1cae:	7272                	flw	ft4,60(sp)
	...

00001cb1 <.LASF819>:
    1cb1:	6975                	lui	s2,0x1d
    1cb3:	746e                	flw	fs0,248(sp)
    1cb5:	665f 7361 3374      	0x33747361665f
    1cbb:	5f32                	lw	t5,44(sp)
    1cbd:	0074                	addi	a3,sp,12

00001cbf <.LASF522>:
    1cbf:	475f 494c 4342      	0x4342494c475f
    1cc5:	5858                	lw	a4,52(s0)
    1cc7:	485f 5641 5f45      	0x5f455641485f
    1ccd:	4549                	li	a0,18
    1ccf:	4545                	li	a0,17
    1cd1:	5046                	0x5046
    1cd3:	485f 3120       	0x5f003120485f

00001cd8 <.LASF529>:
    1cd8:	475f 494c 4342      	0x4342494c475f
    1cde:	5858                	lw	a4,52(s0)
    1ce0:	485f 5641 5f45      	0x5f455641485f
    1ce6:	494c                	lw	a1,20(a0)
    1ce8:	494d                	li	s2,19
    1cea:	5f54                	lw	a3,60(a4)
    1cec:	5341                	li	t1,-16
    1cee:	3020                	fld	fs0,96(s0)
	...

00001cf1 <.LASF469>:
    1cf1:	505f 5453 5f4c      	0x5f4c5453505f
    1cf7:	4455                	li	s0,21
    1cf9:	52505f53          	0x52505f53
    1cfd:	5345                	li	t1,-15
    1cff:	4e45                	li	t3,17
    1d01:	2054                	fld	fa3,128(s0)
    1d03:	0031                	c.nop	12

00001d05 <.LASF480>:
    1d05:	505f 5453 5f4c      	0x5f4c5453505f
    1d0b:	31505043          	fmadd.s	ft0,ft0,fs5,ft6,unknown
    1d0f:	5f31                	li	t5,-20
    1d11:	5f445453          	0x5f445453
    1d15:	4f52                	lw	t5,20(sp)
    1d17:	4154                	lw	a3,4(a0)
    1d19:	4554                	lw	a3,12(a0)
    1d1b:	425f 4f52 454b      	0x454b4f52425f
    1d21:	204e                	fld	ft0,208(sp)
    1d23:	2828                	fld	fa0,80(s0)
    1d25:	5f5f 4c47 4249      	0x42494c475f5f
    1d2b:	5f585843          	fmadd.q	fa6,fa6,fs5,fa1,unknown
    1d2f:	205f 2626 5f20      	0x5f202626205f
    1d35:	475f 494c 4342      	0x4342494c475f
    1d3b:	5858                	lw	a4,52(s0)
    1d3d:	5f5f 3c20 3220      	0x32203c205f5f
    1d43:	3130                	fld	fa2,96(a0)
    1d45:	3035                	jal	1571 <.LASF467+0x21>
    1d47:	29363137          	lui	sp,0x29363
    1d4b:	7c20                	flw	fs0,120(s0)
    1d4d:	207c                	fld	fa5,192(s0)
    1d4f:	5f28                	lw	a0,120(a4)
    1d51:	534d                	li	t1,-13
    1d53:	45565f43          	0x45565f43
    1d57:	2052                	fld	ft0,272(sp)
    1d59:	2626                	fld	fa2,72(sp)
    1d5b:	5f20                	lw	s0,120(a4)
    1d5d:	534d                	li	t1,-13
    1d5f:	45565f43          	0x45565f43
    1d63:	2052                	fld	ft0,272(sp)
    1d65:	203c                	fld	fa5,64(s0)
    1d67:	3831                	jal	1583 <.LASF73>
    1d69:	3030                	fld	fa2,96(s0)
    1d6b:	2929                	jal	2185 <.LASF430+0x13>
	...

00001d6e <.LASF811>:
    1d6e:	6975                	lui	s2,0x1d
    1d70:	746e                	flw	fs0,248(sp)
    1d72:	6c5f 6165 7473      	0x747361656c5f
    1d78:	745f3233          	0x745f3233
	...

00001d7d <.LASF746>:
    1d7d:	5f474953          	0x5f474953
    1d81:	5441                	li	s0,-16
    1d83:	43494d4f          	fnmadd.d	fs10,fs2,fs4,fs0,rmm
    1d87:	4d5f 5841 2820      	0x282058414d5f
    1d8d:	5f5f 5453 4944      	0x494454535f5f
    1d93:	544e                	lw	s0,240(sp)
    1d95:	455f 5058 4928      	0x49285058455f
    1d9b:	544e                	lw	s0,240(sp)
    1d9d:	4d5f 5841 2929      	0x292958414d5f
	...

00001da4 <.LASF548>:
    1da4:	475f 494c 4342      	0x4342494c475f
    1daa:	5858                	lw	a4,52(s0)
    1dac:	485f 5641 5f45      	0x5f455641485f
    1db2:	41445453          	0x41445453
    1db6:	494c                	lw	a1,20(a0)
    1db8:	485f4e47          	fmsub.s	ft8,ft10,ft5,fs1,rmm
    1dbc:	3120                	fld	fs0,96(a0)
	...

00001dbf <.LASF365>:
    1dbf:	475f 494c 4342      	0x4342494c475f
    1dc5:	5858                	lw	a4,52(s0)
    1dc7:	505f 5255 2045      	0x20455255505f
    1dcd:	5f5f 7461 7274      	0x727474615f5f
    1dd3:	6269                	lui	tp,0x1a
    1dd5:	7475                	lui	s0,0xffffd
    1dd7:	5f65                	li	t5,-7
    1dd9:	205f 2828 5f5f      	0x5f5f2828205f
    1ddf:	7570                	flw	fa2,108(a0)
    1de1:	6572                	flw	fa0,28(sp)
    1de3:	5f5f 2929       	0x5f0029295f5f

00001de8 <.LASF858>:
    1de8:	5a5f 374e 7073      	0x7073374e5a5f
    1dee:	6f72                	flw	ft10,28(sp)
    1df0:	44745f63          	bge	s0,t2,224e <.LASF357+0x4>
    1df4:	4534                	lw	a3,72(a0)
    1df6:	0076                	c.slli	zero,0x1d

00001df8 <.LASF834>:
    1df8:	70616373          	csrrsi	t1,0x706,2
    1dfc:	7574                	flw	fa3,108(a0)
    1dfe:	6572                	flw	fa0,28(sp)
	...

00001e01 <.LASF763>:
    1e01:	475f 4343 575f      	0x575f4343475f
    1e07:	4152                	lw	sp,20(sp)
    1e09:	5f50                	lw	a2,60(a4)
    1e0b:	49445453          	0x49445453
    1e0f:	544e                	lw	s0,240(sp)
    1e11:	485f 0020       	0x5f5f0020485f

00001e15 <.LASF169>:
    1e15:	5f5f 4e49 3354      	0x33544e495f5f
    1e1b:	5f32                	lw	t5,44(sp)
    1e1d:	29632843          	fmadd.s	fa6,ft6,fs6,ft5,rdn
    1e21:	6320                	flw	fs0,64(a4)
    1e23:	2320                	fld	fs0,64(a4)
    1e25:	004c2023          	sw	tp,0(s8) # 18000 <.LASF439+0x11f91>

00001e29 <.LASF771>:
    1e29:	5f5f 6975 746e      	0x746e69755f5f
    1e2f:	3631                	jal	193b <.LASF159+0x10>
    1e31:	745f        	0x4c475f00745f

00001e34 <.LASF509>:
    1e34:	475f 494c 4342      	0x4342494c475f
    1e3a:	5858                	lw	a4,52(s0)
    1e3c:	485f 5641 5f45      	0x5f455641485f
    1e42:	5745                	li	a4,-15
    1e44:	444c554f          	0x444c554f
    1e48:	4c42                	lw	s8,16(sp)
    1e4a:	204b434f          	fnmadd.s	ft6,fs6,ft4,ft4,rmm
    1e4e:	0031                	c.nop	12

00001e50 <.LASF158>:
    1e50:	5f5f 4955 544e      	0x544e49555f5f
    1e56:	5f38                	lw	a4,120(a4)
    1e58:	414d                	li	sp,19
    1e5a:	5f58                	lw	a4,60(a4)
    1e5c:	205f 7830 6666      	0x66667830205f
	...

00001e63 <.LASF638>:
    1e63:	5f5f 695f 746e      	0x746e695f5f5f
    1e69:	3631                	jal	1975 <.LASF885+0x10>
    1e6b:	745f 645f 6665      	0x6665645f745f
    1e71:	6e69                	lui	t3,0x1a
    1e73:	6465                	lui	s0,0x19
    1e75:	3120                	fld	fs0,96(a0)
	...

00001e78 <.LASF213>:
    1e78:	5f5f 4c46 5f54      	0x5f544c465f5f
    1e7e:	5045                	c.li	zero,-15
    1e80:	4f4c4953          	0x4f4c4953
    1e84:	5f4e                	lw	t5,240(sp)
    1e86:	205f 2e31 3931      	0x39312e31205f
    1e8c:	3032                	fld	ft0,296(sp)
    1e8e:	3239                	jal	179c <.LASF20+0xd>
    1e90:	3938                	fld	fa4,112(a0)
    1e92:	3535                	jal	1cbe <.LASF819+0xd>
    1e94:	3730                	fld	fa2,104(a4)
    1e96:	3138                	fld	fa4,96(a0)
    1e98:	3532                	fld	fa0,296(sp)
    1e9a:	3030                	fld	fa2,96(s0)
    1e9c:	3030                	fld	fa2,96(s0)
    1e9e:	3030                	fld	fa2,96(s0)
    1ea0:	3030                	fld	fa2,96(s0)
    1ea2:	3030                	fld	fa2,96(s0)
    1ea4:	3030                	fld	fa2,96(s0)
    1ea6:	3030                	fld	fa2,96(s0)
    1ea8:	3030                	fld	fa2,96(s0)
    1eaa:	3030                	fld	fa2,96(s0)
    1eac:	6530                	flw	fa2,72(a0)
    1eae:	372d                	jal	1dd8 <.LASF365+0x19>
    1eb0:	0046                	c.slli	zero,0x11

00001eb2 <.LASF680>:
    1eb2:	5f5f 6e69 3874      	0x38746e695f5f
    1eb8:	745f 645f 6665      	0x6665645f745f
    1ebe:	6e69                	lui	t3,0x1a
    1ec0:	6465                	lui	s0,0x19
    1ec2:	3120                	fld	fs0,96(a0)
	...

00001ec5 <.LASF230>:
    1ec5:	5f5f 4244 5f4c      	0x5f4c42445f5f
    1ecb:	4148                	lw	a0,4(a0)
    1ecd:	45445f53          	0x45445f53
    1ed1:	4f4e                	lw	t5,208(sp)
    1ed3:	4d52                	lw	s10,20(sp)
    1ed5:	5f5f 3120       	0x5f0031205f5f

00001eda <.LASF94>:
    1eda:	5f5f 7063 5f70      	0x5f7070635f5f
    1ee0:	6564                	flw	fs1,76(a0)
    1ee2:	79746c63          	bltu	s0,s7,267a <.LASF550+0xc>
    1ee6:	6570                	flw	fa2,76(a0)
    1ee8:	615f 7475 206f      	0x206f7475615f
    1eee:	3032                	fld	ft0,296(sp)
    1ef0:	3331                	jal	1bfc <.LASF387+0x9>
    1ef2:	3430                	fld	fa2,104(s0)
    1ef4:	004c                	addi	a1,sp,4

00001ef6 <.LASF741>:
    1ef6:	4e49                	li	t3,18
    1ef8:	4d54                	lw	a3,28(a0)
    1efa:	5841                	li	a6,-16
    1efc:	4d5f 5841 2820      	0x282058414d5f
    1f02:	5f5f 4e49 4d54      	0x4d544e495f5f
    1f08:	5841                	li	a6,-16
    1f0a:	4d5f 5841 5f5f      	0x5f5f58414d5f
    1f10:	0029                	c.nop	10

00001f12 <.LASF597>:
    1f12:	475f 494c 4342      	0x4342494c475f
    1f18:	5858                	lw	a4,52(s0)
    1f1a:	535f 4454 4f49      	0x4f494454535f
    1f20:	535f 4545 5f4b      	0x5f4b4545535f
    1f26:	20525543          	fmadd.s	fa0,ft4,ft5,ft4,unknown
    1f2a:	0031                	c.nop	12

00001f2c <.LASF867>:
    1f2c:	7270                	flw	fa2,100(a2)
    1f2e:	          	jal	t1,851e <.LASF439+0x24af>

00001f31 <.LASF336>:
    1f31:	5f5f 4347 5f43      	0x5f4343475f5f
    1f37:	5441                	li	s0,-16
    1f39:	43494d4f          	fnmadd.d	fs10,fs2,fs4,fs0,rmm
    1f3d:	535f 4f48 5452      	0x54524f48535f
    1f43:	4c5f 434f 5f4b      	0x5f4b434f4c5f
    1f49:	5246                	lw	tp,112(sp)
    1f4b:	4545                	li	a0,17
    1f4d:	3120                	fld	fs0,96(a0)
	...

00001f50 <.LASF496>:
    1f50:	475f 494c 4342      	0x4342494c475f
    1f56:	5858                	lw	a4,52(s0)
    1f58:	485f 5641 5f45      	0x5f455641485f
    1f5e:	4e45                	li	t3,17
    1f60:	4e494c4f          	fnmadd.q	fs8,fs2,ft4,fs1,rmm
    1f64:	0031204b          	fnmsub.s	ft0,ft2,ft3,ft0,rdn

00001f68 <.LASF125>:
    1f68:	5f5f 5847 5f58      	0x5f5858475f5f
    1f6e:	4241                	li	tp,16
    1f70:	5f49                	li	t5,-14
    1f72:	4556                	lw	a0,84(sp)
    1f74:	5352                	lw	t1,52(sp)
    1f76:	4f49                	li	t5,18
    1f78:	204e                	fld	ft0,208(sp)
    1f7a:	3031                	jal	1786 <.LASF3+0x9>
    1f7c:	3431                	jal	1988 <.LASF595>
	...

00001f7f <.LASF165>:
    1f7f:	5f5f 4e49 5f54      	0x5f544e495f5f
    1f85:	454c                	lw	a1,12(a0)
    1f87:	5341                	li	t1,-16
    1f89:	3154                	fld	fa3,160(a0)
    1f8b:	5f36                	lw	t5,108(sp)
    1f8d:	414d                	li	sp,19
    1f8f:	5f58                	lw	a4,60(a4)
    1f91:	205f 7830 6637      	0x66377830205f
    1f97:	6666                	flw	fa2,88(sp)
	...

00001f9a <.LASF642>:
    1f9a:	5f5f 695f 746e      	0x746e695f5f5f
    1fa0:	6c5f 6165 7473      	0x747361656c5f
    1fa6:	3631                	jal	1ab2 <.LASF559+0x7>
    1fa8:	745f 645f 6665      	0x6665645f745f
    1fae:	6e69                	lui	t3,0x1a
    1fb0:	6465                	lui	s0,0x19
    1fb2:	3120                	fld	fs0,96(a0)
	...

00001fb5 <.LASF113>:
    1fb5:	5f5f 7063 5f70      	0x5f7070635f5f
    1fbb:	6574                	flw	fa3,76(a0)
    1fbd:	706d                	c.lui	zero,0xffffb
    1fbf:	616c                	flw	fa1,68(a0)
    1fc1:	6574                	flw	fa3,76(a0)
    1fc3:	615f 7475 206f      	0x206f7475615f
    1fc9:	3032                	fld	ft0,296(sp)
    1fcb:	3631                	jal	1ad7 <.LASF288+0x11>
    1fcd:	3630                	fld	fa2,104(a2)
    1fcf:	004c                	addi	a1,sp,4

00001fd1 <.LASF283>:
    1fd1:	5f5f 4c46 3154      	0x31544c465f5f
    1fd7:	3832                	fld	fa6,296(sp)
    1fd9:	4d5f 5841 455f      	0x455f58414d5f
    1fdf:	5058                	lw	a4,36(s0)
    1fe1:	5f5f 3120 3336      	0x333631205f5f
    1fe7:	3438                	fld	fa4,104(s0)
	...

00001fea <.LASF673>:
    1fea:	5f5f 454c 5341      	0x5341454c5f5f
    1ff0:	3854                	fld	fa3,176(s0)
    1ff2:	2220                	fld	fs0,64(a2)
    1ff4:	6868                	flw	fa0,84(s0)
    1ff6:	0022                	c.slli	zero,0x8

00001ff8 <.LASF734>:
    1ff8:	4955                	li	s2,21
    1ffa:	544e                	lw	s0,240(sp)
    1ffc:	465f 5341 3154      	0x31545341465f
    2002:	5f36                	lw	t5,108(sp)
    2004:	414d                	li	sp,19
    2006:	2058                	fld	fa4,128(s0)
    2008:	5f28                	lw	a0,120(a4)
    200a:	555f 4e49 5f54      	0x5f544e49555f
    2010:	4146                	lw	sp,80(sp)
    2012:	36315453          	0x36315453
    2016:	4d5f 5841 5f5f      	0x5f5f58414d5f
    201c:	0029                	c.nop	10

0000201e <.LASF808>:
    201e:	6e69                	lui	t3,0x1a
    2020:	5f74                	lw	a3,124(a4)
    2022:	656c                	flw	fa1,76(a0)
    2024:	7361                	lui	t1,0xffff8
    2026:	3174                	fld	fa3,224(a0)
    2028:	5f36                	lw	t5,108(sp)
    202a:	0074                	addi	a3,sp,12

0000202c <.LASF716>:
    202c:	4955                	li	s2,21
    202e:	544e                	lw	s0,240(sp)
    2030:	4c5f 4145 5453      	0x545341454c5f
    2036:	3631                	jal	1b42 <.LASF460+0x3d>
    2038:	4d5f 5841 2820      	0x282058414d5f
    203e:	5f5f 4955 544e      	0x544e49555f5f
    2044:	4c5f 4145 5453      	0x545341454c5f
    204a:	3631                	jal	1b56 <.LASF238+0x5>
    204c:	4d5f 5841 5f5f      	0x5f5f58414d5f
    2052:	0029                	c.nop	10

00002054 <.LASF179>:
    2054:	5f5f 4955 544e      	0x544e49555f5f
    205a:	435f3233          	0x435f3233
    205e:	6328                	flw	fa0,64(a4)
    2060:	2029                	jal	206a <.LASF463>
    2062:	23232063          	0x23232063
    2066:	5520                	lw	s0,104(a0)
    2068:	004c                	addi	a1,sp,4

0000206a <.LASF463>:
    206a:	505f 5453 5f4c      	0x5f4c5453505f
    2070:	31505043          	fmadd.s	ft0,ft0,fs5,ft6,unknown
    2074:	5f34                	lw	a3,120(a4)
    2076:	414d                	li	sp,19
    2078:	525f454b          	fnmsub.d	fa0,ft10,ft5,fa0,rmm
    207c:	5645                	li	a2,-15
    207e:	5245                	li	tp,-15
    2080:	495f4553          	0x495f4553
    2084:	4554                	lw	a3,12(a0)
    2086:	4152                	lw	sp,20(sp)
    2088:	4f54                	lw	a3,28(a4)
    208a:	5f52                	lw	t5,52(sp)
    208c:	5250                	lw	a2,36(a2)
    208e:	5345                	li	t1,-15
    2090:	4e45                	li	t3,17
    2092:	2054                	fld	fa3,128(s0)
    2094:	5f28                	lw	a0,120(a4)
    2096:	534d                	li	t1,-13
    2098:	45565f43          	0x45565f43
    209c:	2052                	fld	ft0,272(sp)
    209e:	3d3e                	fld	fs10,488(sp)
    20a0:	3120                	fld	fs0,96(a0)
    20a2:	3039                	jal	18b0 <.LASF186+0x2>
    20a4:	2030                	fld	fa2,64(s0)
    20a6:	7c7c                	flw	fa5,124(s0)
    20a8:	5f20                	lw	s0,120(a4)
    20aa:	635f 6c70 7375      	0x73756c70635f
    20b0:	6c70                	flw	fa2,92(s0)
    20b2:	7375                	lui	t1,0xffffd
    20b4:	3e20                	fld	fs0,120(a2)
    20b6:	203d                	jal	20e4 <.LASF463+0x7a>
    20b8:	3032                	fld	ft0,296(sp)
    20ba:	3431                	jal	1ac6 <.LASF288>
    20bc:	3230                	fld	fa2,96(a2)
    20be:	204c                	fld	fa1,128(s0)
    20c0:	7c7c                	flw	fa5,124(s0)
    20c2:	5f20                	lw	s0,120(a4)
    20c4:	635f 7070 6c5f      	0x6c5f7070635f
    20ca:	6269                	lui	tp,0x1a
    20cc:	6d5f 6b61 5f65      	0x5f656b616d5f
    20d2:	6572                	flw	fa0,28(sp)
    20d4:	6576                	flw	fa0,92(sp)
    20d6:	7372                	flw	ft6,60(sp)
    20d8:	5f65                	li	t5,-7
    20da:	7469                	lui	s0,0xffffa
    20dc:	7265                	lui	tp,0xffff9
    20de:	7461                	lui	s0,0xffff8
    20e0:	3d20726f          	jal	tp,94b2 <.LASF439+0x3443>
    20e4:	203d                	jal	2112 <.LASF375+0x24>
    20e6:	3032                	fld	ft0,296(sp)
    20e8:	3431                	jal	1af4 <.LASF288+0x2e>
    20ea:	3230                	fld	fa2,96(a2)
    20ec:	0029                	c.nop	10

000020ee <.LASF375>:
    20ee:	475f 494c 4342      	0x4342494c475f
    20f4:	5858                	lw	a4,52(s0)
    20f6:	4e5f 444f 5349      	0x5349444f4e5f
    20fc:	44524143          	0x44524143
    2100:	5b20                	lw	s0,112(a4)
    2102:	6e5f5f5b          	0x6e5f5f5b
    2106:	7369646f          	jal	s0,9883c <.LASF439+0x927cd>
    210a:	64726163          	bltu	tp,t2,274c <.LASF705+0x16>
    210e:	5f5f 5d5d       	0x5f005d5d5f5f

00002113 <.LASF395>:
    2113:	475f 494c 4342      	0x4342494c475f
    2119:	5858                	lw	a4,52(s0)
    211b:	455f 444e 4e5f      	0x4e5f444e455f
    2121:	4d41                	li	s10,16
    2123:	5345                	li	t1,-15
    2125:	4150                	lw	a2,4(a0)
    2127:	435f4543          	fmadd.d	fa0,ft10,fs5,fs0,rmm
    212b:	5858                	lw	a4,52(s0)
    212d:	3131                	jal	1d39 <.LASF480+0x34>
    212f:	7d20                	flw	fs0,120(a0)
	...

00002132 <.LASF409>:
    2132:	475f 494c 4342      	0x4342494c475f
    2138:	5858                	lw	a4,52(s0)
    213a:	455f 444e 4e5f      	0x4e5f444e455f
    2140:	4d41                	li	s10,16
    2142:	5345                	li	t1,-15
    2144:	4150                	lw	a2,4(a0)
    2146:	4c5f4543          	0x4c5f4543
    214a:	4244                	lw	s1,4(a2)
    214c:	204c                	fld	fa1,128(s0)
	...

0000214f <.LASF393>:
    214f:	475f 494c 4342      	0x4342494c475f
    2155:	5858                	lw	a4,52(s0)
    2157:	4e5f 4d41 5345      	0x53454d414e5f
    215d:	4150                	lw	a2,4(a0)
    215f:	435f4543          	fmadd.d	fa0,ft10,fs5,fs0,rmm
    2163:	5858                	lw	a4,52(s0)
    2165:	3131                	jal	1d71 <.LASF811+0x3>
    2167:	5f20                	lw	s0,120(a4)
    2169:	635f 7878 3131      	0x31317878635f
    216f:	3a3a                	fld	fs4,424(sp)
	...

00002172 <.LASF430>:
    2172:	475f 494c 4342      	0x4342494c475f
    2178:	5858                	lw	a4,52(s0)
    217a:	555f 4553 435f      	0x435f4553555f
    2180:	3939                	jal	1d9e <.LASF746+0x21>
    2182:	435f 4d4f 4c50      	0x4c504d4f435f
    2188:	5845                	li	a6,-15
    218a:	5f20                	lw	s0,120(a4)
    218c:	42494c47          	fmsub.d	fs8,fs2,ft4,fs0,rmm
    2190:	31585843          	fmadd.s	fa6,fa6,fs5,ft6,unknown
    2194:	5f31                	li	t5,-20
    2196:	5355                	li	t1,-11
    2198:	5f45                	li	t5,-15
    219a:	5f393943          	fmadd.q	fs2,fs2,fs3,fa1,rup
    219e:	504d4f43          	fmadd.s	ft10,fs10,ft4,fa0,rmm
    21a2:	454c                	lw	a1,12(a0)
    21a4:	0058                	addi	a4,sp,4

000021a6 <.LASF695>:
    21a6:	5f5f 6e69 5f74      	0x5f746e695f5f
    21ac:	656c                	flw	fa1,76(a0)
    21ae:	7361                	lui	t1,0xffff8
    21b0:	3174                	fld	fa3,224(a0)
    21b2:	5f36                	lw	t5,108(sp)
    21b4:	5f74                	lw	a3,124(a4)
    21b6:	6564                	flw	fs1,76(a0)
    21b8:	6966                	flw	fs2,88(sp)
    21ba:	656e                	flw	fa0,216(sp)
    21bc:	2064                	fld	fs1,192(s0)
    21be:	0031                	c.nop	12

000021c0 <.LASF721>:
    21c0:	4e49                	li	t3,18
    21c2:	5f54                	lw	a3,60(a4)
    21c4:	454c                	lw	a1,12(a0)
    21c6:	5341                	li	t1,-16
    21c8:	3354                	fld	fa3,160(a4)
    21ca:	5f32                	lw	t5,44(sp)
    21cc:	414d                	li	sp,19
    21ce:	2058                	fld	fa4,128(s0)
    21d0:	5f28                	lw	a0,120(a4)
    21d2:	495f 544e 4c5f      	0x4c5f544e495f
    21d8:	4145                	li	sp,17
    21da:	32335453          	0x32335453
    21de:	4d5f 5841 5f5f      	0x5f5f58414d5f
    21e4:	0029                	c.nop	10

000021e6 <.LASF524>:
    21e6:	475f 494c 4342      	0x4342494c475f
    21ec:	5858                	lw	a4,52(s0)
    21ee:	485f 5641 5f45      	0x5f455641485f
    21f4:	4e49                	li	t3,18
    21f6:	3654                	fld	fa3,168(a2)
    21f8:	5f34                	lw	a3,120(a4)
    21fa:	5f54                	lw	a3,60(a4)
    21fc:	4f4c                	lw	a1,28(a4)
    21fe:	474e                	lw	a4,208(sp)
    2200:	4c5f 4e4f 2047      	0x20474e4f4c5f
    2206:	0031                	c.nop	12

00002208 <.LASF468>:
    2208:	505f 5453 5f4c      	0x5f4c5453505f
    220e:	4455                	li	s0,21
    2210:	5f52                	lw	t5,52(sp)
    2212:	5250                	lw	a2,36(a2)
    2214:	5345                	li	t1,-15
    2216:	4e45                	li	t3,17
    2218:	2054                	fld	fa3,128(s0)
    221a:	0031                	c.nop	12

0000221c <.LASF117>:
    221c:	5f5f 7063 5f70      	0x5f7070635f5f
    2222:	6f6e                	flw	ft10,216(sp)
    2224:	746e                	flw	fs0,248(sp)
    2226:	7079                	c.lui	zero,0xffffe
    2228:	5f65                	li	t5,-7
    222a:	6574                	flw	fa3,76(a0)
    222c:	706d                	c.lui	zero,0xffffb
    222e:	616c                	flw	fa1,68(a0)
    2230:	6574                	flw	fa3,76(a0)
    2232:	705f 7261 6d61      	0x6d617261705f
    2238:	7465                	lui	s0,0xffff9
    223a:	7265                	lui	tp,0xffff9
    223c:	615f 7475 206f      	0x206f7475615f
    2242:	3032                	fld	ft0,296(sp)
    2244:	3631                	jal	1d50 <.LASF480+0x4b>
    2246:	3630                	fld	fa2,104(a2)
    2248:	004c                	addi	a1,sp,4

0000224a <.LASF357>:
    224a:	465f 524f 4954      	0x4954524f465f
    2250:	5946                	lw	s2,112(sp)
    2252:	535f 554f 4352      	0x4352554f535f
    2258:	2045                	jal	22f8 <.LASF340+0x5>
    225a:	0032                	c.slli	zero,0xc

0000225c <.LASF770>:
    225c:	726f6873          	csrrsi	a6,0x726,30
    2260:	2074                	fld	fa3,192(s0)
    2262:	6e69                	lui	t3,0x1a
    2264:	0074                	addi	a3,sp,12

00002266 <.LASF408>:
    2266:	475f 494c 4342      	0x4342494c475f
    226c:	5858                	lw	a4,52(s0)
    226e:	425f 4745 4e49      	0x4e494745425f
    2274:	4e5f 4d41 5345      	0x53454d414e5f
    227a:	4150                	lw	a2,4(a0)
    227c:	4c5f4543          	0x4c5f4543
    2280:	4244                	lw	s1,4(a2)
    2282:	204c                	fld	fa1,128(s0)
	...

00002285 <.LASF714>:
    2285:	4e49                	li	t3,18
    2287:	5f54                	lw	a3,60(a4)
    2289:	454c                	lw	a1,12(a0)
    228b:	5341                	li	t1,-16
    228d:	3154                	fld	fa3,160(a0)
    228f:	5f36                	lw	t5,108(sp)
    2291:	494d                	li	s2,19
    2293:	204e                	fld	ft0,208(sp)
    2295:	2d28                	fld	fa0,88(a0)
    2297:	5f5f 4e49 5f54      	0x5f544e495f5f
    229d:	454c                	lw	a1,12(a0)
    229f:	5341                	li	t1,-16
    22a1:	3154                	fld	fa3,160(a0)
    22a3:	5f36                	lw	t5,108(sp)
    22a5:	414d                	li	sp,19
    22a7:	5f58                	lw	a4,60(a4)
    22a9:	205f 202d 2931      	0x2931202d205f
	...

000022b0 <.LASF684>:
    22b0:	495f 544e 3233      	0x3233544e495f
    22b6:	545f 445f 4345      	0x4345445f545f
    22bc:	414c                	lw	a1,4(a0)
    22be:	4552                	lw	a0,20(sp)
    22c0:	2044                	fld	fs1,128(s0)
	...

000022c3 <.LASF431>:
    22c3:	475f 494c 4342      	0x4342494c475f
    22c9:	5858                	lw	a4,52(s0)
    22cb:	555f 4553 435f      	0x435f4553555f
    22d1:	3939                	jal	1eef <.LASF94+0x15>
    22d3:	535f 4454 4f49      	0x4f494454535f
    22d9:	5f20                	lw	s0,120(a4)
    22db:	42494c47          	fmsub.d	fs8,fs2,ft4,fs0,rmm
    22df:	31585843          	fmadd.s	fa6,fa6,fs5,ft6,unknown
    22e3:	5f31                	li	t5,-20
    22e5:	5355                	li	t1,-11
    22e7:	5f45                	li	t5,-15
    22e9:	5f393943          	fmadd.q	fs2,fs2,fs3,fa1,rup
    22ed:	49445453          	0x49445453
    22f1:	          	fnmadd.q	ft0,ft10,fs5,fa1,rne

000022f3 <.LASF340>:
    22f3:	5f5f 4347 5f43      	0x5f4343475f5f
    22f9:	5441                	li	s0,-16
    22fb:	43494d4f          	fnmadd.d	fs10,fs2,fs4,fs0,rmm
    22ff:	545f 5345 5f54      	0x5f545345545f
    2305:	4e41                	li	t3,16
    2307:	5f44                	lw	s1,60(a4)
    2309:	5f544553          	0x5f544553
    230d:	5254                	lw	a3,36(a2)
    230f:	4555                	li	a0,21
    2311:	4156                	lw	sp,84(sp)
    2313:	204c                	fld	fa1,128(s0)
    2315:	0031                	c.nop	12

00002317 <.LASF580>:
    2317:	475f 494c 4342      	0x4342494c475f
    231d:	5858                	lw	a4,52(s0)
    231f:	505f 4341 414b      	0x414b4341505f
    2325:	5f5f4547          	fmsub.q	fa0,ft10,fs5,fa1,rmm
    2329:	42494c47          	fmsub.d	fs8,fs2,ft4,fs0,rmm
    232d:	5f585843          	fmadd.q	fa6,fa6,fs5,fa1,unknown
    2331:	4556                	lw	a0,84(sp)
    2333:	5352                	lw	t1,52(sp)
    2335:	4f49                	li	t5,18
    2337:	204e                	fld	ft0,208(sp)
    2339:	7622                	flw	fa2,40(sp)
    233b:	7265                	lui	tp,0xffff9
    233d:	6e6f6973          	csrrsi	s2,0x6e6,30
    2341:	752d                	lui	a0,0xfffeb
    2343:	756e                	flw	fa0,248(sp)
    2345:	22646573          	csrrsi	a0,0x226,8
	...

0000234a <.LASF629>:
    234a:	5f5f 494d 4353      	0x4353494d5f5f
    2350:	565f 5349 4249      	0x42495349565f
    2356:	454c                	lw	a1,12(a0)
    2358:	3020                	fld	fs0,96(s0)
	...

0000235b <.LASF571>:
    235b:	475f 494c 4342      	0x4342494c475f
    2361:	5858                	lw	a4,52(s0)
    2363:	485f 5641 5f45      	0x5f455641485f
    2369:	41484357          	0x41484357
    236d:	5f52                	lw	t5,52(sp)
    236f:	2048                	fld	fa0,128(s0)
    2371:	0031                	c.nop	12

00002373 <.LASF839>:
    2373:	4e55                	li	t3,21
    2375:	4544                	lw	s1,12(a0)
    2377:	4946                	lw	s2,80(sp)
    2379:	454e                	lw	a0,208(sp)
    237b:	0044                	addi	s1,sp,4

0000237d <.LASF132>:
    237d:	5f5f 4357 4148      	0x414843575f5f
    2383:	5f52                	lw	t5,52(sp)
    2385:	494d                	li	s2,19
    2387:	5f4e                	lw	t5,240(sp)
    2389:	205f 2d28 5f5f      	0x5f5f2d28205f
    238f:	41484357          	0x41484357
    2393:	5f52                	lw	t5,52(sp)
    2395:	414d                	li	sp,19
    2397:	5f58                	lw	a4,60(a4)
    2399:	205f 202d 2931      	0x2931202d205f
	...

000023a0 <.LASF263>:
    23a0:	5f5f 4c46 3354      	0x33544c465f5f
    23a6:	5f32                	lw	t5,44(sp)
    23a8:	4148                	lw	a0,4(a0)
    23aa:	55515f53          	0x55515f53
    23ae:	4549                	li	a0,18
    23b0:	5f54                	lw	a3,60(a4)
    23b2:	414e                	lw	sp,208(sp)
    23b4:	5f4e                	lw	t5,240(sp)
    23b6:	205f 0031       	0x5f5f0031205f

000023ba <.LASF247>:
    23ba:	5f5f 444c 4c42      	0x4c42444c5f5f
    23c0:	485f 5341 495f      	0x495f5341485f
    23c6:	464e                	lw	a2,208(sp)
    23c8:	4e49                	li	t3,18
    23ca:	5449                	li	s0,-14
    23cc:	5f59                	li	t5,-10
    23ce:	205f 0031       	0x49550031205f

000023d2 <.LASF740>:
    23d2:	4955                	li	s2,21
    23d4:	544e                	lw	s0,240(sp)
    23d6:	465f 5341 3654      	0x36545341465f
    23dc:	5f34                	lw	a3,120(a4)
    23de:	414d                	li	sp,19
    23e0:	2058                	fld	fa4,128(s0)
    23e2:	5f28                	lw	a0,120(a4)
    23e4:	555f 4e49 5f54      	0x5f544e49555f
    23ea:	4146                	lw	sp,80(sp)
    23ec:	34365453          	0x34365453
    23f0:	4d5f 5841 5f5f      	0x5f5f58414d5f
    23f6:	0029                	c.nop	10

000023f8 <.LASF788>:
    23f8:	5f5f 6975 746e      	0x746e69755f5f
    23fe:	6c5f 6165 7473      	0x747361656c5f
    2404:	3436                	fld	fs0,360(sp)
    2406:	745f        	0x465f5f00745f

00002409 <.LASF299>:
    2409:	5f5f 4c46 3354      	0x33544c465f5f
    240f:	5832                	lw	a6,44(sp)
    2411:	4d5f 5841 315f      	0x315f58414d5f
    2417:	5f30                	lw	a2,120(a4)
    2419:	5845                	li	a6,-15
    241b:	5f50                	lw	a2,60(a4)
    241d:	205f 3033 0038      	0x383033205f

00002423 <.LASF536>:
    2423:	475f 494c 4342      	0x4342494c475f
    2429:	5858                	lw	a4,52(s0)
    242b:	485f 5641 5f45      	0x5f455641485f
    2431:	4f4c                	lw	a1,28(a4)
    2433:	31204647          	fmsub.s	fa2,ft0,fs2,ft6,rmm
	...

00002438 <.LASF887>:
    2438:	72617473          	csrrci	s0,0x726,2
    243c:	5f746567          	0x5f746567
    2440:	0074                	addi	a3,sp,12

00002442 <.LASF427>:
    2442:	475f 494c 4342      	0x4342494c475f
    2448:	5858                	lw	a4,52(s0)
    244a:	465f 5341 5f54      	0x5f545341465f
    2450:	414d                	li	sp,19
    2452:	4854                	lw	a3,20(s0)
    2454:	3020                	fld	fs0,96(s0)
	...

00002457 <.LASF156>:
    2457:	5f5f 4e49 3354      	0x33544e495f5f
    245d:	5f32                	lw	t5,44(sp)
    245f:	414d                	li	sp,19
    2461:	5f58                	lw	a4,60(a4)
    2463:	205f 7830 6637      	0x66377830205f
    2469:	6666                	flw	fa2,88(sp)
    246b:	6666                	flw	fa2,88(sp)
    246d:	6666                	flw	fa2,88(sp)
    246f:	004c                	addi	a1,sp,4

00002471 <.LASF412>:
    2471:	475f 494c 4342      	0x4342494c475f
    2477:	5858                	lw	a4,52(s0)
    2479:	455f 444e 4e5f      	0x4e5f444e455f
    247f:	4d41                	li	s10,16
    2481:	5345                	li	t1,-15
    2483:	4150                	lw	a2,4(a0)
    2485:	4c5f4543          	0x4c5f4543
    2489:	4244                	lw	s1,4(a2)
    248b:	5f4c                	lw	a1,60(a4)
    248d:	435f524f          	fnmadd.d	ft4,ft10,fs5,fs0,unknown
    2491:	5858                	lw	a4,52(s0)
    2493:	3131                	jal	209f <.LASF463+0x35>
    2495:	5f20                	lw	s0,120(a4)
    2497:	42494c47          	fmsub.d	fs8,fs2,ft4,fs0,rmm
    249b:	5f585843          	fmadd.q	fa6,fa6,fs5,fa1,unknown
    249f:	4e45                	li	t3,17
    24a1:	5f44                	lw	s1,60(a4)
    24a3:	414e                	lw	sp,208(sp)
    24a5:	454d                	li	a0,19
    24a7:	43415053          	0x43415053
    24ab:	5f45                	li	t5,-15
    24ad:	31585843          	fmadd.s	fa6,fa6,fs5,ft6,unknown
    24b1:	0031                	c.nop	12

000024b3 <.LASF77>:
    24b3:	5f5f 7063 5f70      	0x5f7070635f5f
    24b9:	6e75                	lui	t3,0x1d
    24bb:	6369                	lui	t1,0x1a
    24bd:	5f65646f          	jal	s0,58ab3 <.LASF439+0x52a44>
    24c1:	696c                	flw	fa1,84(a0)
    24c3:	6574                	flw	fa3,76(a0)
    24c5:	6172                	flw	ft2,28(sp)
    24c7:	736c                	flw	fa1,100(a4)
    24c9:	3220                	fld	fs0,96(a2)
    24cb:	3030                	fld	fa2,96(s0)
    24cd:	4c303137          	lui	sp,0x4c303
	...

000024d2 <.LASF570>:
    24d2:	475f 494c 4342      	0x4342494c475f
    24d8:	5858                	lw	a4,52(s0)
    24da:	485f 5641 5f45      	0x5f455641485f
    24e0:	5756                	lw	a4,116(sp)
    24e2:	4e414353          	0x4e414353
    24e6:	2046                	fld	ft0,80(sp)
    24e8:	0031                	c.nop	12

000024ea <.LASF174>:
    24ea:	5f5f 4955 544e      	0x544e49555f5f
    24f0:	4c5f 4145 5453      	0x545341454c5f
    24f6:	5f38                	lw	a4,120(a4)
    24f8:	414d                	li	sp,19
    24fa:	5f58                	lw	a4,60(a4)
    24fc:	205f 7830 6666      	0x66667830205f
	...

00002503 <.LASF823>:
    2503:	6f727073          	csrci	0x6f7,4
    2507:	6f635f63          	bge	t1,s6,2c05 <.LASF488>
    250b:	6e75                	lui	t3,0x1d
    250d:	0074                	addi	a3,sp,12

0000250f <.LASF442>:
    250f:	505f 5453 5f4c      	0x5f4c5453505f
    2515:	5341                	li	t1,-16
    2517:	54524553          	0x54524553
    251b:	4d5f 4753 5f28      	0x5f2847534d5f
    2521:	646e6f43          	0x646e6f43
    2525:	7469                	lui	s0,0xffffa
    2527:	6f69                	lui	t5,0x1a
    2529:	2c6e                	fld	fs8,216(sp)
    252b:	4d5f 7365 6173      	0x617373654d5f
    2531:	20296567          	0x20296567
    2535:	5f5f 6c67 6269      	0x62696c675f5f
    253b:	5f787863          	bgeu	a6,s7,2b2b <.LASF385+0xc>
    253f:	7361                	lui	t1,0xffff8
    2541:	74726573          	csrrsi	a0,0x747,4
    2545:	5f28                	lw	a0,120(a4)
    2547:	646e6f43          	0x646e6f43
    254b:	7469                	lui	s0,0xffffa
    254d:	6f69                	lui	t5,0x1a
    254f:	296e                	fld	fs2,216(sp)
	...

00002552 <.LASF519>:
    2552:	475f 494c 4342      	0x4342494c475f
    2558:	5858                	lw	a4,52(s0)
    255a:	485f 5641 5f45      	0x5f455641485f
    2560:	53544547          	fmsub.d	fa0,fs0,fs5,fa0,rmm
    2564:	3120                	fld	fs0,96(a0)
	...

00002567 <.LASF322>:
    2567:	5f5f 4c46 3654      	0x36544c465f5f
    256d:	5834                	lw	a3,112(s0)
    256f:	485f 5341 495f      	0x495f5341485f
    2575:	464e                	lw	a2,208(sp)
    2577:	4e49                	li	t3,18
    2579:	5449                	li	s0,-14
    257b:	5f59                	li	t5,-10
    257d:	205f 0031       	0x5f5f0031205f

00002581 <.LASF107>:
    2581:	5f5f 7063 5f70      	0x5f7070635f5f
    2587:	6669                	lui	a2,0x1a
    2589:	635f 6e6f 7473      	0x74736e6f635f
    258f:	7865                	lui	a6,0xffff9
    2591:	7270                	flw	fa2,100(a2)
    2593:	3220                	fld	fs0,96(a2)
    2595:	3130                	fld	fa2,96(a0)
    2597:	3036                	fld	ft0,360(sp)
    2599:	4c36                	lw	s8,76(sp)
	...

0000259c <.LASF681>:
    259c:	495f 544e 3631      	0x3631544e495f
    25a2:	545f 445f 4345      	0x4345445f545f
    25a8:	414c                	lw	a1,4(a0)
    25aa:	4552                	lw	a0,20(sp)
    25ac:	2044                	fld	fs1,128(s0)
	...

000025af <.LASF845>:
    25af:	4552                	lw	a0,20(sp)
    25b1:	4550                	lw	a2,12(a0)
    25b3:	5441                	li	s0,-16
	...

000025b6 <.LASF835>:
    25b6:	5a5f 334e 6373      	0x6373334e5a5f
    25bc:	3168                	fld	fa0,224(a0)
    25be:	7332                	flw	ft6,44(sp)
    25c0:	6974                	flw	fa3,84(a0)
    25c2:	656d                	lui	a0,0x1b
    25c4:	5f72                	lw	t5,60(sp)
    25c6:	7665                	lui	a2,0xffff9
    25c8:	6e65                	lui	t3,0x19
    25ca:	4574                	lw	a3,76(a0)
    25cc:	0076                	c.slli	zero,0x1d

000025ce <.LASF575>:
    25ce:	475f 494c 4342      	0x4342494c475f
    25d4:	5858                	lw	a4,52(s0)
    25d6:	505f 4341 414b      	0x414b4341505f
    25dc:	425f4547          	fmsub.d	fa0,ft10,ft5,fs0,rmm
    25e0:	4755                	li	a4,21
    25e2:	4552                	lw	a0,20(sp)
    25e4:	4f50                	lw	a2,28(a4)
    25e6:	5452                	lw	s0,52(sp)
    25e8:	2220                	fld	fs0,64(a2)
    25ea:	0022                	c.slli	zero,0x8

000025ec <.LASF167>:
    25ec:	5f5f 4e49 5f54      	0x5f544e495f5f
    25f2:	454c                	lw	a1,12(a0)
    25f4:	5341                	li	t1,-16
    25f6:	3154                	fld	fa3,160(a0)
    25f8:	5f36                	lw	t5,108(sp)
    25fa:	54444957          	0x54444957
    25fe:	5f48                	lw	a0,60(a4)
    2600:	205f 3631       	0x5f003631205f

00002605 <.LASF697>:
    2605:	5f5f 6e69 5f74      	0x5f746e695f5f
    260b:	656c                	flw	fa1,76(a0)
    260d:	7361                	lui	t1,0xffff8
    260f:	3674                	fld	fa3,232(a2)
    2611:	5f34                	lw	a3,120(a4)
    2613:	5f74                	lw	a3,124(a4)
    2615:	6564                	flw	fs1,76(a0)
    2617:	6966                	flw	fs2,88(sp)
    2619:	656e                	flw	fa0,216(sp)
    261b:	2064                	fld	fs1,192(s0)
    261d:	0031                	c.nop	12

0000261f <.LASF417>:
    261f:	475f 494c 4342      	0x4342494c475f
    2625:	5858                	lw	a4,52(s0)
    2627:	455f 444e 455f      	0x455f444e455f
    262d:	5458                	lw	a4,44(s0)
    262f:	5245                	li	tp,-15
    2631:	5f4e                	lw	t5,240(sp)
    2633:	007d2043          	fmadd.s	ft0,fs10,ft7,ft0,rdn

00002637 <.LASF719>:
    2637:	4955                	li	s2,21
    2639:	544e                	lw	s0,240(sp)
    263b:	4d5f3233          	0x4d5f3233
    263f:	5841                	li	a6,-16
    2641:	2820                	fld	fs0,80(s0)
    2643:	5f5f 4955 544e      	0x544e49555f5f
    2649:	4d5f3233          	0x4d5f3233
    264d:	5841                	li	a6,-16
    264f:	5f5f 0029       	0x475f00295f5f

00002653 <.LASF533>:
    2653:	475f 494c 4342      	0x4342494c475f
    2659:	5858                	lw	a4,52(s0)
    265b:	485f 5641 5f45      	0x5f455641485f
    2661:	494c                	lw	a1,20(a0)
    2663:	494d                	li	s2,19
    2665:	5f54                	lw	a3,60(a4)
    2667:	4d56                	lw	s10,84(sp)
    2669:	4d45                	li	s10,17
    266b:	3020                	fld	fs0,96(s0)
	...

0000266e <.LASF550>:
    266e:	475f 494c 4342      	0x4342494c475f
    2674:	5858                	lw	a4,52(s0)
    2676:	485f 5641 5f45      	0x5f455641485f
    267c:	49445453          	0x49445453
    2680:	544e                	lw	s0,240(sp)
    2682:	485f 3120       	0x5f003120485f

00002687 <.LASF643>:
    2687:	5f5f 695f 746e      	0x746e695f5f5f
    268d:	6c5f 6165 7473      	0x747361656c5f
    2693:	745f3233          	0x745f3233
    2697:	645f 6665 6e69      	0x6e696665645f
    269d:	6465                	lui	s0,0x19
    269f:	3120                	fld	fs0,96(a0)
	...

000026a2 <.LASF841>:
    26a2:	4f50                	lw	a2,28(a4)
    26a4:	594c                	lw	a1,52(a0)
    26a6:	4f4d                	li	t5,19
    26a8:	5052                	0x5052
    26aa:	4948                	lw	a0,20(a0)
    26ac:	          	fmadd.q	ft0,ft10,ft5,fs1,rne

000026ae <.LASF618>:
    26ae:	4e5f 5745 494c      	0x494c57454e5f
    26b4:	5f42                	lw	t5,48(sp)
    26b6:	4556                	lw	a0,84(sp)
    26b8:	5352                	lw	t1,52(sp)
    26ba:	4f49                	li	t5,18
    26bc:	204e                	fld	ft0,208(sp)
    26be:	3322                	fld	ft6,40(sp)
    26c0:	322e                	fld	ft4,232(sp)
    26c2:	302e                	fld	ft0,232(sp)
    26c4:	0022                	c.slli	zero,0x8

000026c6 <.LASF325>:
    26c6:	5f5f 5355 5245      	0x524553555f5f
    26cc:	4c5f 4241 4c45      	0x4c4542414c5f
    26d2:	505f 4552 4946      	0x49464552505f
    26d8:	5f58                	lw	a4,60(a4)
    26da:	205f        	0x555f5f00205f

000026dd <.LASF161>:
    26dd:	5f5f 4955 544e      	0x544e49555f5f
    26e3:	3436                	fld	fs0,360(sp)
    26e5:	4d5f 5841 5f5f      	0x5f5f58414d5f
    26eb:	3020                	fld	fs0,96(s0)
    26ed:	6678                	flw	fa4,76(a2)
    26ef:	6666                	flw	fa2,88(sp)
    26f1:	6666                	flw	fa2,88(sp)
    26f3:	6666                	flw	fa2,88(sp)
    26f5:	6666                	flw	fa2,88(sp)
    26f7:	6666                	flw	fa2,88(sp)
    26f9:	6666                	flw	fa2,88(sp)
    26fb:	6666                	flw	fa2,88(sp)
    26fd:	5566                	lw	a0,120(sp)
    26ff:	4c4c                	lw	a1,28(s0)
	...

00002702 <.LASF160>:
    2702:	5f5f 4955 544e      	0x544e49555f5f
    2708:	4d5f3233          	0x4d5f3233
    270c:	5841                	li	a6,-16
    270e:	5f5f 3020 6678      	0x667830205f5f
    2714:	6666                	flw	fa2,88(sp)
    2716:	6666                	flw	fa2,88(sp)
    2718:	6666                	flw	fa2,88(sp)
    271a:	5566                	lw	a0,120(sp)
    271c:	004c                	addi	a1,sp,4

0000271e <.LASF759>:
    271e:	4e49                	li	t3,18
    2720:	3654                	fld	fa3,168(a2)
    2722:	5f34                	lw	a3,120(a4)
    2724:	29782843          	fmadd.s	fa6,fa6,fs7,ft5,rdn
    2728:	5f20                	lw	s0,120(a4)
    272a:	495f 544e 3436      	0x3436544e495f
    2730:	435f 7828 0029      	0x297828435f

00002736 <.LASF705>:
    2736:	4e49                	li	t3,18
    2738:	3854                	fld	fa3,176(s0)
    273a:	4d5f 4e49 2820      	0x28204e494d5f
    2740:	5f2d                	li	t5,-21
    2742:	495f 544e 5f38      	0x5f38544e495f
    2748:	414d                	li	sp,19
    274a:	5f58                	lw	a4,60(a4)
    274c:	205f 202d 2931      	0x2931202d205f
	...

00002753 <.LASF162>:
    2753:	5f5f 4e49 5f54      	0x5f544e495f5f
    2759:	454c                	lw	a1,12(a0)
    275b:	5341                	li	t1,-16
    275d:	3854                	fld	fa3,176(s0)
    275f:	4d5f 5841 5f5f      	0x5f5f58414d5f
    2765:	3020                	fld	fs0,96(s0)
    2767:	3778                	fld	fa4,232(a4)
    2769:	0066                	c.slli	zero,0x19

0000276b <.LASF341>:
    276b:	5f5f 4347 5f43      	0x5f4343475f5f
    2771:	5441                	li	s0,-16
    2773:	43494d4f          	fnmadd.d	fs10,fs2,fs4,fs0,rmm
    2777:	505f 494f 544e      	0x544e494f505f
    277d:	5245                	li	tp,-15
    277f:	4c5f 434f 5f4b      	0x5f4b434f4c5f
    2785:	5246                	lw	tp,112(sp)
    2787:	4545                	li	a0,17
    2789:	3220                	fld	fs0,96(a2)
	...

0000278c <.LASF434>:
    278c:	475f 494c 4342      	0x4342494c475f
    2792:	5858                	lw	a4,52(s0)
    2794:	485f 5641 5f45      	0x5f455641485f
    279a:	5542                	lw	a0,48(sp)
    279c:	4c49                	li	s8,18
    279e:	4954                	lw	a3,20(a0)
    27a0:	5f4e                	lw	t5,240(sp)
    27a2:	4148                	lw	a0,4(a0)
    27a4:	4e555f53          	0x4e555f53
    27a8:	5149                	li	sp,-14
    27aa:	4f5f 4a42 525f      	0x525f4a424f5f
    27b0:	5045                	c.li	zero,-15
    27b2:	3120                	fld	fs0,96(a0)
	...

000027b5 <.LASF11>:
    27b5:	5f5f 5441 4d4f      	0x4d4f54415f5f
    27bb:	4349                	li	t1,18
    27bd:	415f 5143 4955      	0x49555143415f
    27c3:	4552                	lw	a0,20(sp)
    27c5:	3220                	fld	fs0,96(a2)
	...

000027c8 <.LASF745>:
    27c8:	5f474953          	0x5f474953
    27cc:	5441                	li	s0,-16
    27ce:	43494d4f          	fnmadd.d	fs10,fs2,fs4,fs0,rmm
    27d2:	4d5f 4e49 2820      	0x28204e494d5f
    27d8:	5f2d                	li	t5,-21
    27da:	535f 4454 4e49      	0x4e494454535f
    27e0:	5f54                	lw	a3,60(a4)
    27e2:	5845                	li	a6,-15
    27e4:	2850                	fld	fa2,144(s0)
    27e6:	4e49                	li	t3,18
    27e8:	5f54                	lw	a3,60(a4)
    27ea:	414d                	li	sp,19
    27ec:	2958                	fld	fa4,144(a0)
    27ee:	2d20                	fld	fs0,88(a0)
    27f0:	3120                	fld	fs0,96(a0)
    27f2:	0029                	c.nop	10

000027f4 <.LASF551>:
    27f4:	475f 494c 4342      	0x4342494c475f
    27fa:	5858                	lw	a4,52(s0)
    27fc:	485f 5641 5f45      	0x5f455641485f
    2802:	4c445453          	0x4c445453
    2806:	4249                	li	tp,18
    2808:	485f 3120       	0x5f003120485f

0000280d <.LASF438>:
    280d:	475f 494c 4342      	0x4342494c475f
    2813:	5858                	lw	a4,52(s0)
    2815:	485f 5641 5f45      	0x5f455641485f
    281b:	5542                	lw	a0,48(sp)
    281d:	4c49                	li	s8,18
    281f:	4954                	lw	a3,20(a0)
    2821:	5f4e                	lw	t5,240(sp)
    2823:	5349                	li	t1,-14
    2825:	435f 4e4f 5453      	0x54534e4f435f
    282b:	4e41                	li	t3,16
    282d:	5f54                	lw	a3,60(a4)
    282f:	5645                	li	a2,-15
    2831:	4c41                	li	s8,16
    2833:	4155                	li	sp,21
    2835:	4554                	lw	a3,12(a0)
    2837:	2044                	fld	fs1,128(s0)
    2839:	0031                	c.nop	12

0000283b <.LASF663>:
    283b:	495f 544e 5450      	0x5450544e495f
    2841:	5f52                	lw	t5,52(sp)
    2843:	5145                	li	sp,-15
    2845:	495f 544e 0020      	0x20544e495f

0000284b <.LASF298>:
    284b:	5f5f 4c46 3354      	0x33544c465f5f
    2851:	5832                	lw	a6,44(sp)
    2853:	4d5f 5841 455f      	0x455f58414d5f
    2859:	5058                	lw	a4,36(s0)
    285b:	5f5f 3120 3230      	0x323031205f5f
    2861:	0034                	addi	a3,sp,8

00002863 <.LASF483>:
    2863:	475f 494c 4342      	0x4342494c475f
    2869:	5858                	lw	a4,52(s0)
    286b:	485f 5641 5f45      	0x5f455641485f
    2871:	5341                	li	t1,-16
    2873:	4e49                	li	t3,18
    2875:	2046                	fld	ft0,80(sp)
    2877:	0031                	c.nop	12

00002879 <.LASF242>:
    2879:	5f5f 444c 4c42      	0x4c42444c5f5f
    287f:	4e5f 524f 5f4d      	0x5f4d524f4e5f
    2885:	414d                	li	sp,19
    2887:	5f58                	lw	a4,60(a4)
    2889:	205f 2e31 3831      	0x38312e31205f
    288f:	3739                	jal	279d <.LASF434+0x11>
    2891:	39343133          	0x39343133
    2895:	3335                	jal	25c1 <.LASF835+0xb>
    2897:	3735                	jal	27c3 <.LASF11+0xe>
    2899:	3332                	fld	ft6,296(sp)
    289b:	3731                	jal	27a7 <.LASF434+0x1b>
    289d:	3536                	fld	fa0,360(sp)
    289f:	3830                	fld	fa2,112(s0)
    28a1:	3735                	jal	27cd <.LASF745+0x5>
    28a3:	3935                	jal	24df <.LASF570+0xd>
    28a5:	36363233          	0x36363233
    28a9:	3832                	fld	fa6,296(sp)
    28ab:	3030                	fld	fa2,96(s0)
    28ad:	65323037          	lui	zero,0x65323
    28b1:	3339342b          	0x3339342b
    28b5:	4c32                	lw	s8,12(sp)
	...

000028b8 <.LASF573>:
    28b8:	475f 494c 4342      	0x4342494c475f
    28be:	5858                	lw	a4,52(s0)
    28c0:	485f 5641 5f45      	0x5f455641485f
    28c6:	59544357          	0x59544357
    28ca:	4550                	lw	a2,12(a0)
    28cc:	485f 3120       	0x5f003120485f

000028d1 <.LASF178>:
    28d1:	5f5f 4955 544e      	0x544e49555f5f
    28d7:	4c5f 4145 5453      	0x545341454c5f
    28dd:	4d5f3233          	0x4d5f3233
    28e1:	5841                	li	a6,-16
    28e3:	5f5f 3020 6678      	0x667830205f5f
    28e9:	6666                	flw	fa2,88(sp)
    28eb:	6666                	flw	fa2,88(sp)
    28ed:	6666                	flw	fa2,88(sp)
    28ef:	5566                	lw	a0,120(sp)
    28f1:	004c                	addi	a1,sp,4

000028f3 <.LASF173>:
    28f3:	5f5f 4e49 5f54      	0x5f544e495f5f
    28f9:	454c                	lw	a1,12(a0)
    28fb:	5341                	li	t1,-16
    28fd:	3654                	fld	fa3,168(a2)
    28ff:	5f34                	lw	a3,120(a4)
    2901:	54444957          	0x54444957
    2905:	5f48                	lw	a0,60(a4)
    2907:	205f 3436       	0x5f003436205f

0000290c <.LASF216>:
    290c:	5f5f 4c46 5f54      	0x5f544c465f5f
    2912:	4148                	lw	a0,4(a0)
    2914:	4e495f53          	0x4e495f53
    2918:	4946                	lw	s2,80(sp)
    291a:	494e                	lw	s2,208(sp)
    291c:	5954                	lw	a3,52(a0)
    291e:	5f5f 3120       	0x5f0031205f5f

00002923 <.LASF779>:
    2923:	5f5f 6975 746e      	0x746e69755f5f
    2929:	3436                	fld	fs0,360(sp)
    292b:	745f        	0x53505f00745f

0000292e <.LASF454>:
    292e:	505f 5453 5f4c      	0x5f4c5453505f
    2934:	5250                	lw	a2,36(a2)
    2936:	4741                	li	a4,16
    2938:	414d                	li	sp,19
    293a:	535f 4d49 2044      	0x20444d49535f
    2940:	505f 5453 5f4c      	0x5f4c5453505f
    2946:	5250                	lw	a2,36(a2)
    2948:	4741                	li	a4,16
    294a:	414d                	li	sp,19
    294c:	6f28                	flw	fa0,88(a4)
    294e:	706d                	c.lui	zero,0xffffb
    2950:	7320                	flw	fs0,96(a4)
    2952:	6d69                	lui	s10,0x1a
    2954:	2964                	fld	fs1,208(a0)
	...

00002957 <.LASF154>:
    2957:	5f5f 4e49 3854      	0x38544e495f5f
    295d:	4d5f 5841 5f5f      	0x5f5f58414d5f
    2963:	3020                	fld	fs0,96(s0)
    2965:	3778                	fld	fa4,232(a4)
    2967:	0066                	c.slli	zero,0x19

00002969 <.LASF390>:
    2969:	475f 494c 4342      	0x4342494c475f
    296f:	5858                	lw	a4,52(s0)
    2971:	455f 5458 5245      	0x52455458455f
    2977:	5f4e                	lw	t5,240(sp)
    2979:	4554                	lw	a3,12(a0)
    297b:	504d                	c.li	zero,-13
    297d:	414c                	lw	a1,4(a0)
    297f:	4554                	lw	a3,12(a0)
    2981:	3120                	fld	fs0,96(a0)
	...

00002984 <.LASF342>:
    2984:	5f5f 4347 5f43      	0x5f4343475f5f
    298a:	4148                	lw	a0,4(a0)
    298c:	4556                	lw	a0,84(sp)
    298e:	445f 4157 4652      	0x46524157445f
    2994:	5f32                	lw	t5,44(sp)
    2996:	5f494643          	fmadd.q	fa2,fs2,fs4,fa1,rmm
    299a:	5341                	li	t1,-16
    299c:	204d                	jal	2a3e <.LASF47+0xd>
    299e:	0031                	c.nop	12

000029a0 <.LASF832>:
    29a0:	5a5f 334e 6373      	0x6373334e5a5f
    29a6:	3968                	fld	fa0,240(a0)
    29a8:	6f727073          	csrci	0x6f7,4
    29ac:	64615f63          	bge	sp,t1,300a <.LASF617+0x14>
    29b0:	4564                	lw	s1,76(a0)
    29b2:	3750                	fld	fa2,168(a4)
    29b4:	6f727073          	csrci	0x6f7,4
    29b8:	00745f63          	bge	s0,t2,29d6 <.LASF776+0x4>

000029bc <.LASF419>:
    29bc:	475f 494c 4342      	0x4342494c475f
    29c2:	5858                	lw	a4,52(s0)
    29c4:	4f5f 5f53 4544      	0x45445f534f5f
    29ca:	4946                	lw	s2,80(sp)
    29cc:	454e                	lw	a0,208(sp)
    29ce:	00312053          	fadd.s	ft0,ft2,ft3,rdn

000029d2 <.LASF776>:
    29d2:	6f6c                	flw	fa1,92(a4)
    29d4:	676e                	flw	fa4,216(sp)
    29d6:	7520                	flw	fs0,104(a0)
    29d8:	736e                	flw	ft6,248(sp)
    29da:	6769                	lui	a4,0x1a
    29dc:	656e                	flw	fa0,216(sp)
    29de:	2064                	fld	fs1,192(s0)
    29e0:	6e69                	lui	t3,0x1a
    29e2:	0074                	addi	a3,sp,12

000029e4 <.LASF689>:
    29e4:	5f5f 6e69 3674      	0x36746e695f5f
    29ea:	5f34                	lw	a3,120(a4)
    29ec:	5f74                	lw	a3,124(a4)
    29ee:	6564                	flw	fs1,76(a0)
    29f0:	6966                	flw	fs2,88(sp)
    29f2:	656e                	flw	fa0,216(sp)
    29f4:	2064                	fld	fs1,192(s0)
    29f6:	0031                	c.nop	12

000029f8 <.LASF648>:
    29f8:	6e676973          	csrrsi	s2,0x6e6,14
    29fc:	6465                	lui	s0,0x19
	...

000029ff <.LASF198>:
    29ff:	5f5f 4347 5f43      	0x5f4343475f5f
    2a05:	4549                	li	a0,18
    2a07:	35355f43          	0x35355f43
    2a0b:	5f39                	li	t5,-18
    2a0d:	504d4f43          	fmadd.s	ft10,fs10,ft4,fa0,rmm
    2a11:	454c                	lw	a1,12(a0)
    2a13:	2058                	fld	fa4,128(s0)
    2a15:	0030                	addi	a2,sp,8

00002a17 <.LASF549>:
    2a17:	475f 494c 4342      	0x4342494c475f
    2a1d:	5858                	lw	a4,52(s0)
    2a1f:	485f 5641 5f45      	0x5f455641485f
    2a25:	42445453          	0x42445453
    2a29:	5f4c4f4f          	fnmadd.q	ft10,fs8,fs4,fa1,rmm
    2a2d:	2048                	fld	fa0,128(s0)
    2a2f:	0031                	c.nop	12

00002a31 <.LASF47>:
    2a31:	5f5f 4955 544e      	0x544e49555f5f
    2a37:	3631                	jal	2543 <.LASF442+0x34>
    2a39:	545f 5059 5f45      	0x5f455059545f
    2a3f:	205f 6873 726f      	0x726f6873205f
    2a45:	2074                	fld	fa3,192(s0)
    2a47:	6e75                	lui	t3,0x1d
    2a49:	6e676973          	csrrsi	s2,0x6e6,14
    2a4d:	6465                	lui	s0,0x19
    2a4f:	6920                	flw	fs0,80(a0)
    2a51:	746e                	flw	fs0,248(sp)
	...

00002a54 <.LASF240>:
    2a54:	5f5f 444c 4c42      	0x4c42444c5f5f
    2a5a:	445f 4345 4d49      	0x4d494345445f
    2a60:	4c41                	li	s8,16
    2a62:	445f 4749 5f5f      	0x5f5f4749445f
    2a68:	3320                	fld	fs0,96(a4)
    2a6a:	0036                	c.slli	zero,0xd

00002a6c <.LASF312>:
    2a6c:	5f5f 4c46 3654      	0x36544c465f5f
    2a72:	5834                	lw	a3,112(s0)
    2a74:	4d5f 4e49 315f      	0x315f4e494d5f
    2a7a:	5f30                	lw	a2,120(a4)
    2a7c:	5845                	li	a6,-15
    2a7e:	5f50                	lw	a2,60(a4)
    2a80:	205f 2d28 3934      	0x39342d28205f
    2a86:	00293133          	sltu	sp,s2,sp

00002a8a <.LASF99>:
    2a8a:	5f5f 7063 5f70      	0x5f7070635f5f
    2a90:	74617473          	csrrci	s0,0x746,2
    2a94:	6369                	lui	t1,0x1a
    2a96:	615f 7373 7265      	0x72657373615f
    2a9c:	2074                	fld	fa3,192(s0)
    2a9e:	3032                	fld	ft0,296(sp)
    2aa0:	3431                	jal	24ac <.LASF412+0x3b>
    2aa2:	3131                	jal	26ae <.LASF618>
    2aa4:	004c                	addi	a1,sp,4

00002aa6 <.LASF200>:
    2aa6:	5f5f 4c46 5f54      	0x5f544c465f5f
    2aac:	5645                	li	a2,-15
    2aae:	4c41                	li	s8,16
    2ab0:	4d5f 5445 4f48      	0x4f4854454d5f
    2ab6:	5f44                	lw	s1,60(a4)
    2ab8:	5354                	lw	a3,36(a4)
    2aba:	315f 3638 3136      	0x31363638315f
    2ac0:	335f 5f5f 3020      	0x30205f5f335f
	...

00002ac7 <.LASF449>:
    2ac7:	505f 5453 5f4c      	0x5f4c5453505f
    2acd:	5250                	lw	a2,36(a2)
    2acf:	4741                	li	a4,16
    2ad1:	414d                	li	sp,19
    2ad3:	7828                	flw	fa0,112(s0)
    2ad5:	2029                	jal	2adf <.LASF449+0x18>
    2ad7:	505f 6172 6d67      	0x6d676172505f
    2add:	2861                	jal	2b75 <.LASF62+0x19>
    2adf:	00297823          	0x297823

00002ae3 <.LASF244>:
    2ae3:	5f5f 444c 4c42      	0x4c42444c5f5f
    2ae9:	455f 5350 4c49      	0x4c495350455f
    2aef:	5f5f4e4f          	fnmadd.q	ft8,ft10,fs5,fa1,rmm
    2af3:	3120                	fld	fs0,96(a0)
    2af5:	392e                	fld	fs2,232(sp)
    2af7:	3532                	fld	fa0,296(sp)
    2af9:	3239                	jal	2407 <.LASF788+0xf>
    2afb:	3939                	jal	2719 <.LASF160+0x17>
    2afd:	3434                	fld	fa3,104(s0)
    2aff:	32373833          	0x32373833
    2b03:	35383533          	0x35383533
    2b07:	35353033          	0x35353033
    2b0b:	3739                	jal	2a19 <.LASF549+0x2>
    2b0d:	32343937          	lui	s2,0x32343
    2b11:	3835                	jal	234d <.LASF629+0x3>
    2b13:	3934                	fld	fa3,112(a0)
    2b15:	3732                	fld	fa4,296(sp)
    2b17:	2d653233          	0x2d653233
    2b1b:	004c3433          	sltu	s0,s8,tp

00002b1f <.LASF385>:
    2b1f:	475f 494c 4342      	0x4342494c475f
    2b25:	5858                	lw	a4,52(s0)
    2b27:	545f 5248 574f      	0x574f5248545f
    2b2d:	5f28                	lw	a0,120(a4)
    2b2f:	5845                	li	a6,-15
    2b31:	00202943          	fmadd.s	fs2,ft0,ft2,ft0,rdn

00002b35 <.LASF786>:
    2b35:	5f5f 6975 746e      	0x746e69755f5f
    2b3b:	6c5f 6165 7473      	0x747361656c5f
    2b41:	745f3233          	0x745f3233
	...

00002b46 <.LASF753>:
    2b46:	4e49                	li	t3,18
    2b48:	3854                	fld	fa3,176(s0)
    2b4a:	435f 7828 2029      	0x20297828435f
    2b50:	5f5f 4e49 3854      	0x38544e495f5f
    2b56:	435f 7828 0029      	0x297828435f

00002b5c <.LASF62>:
    2b5c:	5f5f 4955 544e      	0x544e49555f5f
    2b62:	465f 5341 3854      	0x38545341465f
    2b68:	545f 5059 5f45      	0x5f455059545f
    2b6e:	205f 6e75 6973      	0x69736e75205f
    2b74:	64656e67          	0x64656e67
    2b78:	6920                	flw	fs0,80(a0)
    2b7a:	746e                	flw	fs0,248(sp)
	...

00002b7d <.LASF574>:
    2b7d:	544c                	lw	a1,44(s0)
    2b7f:	4f5f 4a42 4944      	0x49444a424f5f
    2b85:	2052                	fld	ft0,272(sp)
    2b87:	2e22                	fld	ft8,8(sp)
    2b89:	696c                	flw	fa1,84(a0)
    2b8b:	7362                	flw	ft6,56(sp)
    2b8d:	          	0x7300222f

00002b90 <.LASF658>:
    2b90:	726f6873          	csrrsi	a6,0x726,30
    2b94:	2074                	fld	fa3,192(s0)
    2b96:	          	0x5f00312b

00002b99 <.LASF455>:
    2b99:	505f 5453 5f4c      	0x5f4c5453505f
    2b9f:	5250                	lw	a2,36(a2)
    2ba1:	4741                	li	a4,16
    2ba3:	414d                	li	sp,19
    2ba5:	445f 4345 414c      	0x414c4345445f
    2bab:	4552                	lw	a0,20(sp)
    2bad:	535f 4d49 2044      	0x20444d49535f
    2bb3:	505f 5453 5f4c      	0x5f4c5453505f
    2bb9:	5250                	lw	a2,36(a2)
    2bbb:	4741                	li	a4,16
    2bbd:	414d                	li	sp,19
    2bbf:	6f28                	flw	fa0,88(a4)
    2bc1:	706d                	c.lui	zero,0xffffb
    2bc3:	6420                	flw	fs0,72(s0)
    2bc5:	6365                	lui	t1,0x19
    2bc7:	616c                	flw	fa1,68(a0)
    2bc9:	6572                	flw	fa0,28(sp)
    2bcb:	7320                	flw	fs0,96(a4)
    2bcd:	6d69                	lui	s10,0x1a
    2bcf:	2964                	fld	fs1,208(a0)
	...

00002bd2 <.LASF466>:
    2bd2:	505f 5453 5f4c      	0x5f4c5453505f
    2bd8:	4145                	li	sp,17
    2bda:	4c52                	lw	s8,20(sp)
    2bdc:	4559                	li	a0,22
    2bde:	4958                	lw	a4,20(a0)
    2be0:	5f54                	lw	a3,60(a4)
    2be2:	5250                	lw	a2,36(a2)
    2be4:	5345                	li	t1,-15
    2be6:	4e45                	li	t3,17
    2be8:	2054                	fld	fa3,128(s0)
    2bea:	5f28                	lw	a0,120(a4)
    2bec:	495f 544e 4c45      	0x4c45544e495f
    2bf2:	435f 4d4f 4950      	0x49504d4f435f
    2bf8:	454c                	lw	a1,12(a0)
    2bfa:	2052                	fld	ft0,272(sp)
    2bfc:	3d3e                	fld	fs10,488(sp)
    2bfe:	3120                	fld	fs0,96(a0)
    2c00:	3038                	fld	fa4,96(s0)
    2c02:	2930                	fld	fa2,80(a0)
	...

00002c05 <.LASF488>:
    2c05:	475f 494c 4342      	0x4342494c475f
    2c0b:	5858                	lw	a4,52(s0)
    2c0d:	485f 5641 5f45      	0x5f455641485f
    2c13:	504d4f43          	fmadd.s	ft10,fs10,ft4,fa0,rmm
    2c17:	454c                	lw	a1,12(a0)
    2c19:	5f58                	lw	a4,60(a4)
    2c1b:	2048                	fld	fa0,128(s0)
    2c1d:	0031                	c.nop	12

00002c1f <.LASF812>:
    2c1f:	6e69                	lui	t3,0x1a
    2c21:	5f74                	lw	a3,124(a4)
    2c23:	656c                	flw	fa1,76(a0)
    2c25:	7361                	lui	t1,0xffff8
    2c27:	3674                	fld	fa3,232(a2)
    2c29:	5f34                	lw	a3,120(a4)
    2c2b:	0074                	addi	a3,sp,12

00002c2d <.LASF171>:
    2c2d:	5f5f 4e49 5f54      	0x5f544e495f5f
    2c33:	454c                	lw	a1,12(a0)
    2c35:	5341                	li	t1,-16
    2c37:	3654                	fld	fa3,168(a2)
    2c39:	5f34                	lw	a3,120(a4)
    2c3b:	414d                	li	sp,19
    2c3d:	5f58                	lw	a4,60(a4)
    2c3f:	205f 7830 6637      	0x66377830205f
    2c45:	6666                	flw	fa2,88(sp)
    2c47:	6666                	flw	fa2,88(sp)
    2c49:	6666                	flw	fa2,88(sp)
    2c4b:	6666                	flw	fa2,88(sp)
    2c4d:	6666                	flw	fa2,88(sp)
    2c4f:	6666                	flw	fa2,88(sp)
    2c51:	6666                	flw	fa2,88(sp)
    2c53:	4c4c                	lw	a1,28(s0)
	...

00002c56 <.LASF875>:
    2c56:	6874                	flw	fa3,84(s0)
    2c58:	7369                	lui	t1,0xffffa
	...

00002c5b <.LASF370>:
    2c5b:	475f 494c 4342      	0x4342494c475f
    2c61:	5858                	lw	a4,52(s0)
    2c63:	555f 4553 445f      	0x445f4553555f
    2c69:	5045                	c.li	zero,-15
    2c6b:	4552                	lw	a0,20(sp)
    2c6d:	45544143          	0x45544143
    2c71:	2044                	fld	fs1,128(s0)
    2c73:	0031                	c.nop	12

00002c75 <.LASF116>:
    2c75:	5f5f 7063 5f70      	0x5f7070635f5f
    2c7b:	72617567          	0x72617567
    2c7f:	6e61                	lui	t3,0x18
    2c81:	6574                	flw	fa3,76(a0)
    2c83:	6465                	lui	s0,0x19
    2c85:	635f 706f 5f79      	0x5f79706f635f
    2c8b:	6c65                	lui	s8,0x19
    2c8d:	7369                	lui	t1,0xffffa
    2c8f:	6f69                	lui	t5,0x1a
    2c91:	206e                	fld	ft0,216(sp)
    2c93:	3032                	fld	ft0,296(sp)
    2c95:	3631                	jal	27a1 <.LASF434+0x15>
    2c97:	3630                	fld	fa2,104(a2)
    2c99:	004c                	addi	a1,sp,4

00002c9b <.LASF249>:
    2c9b:	5f5f 4c46 3354      	0x33544c465f5f
    2ca1:	5f32                	lw	t5,44(sp)
    2ca3:	414d                	li	sp,19
    2ca5:	544e                	lw	s0,240(sp)
    2ca7:	445f 4749 5f5f      	0x5f5f4749445f
    2cad:	3220                	fld	fs0,96(a2)
    2caf:	0034                	addi	a3,sp,8

00002cb1 <.LASF57>:
    2cb1:	5f5f 4955 544e      	0x544e49555f5f
    2cb7:	4c5f 4145 5453      	0x545341454c5f
    2cbd:	3436                	fld	fs0,360(sp)
    2cbf:	545f 5059 5f45      	0x5f455059545f
    2cc5:	205f 6f6c 676e      	0x676e6f6c205f
    2ccb:	6c20                	flw	fs0,88(s0)
    2ccd:	20676e6f          	jal	t3,78ed3 <.LASF439+0x72e64>
    2cd1:	6e75                	lui	t3,0x1d
    2cd3:	6e676973          	csrrsi	s2,0x6e6,14
    2cd7:	6465                	lui	s0,0x19
    2cd9:	6920                	flw	fs0,80(a0)
    2cdb:	746e                	flw	fs0,248(sp)
	...

00002cde <.LASF871>:
    2cde:	7469                	lui	s0,0xffffa
    2ce0:	7265                	lui	tp,0xffff9
    2ce2:	7461                	lui	s0,0xffff8
    2ce4:	6f69                	lui	t5,0x1a
    2ce6:	5f6e                	lw	t5,248(sp)
    2ce8:	6e756f63          	bltu	a0,t2,33e6 <.LASF29+0x4>
    2cec:	6574                	flw	fa3,76(a0)
    2cee:	0072                	c.slli	zero,0x1c

00002cf0 <.LASF309>:
    2cf0:	5f5f 4c46 3654      	0x36544c465f5f
    2cf6:	5834                	lw	a3,112(s0)
    2cf8:	4d5f 4e41 5f54      	0x5f544e414d5f
    2cfe:	4944                	lw	s1,20(a0)
    2d00:	205f5f47          	fmsub.s	ft10,ft10,ft5,ft4,unknown
    2d04:	3131                	jal	2910 <.LASF216+0x4>
    2d06:	          	0x5f5f0033

00002d08 <.LASF225>:
    2d08:	5f5f 4244 5f4c      	0x5f4c42445f5f
    2d0e:	414d                	li	sp,19
    2d10:	5f58                	lw	a4,60(a4)
    2d12:	205f 6f64 6275      	0x62756f64205f
    2d18:	656c                	flw	fa1,76(a0)
    2d1a:	3128                	fld	fa0,96(a0)
    2d1c:	372e                	fld	fa4,232(sp)
    2d1e:	3739                	jal	2c2c <.LASF812+0xd>
    2d20:	3936                	fld	fs2,360(sp)
    2d22:	34333133          	0x34333133
    2d26:	3638                	fld	fa4,104(a2)
    2d28:	3332                	fld	ft6,296(sp)
    2d2a:	3531                	jal	2b36 <.LASF786+0x1>
    2d2c:	31383037          	lui	zero,0x31383
    2d30:	3534                	fld	fa3,104(a0)
    2d32:	3732                	fld	fa4,296(sp)
    2d34:	3234                	fld	fa3,96(a2)
    2d36:	31333733          	0x31333733
    2d3a:	33343037          	lui	zero,0x33343
    2d3e:	3735                	jal	2c6a <.LASF370+0xf>
    2d40:	2b65                	jal	32f8 <.LASF482+0x4>
    2d42:	4c383033          	0x4c383033
    2d46:	0029                	c.nop	10

00002d48 <.LASF333>:
    2d48:	5f5f 4347 5f43      	0x5f4343475f5f
    2d4e:	5441                	li	s0,-16
    2d50:	43494d4f          	fnmadd.d	fs10,fs2,fs4,fs0,rmm
    2d54:	435f 4148 3152      	0x31524148435f
    2d5a:	5f36                	lw	t5,108(sp)
    2d5c:	5f54                	lw	a3,60(a4)
    2d5e:	4f4c                	lw	a1,28(a4)
    2d60:	465f4b43          	fmadd.q	fs6,ft10,ft5,fs0,rmm
    2d64:	4552                	lw	a0,20(sp)
    2d66:	2045                	jal	2e06 <.LASF743>
    2d68:	0031                	c.nop	12

00002d6a <.LASF805>:
    2d6a:	6975                	lui	s2,0x1d
    2d6c:	746e                	flw	fs0,248(sp)
    2d6e:	7470                	flw	fa2,108(s0)
    2d70:	5f72                	lw	t5,60(sp)
    2d72:	0074                	addi	a3,sp,12

00002d74 <.LASF222>:
    2d74:	5f5f 4244 5f4c      	0x5f4c42445f5f
    2d7a:	414d                	li	sp,19
    2d7c:	5f58                	lw	a4,60(a4)
    2d7e:	5845                	li	a6,-15
    2d80:	5f50                	lw	a2,60(a4)
    2d82:	205f 3031 3432      	0x34323031205f
	...

00002d89 <.LASF672>:
    2d89:	5f5f 4146 5453      	0x545341465f5f
    2d8f:	3436                	fld	fs0,360(sp)
    2d91:	2220                	fld	fs0,64(a2)
    2d93:	6c6c                	flw	fa1,92(s0)
    2d95:	0022                	c.slli	zero,0x8

00002d97 <.LASF12>:
    2d97:	5f5f 5441 4d4f      	0x4d4f54415f5f
    2d9d:	4349                	li	t1,18
    2d9f:	525f 4c45 4145      	0x41454c45525f
    2da5:	33204553          	0x33204553
	...

00002daa <.LASF656>:
    2daa:	6e75                	lui	t3,0x1d
    2dac:	6e676973          	csrrsi	s2,0x6e6,14
    2db0:	6465                	lui	s0,0x19
    2db2:	2b20                	fld	fs0,80(a4)
    2db4:	0030                	addi	a2,sp,8

00002db6 <.LASF842>:
    2db6:	6c6c6163          	bltu	s8,t1,3478 <.LASF359+0x2>
    2dba:	6162                	flw	ft2,24(sp)
    2dbc:	          	bltu	zero,a6,34f2 <.LASF865+0x3>

00002dbf <.LASF873>:
    2dbf:	6f727073          	csrci	0x6f7,4
    2dc3:	78655f63          	bge	a0,t1,3561 <.LASF485+0x13>
    2dc7:	6365                	lui	t1,0x19
	...

00002dca <.LASF203>:
    2dca:	5f5f 4c46 5f54      	0x5f544c465f5f
    2dd0:	414d                	li	sp,19
    2dd2:	544e                	lw	s0,240(sp)
    2dd4:	445f 4749 5f5f      	0x5f5f4749445f
    2dda:	3220                	fld	fs0,96(a2)
    2ddc:	0034                	addi	a3,sp,8

00002dde <.LASF878>:
    2dde:	6974                	flw	fa3,84(a0)
    2de0:	656d                	lui	a0,0x1b
    2de2:	695f 706e       	0x5f00706e695f

00002de7 <.LASF60>:
    2de7:	5f5f 4e49 5f54      	0x5f544e495f5f
    2ded:	4146                	lw	sp,80(sp)
    2def:	32335453          	0x32335453
    2df3:	545f 5059 5f45      	0x5f455059545f
    2df9:	205f 6e69 0074      	0x746e69205f

00002dff <.LASF661>:
    2dff:	6e69                	lui	t3,0x1a
    2e01:	2074                	fld	fa3,192(s0)
    2e03:	          	0x5500322b

00002e06 <.LASF743>:
    2e06:	4955                	li	s2,21
    2e08:	544e                	lw	s0,240(sp)
    2e0a:	414d                	li	sp,19
    2e0c:	5f58                	lw	a4,60(a4)
    2e0e:	414d                	li	sp,19
    2e10:	2058                	fld	fa4,128(s0)
    2e12:	5f28                	lw	a0,120(a4)
    2e14:	555f 4e49 4d54      	0x4d544e49555f
    2e1a:	5841                	li	a6,-16
    2e1c:	4d5f 5841 5f5f      	0x5f5f58414d5f
    2e22:	0029                	c.nop	10

00002e24 <.LASF535>:
    2e24:	475f 494c 4342      	0x4342494c475f
    2e2a:	5858                	lw	a4,52(s0)
    2e2c:	485f 5641 5f45      	0x5f455641485f
    2e32:	4f4c                	lw	a1,28(a4)
    2e34:	46303147          	fmsub.q	ft2,ft0,ft3,fs0,rup
    2e38:	3120                	fld	fs0,96(a0)
	...

00002e3b <.LASF860>:
    2e3b:	5a5f 374e 7073      	0x7073374e5a5f
    2e41:	6f72                	flw	ft10,28(sp)
    2e43:	34745f63          	bge	s0,t2,31a1 <.LASF195+0x3>
    2e47:	6e757273          	csrrci	tp,0x6e7,10
    2e4b:	7645                	lui	a2,0xffff1
	...

00002e4e <.LASF633>:
    2e4e:	5f5f 5353 5f50      	0x5f5053535f5f
    2e54:	4f46                	lw	t5,80(sp)
    2e56:	5452                	lw	s0,52(sp)
    2e58:	4649                	li	a2,18
    2e5a:	5f59                	li	t5,-10
    2e5c:	454c                	lw	a1,12(a0)
    2e5e:	4556                	lw	a0,84(sp)
    2e60:	204c                	fld	fa1,128(s0)
    2e62:	0030                	addi	a2,sp,8

00002e64 <.LASF273>:
    2e64:	5f5f 4c46 3654      	0x36544c465f5f
    2e6a:	5f34                	lw	a3,120(a4)
    2e6c:	494d                	li	s2,19
    2e6e:	5f4e                	lw	t5,240(sp)
    2e70:	205f 2e32 3232      	0x32322e32205f
    2e76:	3035                	jal	26a2 <.LASF841>
    2e78:	35383337          	lui	t1,0x35383
    2e7c:	3538                	fld	fa4,104(a0)
    2e7e:	3730                	fld	fa2,104(a4)
    2e80:	3032                	fld	ft0,296(sp)
    2e82:	3331                	jal	2b8e <.LASF574+0x11>
    2e84:	3338                	fld	fa4,96(a4)
    2e86:	3930                	fld	fa2,112(a0)
    2e88:	3230                	fld	fa2,96(a2)
    2e8a:	31373233          	0x31373233
    2e8e:	32333337          	lui	t1,0x32333
    2e92:	3034                	fld	fa3,96(s0)
    2e94:	3034                	fld	fa3,96(s0)
    2e96:	6536                	flw	fa0,76(sp)
    2e98:	332d                	jal	2bc2 <.LASF455+0x29>
    2e9a:	3830                	fld	fa2,112(s0)
    2e9c:	3646                	fld	fa2,112(sp)
    2e9e:	0034                	addi	a3,sp,8

00002ea0 <.LASF15>:
    2ea0:	5f5f 4946 494e      	0x494e49465f5f
    2ea6:	4554                	lw	a3,12(a0)
    2ea8:	4d5f 5441 5f48      	0x5f4854414d5f
    2eae:	594c4e4f          	fnmadd.s	ft8,fs8,fs4,fa1,rmm
    2eb2:	5f5f 3020       	0x5f0030205f5f

00002eb7 <.LASF659>:
    2eb7:	5f5f 6e69 3274      	0x32746e695f5f
    2ebd:	2030                	fld	fa2,64(s0)
    2ebf:	          	0x5f00322b

00002ec2 <.LASF332>:
    2ec2:	5f5f 4347 5f43      	0x5f4343475f5f
    2ec8:	5441                	li	s0,-16
    2eca:	43494d4f          	fnmadd.d	fs10,fs2,fs4,fs0,rmm
    2ece:	435f 4148 5f52      	0x5f524148435f
    2ed4:	4f4c                	lw	a1,28(a4)
    2ed6:	465f4b43          	fmadd.q	fs6,ft10,ft5,fs0,rmm
    2eda:	4552                	lw	a0,20(sp)
    2edc:	2045                	jal	2f7c <.LASF528+0xa>
    2ede:	0031                	c.nop	12

00002ee0 <.LASF157>:
    2ee0:	5f5f 4e49 3654      	0x36544e495f5f
    2ee6:	5f34                	lw	a3,120(a4)
    2ee8:	414d                	li	sp,19
    2eea:	5f58                	lw	a4,60(a4)
    2eec:	205f 7830 6637      	0x66377830205f
    2ef2:	6666                	flw	fa2,88(sp)
    2ef4:	6666                	flw	fa2,88(sp)
    2ef6:	6666                	flw	fa2,88(sp)
    2ef8:	6666                	flw	fa2,88(sp)
    2efa:	6666                	flw	fa2,88(sp)
    2efc:	6666                	flw	fa2,88(sp)
    2efe:	6666                	flw	fa2,88(sp)
    2f00:	4c4c                	lw	a1,28(s0)
	...

00002f03 <.LASF683>:
    2f03:	5f5f 6e69 3174      	0x31746e695f5f
    2f09:	5f36                	lw	t5,108(sp)
    2f0b:	5f74                	lw	a3,124(a4)
    2f0d:	6564                	flw	fs1,76(a0)
    2f0f:	6966                	flw	fs2,88(sp)
    2f11:	656e                	flw	fa0,216(sp)
    2f13:	2064                	fld	fs1,192(s0)
    2f15:	0031                	c.nop	12

00002f17 <.LASF363>:
    2f17:	475f 494c 4342      	0x4342494c475f
    2f1d:	5858                	lw	a4,52(s0)
    2f1f:	525f 4c45 4145      	0x41454c45525f
    2f25:	31204553          	0x31204553
    2f29:	0030                	addi	a2,sp,8

00002f2b <.LASF362>:
    2f2b:	475f 494c 4342      	0x4342494c475f
    2f31:	5858                	lw	a4,52(s0)
    2f33:	435f 5858 435f      	0x435f5858435f
    2f39:	49464e4f          	fnmadd.s	ft8,fa2,fs4,fs1,rmm
    2f3d:	20485f47          	fmsub.s	ft10,fa6,ft4,ft4,unknown
    2f41:	0031                	c.nop	12

00002f43 <.LASF91>:
    2f43:	5f5f 7063 5f70      	0x5f7070635f5f
    2f49:	6572                	flw	fa0,28(sp)
    2f4b:	7574                	flw	fa3,108(a0)
    2f4d:	6e72                	flw	ft8,28(sp)
    2f4f:	745f 7079 5f65      	0x5f657079745f
    2f55:	6564                	flw	fs1,76(a0)
    2f57:	7564                	flw	fs1,108(a0)
    2f59:	6f697463          	bgeu	s2,s6,3641 <.LASF804+0x3>
    2f5d:	206e                	fld	ft0,216(sp)
    2f5f:	3032                	fld	ft0,296(sp)
    2f61:	3331                	jal	2c6d <.LASF370+0x12>
    2f63:	3430                	fld	fa2,104(s0)
    2f65:	004c                	addi	a1,sp,4

00002f67 <.LASF791>:
    2f67:	5f5f 6e69 7074      	0x70746e695f5f
    2f6d:	7274                	flw	fa3,100(a2)
    2f6f:	745f        	0x4c475f00745f

00002f72 <.LASF528>:
    2f72:	475f 494c 4342      	0x4342494c475f
    2f78:	5858                	lw	a4,52(s0)
    2f7a:	485f 5641 5f45      	0x5f455641485f
    2f80:	444c                	lw	a1,12(s0)
    2f82:	5845                	li	a6,-15
    2f84:	4650                	lw	a2,12(a2)
    2f86:	3120                	fld	fs0,96(a0)
	...

00002f89 <.LASF881>:
    2f89:	5a5f 374e 7073      	0x7073374e5a5f
    2f8f:	6f72                	flw	ft10,28(sp)
    2f91:	43745f63          	bge	s0,s7,33cf <.LASF607+0x4>
    2f95:	4532                	lw	a0,12(sp)
    2f97:	3150                	fld	fa2,160(a0)
    2f99:	6531                	lui	a0,0xc
    2f9b:	6578                	flw	fa4,76(a0)
    2f9d:	61625f63          	bge	tp,s6,35bb <.LASF512+0xc>
    2fa1:	745f6573          	csrrsi	a0,0x745,30
    2fa5:	6879                	lui	a6,0x1e
	...

00002fa8 <.LASF140>:
    2fa8:	5f5f 4f4c 474e      	0x474e4f4c5f5f
    2fae:	575f 4449 4854      	0x48544449575f
    2fb4:	5f5f 3320 0032      	0x3233205f5f

00002fba <.LASF520>:
    2fba:	475f 494c 4342      	0x4342494c475f
    2fc0:	5858                	lw	a4,52(s0)
    2fc2:	485f 5641 5f45      	0x5f455641485f
    2fc8:	5948                	lw	a0,52(a0)
    2fca:	4f50                	lw	a2,28(a4)
    2fcc:	2054                	fld	fa3,128(s0)
    2fce:	0031                	c.nop	12

00002fd0 <.LASF750>:
    2fd0:	41484357          	0x41484357
    2fd4:	5f52                	lw	t5,52(sp)
    2fd6:	414d                	li	sp,19
    2fd8:	2058                	fld	fa4,128(s0)
    2fda:	5f28                	lw	a0,120(a4)
    2fdc:	575f 4843 5241      	0x52414843575f
    2fe2:	4d5f 5841 5f5f      	0x5f5f58414d5f
    2fe8:	0029                	c.nop	10

00002fea <.LASF666>:
    2fea:	5f5f 4e49 3154      	0x31544e495f5f
    2ff0:	2036                	fld	ft0,328(sp)
    2ff2:	6822                	flw	fa6,8(sp)
    2ff4:	0022                	c.slli	zero,0x8

00002ff6 <.LASF617>:
    2ff6:	4e5f 5745 494c      	0x494c57454e5f
    2ffc:	5f42                	lw	t5,48(sp)
    2ffe:	4556                	lw	a0,84(sp)
    3000:	5352                	lw	t1,52(sp)
    3002:	4f49                	li	t5,18
    3004:	5f4e                	lw	t5,240(sp)
    3006:	5f48                	lw	a0,60(a4)
    3008:	205f 0031       	0x5f5f0031205f

0000300c <.LASF338>:
    300c:	5f5f 4347 5f43      	0x5f4343475f5f
    3012:	5441                	li	s0,-16
    3014:	43494d4f          	fnmadd.d	fs10,fs2,fs4,fs0,rmm
    3018:	4c5f 4e4f 5f47      	0x5f474e4f4c5f
    301e:	4f4c                	lw	a1,28(a4)
    3020:	465f4b43          	fmadd.q	fs6,ft10,ft5,fs0,rmm
    3024:	4552                	lw	a0,20(sp)
    3026:	2045                	jal	30c6 <.LASF262+0x15>
    3028:	0032                	c.slli	zero,0xc

0000302a <.LASF862>:
    302a:	5a5f 374e 7073      	0x7073374e5a5f
    3030:	6f72                	flw	ft10,28(sp)
    3032:	31745f63          	bge	s0,s7,3350 <.LASF48+0x18>
    3036:	7330                	flw	fa2,96(a4)
    3038:	6574                	flw	fa3,76(a0)
    303a:	6d72                	flw	fs10,28(sp)
    303c:	6e69                	lui	t3,0x1a
    303e:	7461                	lui	s0,0xffff8
    3040:	4565                	li	a0,25
    3042:	0076                	c.slli	zero,0x1d

00003044 <.LASF775>:
    3044:	5f5f 6975 746e      	0x746e69755f5f
    304a:	745f3233          	0x745f3233
	...

0000304f <.LASF476>:
    304f:	505f 5453 5f4c      	0x5f4c5453505f
    3055:	5250                	lw	a2,36(a2)
    3057:	4741                	li	a4,16
    3059:	414d                	li	sp,19
    305b:	4c5f 434f 5441      	0x5441434f4c5f
    3061:	4f49                	li	t5,18
    3063:	204e                	fld	ft0,208(sp)
    3065:	2022                	fld	ft0,8(sp)
    3067:	7261505b          	0x7261505b
    306b:	6c61                	lui	s8,0x18
    306d:	656c                	flw	fa1,76(a0)
    306f:	206c                	fld	fa1,192(s0)
    3071:	204c5453          	0x204c5453
    3075:	656d                	lui	a0,0x1b
    3077:	67617373          	csrrci	t1,0x676,2
    307b:	5d65                	li	s10,-7
    307d:	203a                	fld	ft0,392(sp)
    307f:	0022                	c.slli	zero,0x8

00003081 <.LASF601>:
    3081:	475f 494c 4342      	0x4342494c475f
    3087:	5858                	lw	a4,52(s0)
    3089:	555f 4553 435f      	0x435f4553555f
    308f:	3939                	jal	2cad <.LASF249+0x12>
    3091:	495f 544e 5954      	0x5954544e495f
    3097:	4550                	lw	a2,12(a0)
    3099:	52545f53          	0x52545f53
    309d:	2031                	jal	30a9 <.LASF202+0x8>
    309f:	0031                	c.nop	12

000030a1 <.LASF202>:
    30a1:	5f5f 4c46 5f54      	0x5f544c465f5f
    30a7:	4152                	lw	sp,20(sp)
    30a9:	4944                	lw	s1,20(a0)
    30ab:	5f58                	lw	a4,60(a4)
    30ad:	205f 0032       	0x5f5f0032205f

000030b1 <.LASF262>:
    30b1:	5f5f 4c46 3354      	0x33544c465f5f
    30b7:	5f32                	lw	t5,44(sp)
    30b9:	4148                	lw	a0,4(a0)
    30bb:	4e495f53          	0x4e495f53
    30bf:	4946                	lw	s2,80(sp)
    30c1:	494e                	lw	s2,208(sp)
    30c3:	5954                	lw	a3,52(a0)
    30c5:	5f5f 3120       	0x5f0031205f5f

000030ca <.LASF115>:
    30ca:	5f5f 7063 5f70      	0x5f7070635f5f
    30d0:	6176                	flw	ft2,92(sp)
    30d2:	6972                	flw	fs2,28(sp)
    30d4:	6461                	lui	s0,0x18
    30d6:	6369                	lui	t1,0x1a
    30d8:	755f 6973 676e      	0x676e6973755f
    30de:	3220                	fld	fs0,96(a2)
    30e0:	3130                	fld	fa2,96(a0)
    30e2:	3136                	fld	ft2,360(sp)
    30e4:	4c31                	li	s8,12
	...

000030e7 <.LASF443>:
    30e7:	505f 5453 5f4c      	0x5f4c5453505f
    30ed:	464e4f43          	fmadd.q	ft10,ft8,ft4,fs0,rmm
    30f1:	4749                	li	a4,18
    30f3:	485f 0020       	0x5f5f0020485f

000030f7 <.LASF248>:
    30f7:	5f5f 444c 4c42      	0x4c42444c5f5f
    30fd:	485f 5341 515f      	0x515f5341485f
    3103:	4955                	li	s2,21
    3105:	5445                	li	s0,-15
    3107:	4e5f 4e41 5f5f      	0x5f5f4e414e5f
    310d:	3120                	fld	fs0,96(a0)
	...

00003110 <.LASF857>:
    3110:	737e                	flw	ft6,252(sp)
    3112:	7270                	flw	fa2,100(a2)
    3114:	745f636f          	jal	t1,fa058 <.LASF439+0xf3fe9>
	...

00003119 <.LASF560>:
    3119:	475f 494c 4342      	0x4342494c475f
    311f:	5858                	lw	a4,52(s0)
    3121:	485f 5641 5f45      	0x5f455641485f
    3127:	5f535953          	0x5f535953
    312b:	5954                	lw	a3,52(a0)
    312d:	4550                	lw	a2,12(a0)
    312f:	20485f53          	0x20485f53
    3133:	0031                	c.nop	12

00003135 <.LASF603>:
    3135:	475f 494c 4342      	0x4342494c475f
    313b:	5858                	lw	a4,52(s0)
    313d:	555f 4553 435f      	0x435f4553555f
    3143:	3939                	jal	2d61 <.LASF333+0x19>
    3145:	535f 4454 4e49      	0x4e494454535f
    314b:	5f54                	lw	a3,60(a4)
    314d:	5254                	lw	a3,36(a2)
    314f:	2031                	jal	315b <.LASF869+0x8>
    3151:	0031                	c.nop	12

00003153 <.LASF869>:
    3153:	6564                	flw	fs1,76(a0)
    3155:	616c                	flw	fa1,68(a0)
    3157:	5f79                	li	t5,-2
    3159:	6361                	lui	t1,0x18
    315b:	756d7563          	bgeu	s10,s6,38a5 <.LASF83+0x9>
    315f:	616c                	flw	fa1,68(a0)
    3161:	6574                	flw	fa3,76(a0)
    3163:	5f64                	lw	s1,124(a4)
    3165:	7270                	flw	fa2,100(a2)
    3167:	7665                	lui	a2,0xffff9
	...

0000316a <.LASF527>:
    316a:	475f 494c 4342      	0x4342494c475f
    3170:	5858                	lw	a4,52(s0)
    3172:	485f 5641 5f45      	0x5f455641485f
    3178:	434c                	lw	a1,4(a4)
    317a:	4d5f 5345 4153      	0x415353454d5f
    3180:	20534547          	fmsub.s	fa0,ft6,ft5,ft4,rmm
    3184:	0031                	c.nop	12

00003186 <.LASF355>:
    3186:	5f5f 6972 6373      	0x637369725f5f
    318c:	5f76                	lw	t5,124(sp)
    318e:	646f6d63          	bltu	t5,t1,37e8 <.LASF621+0xb>
    3192:	6c65                	lui	s8,0x19
    3194:	6d5f 6465 6f6c      	0x6f6c64656d5f
    319a:	00312077          	0x312077

0000319e <.LASF195>:
    319e:	5f5f 4e49 5054      	0x50544e495f5f
    31a4:	5254                	lw	a3,36(a2)
    31a6:	575f 4449 4854      	0x48544449575f
    31ac:	5f5f 3320 0032      	0x3233205f5f

000031b2 <.LASF339>:
    31b2:	5f5f 4347 5f43      	0x5f4343475f5f
    31b8:	5441                	li	s0,-16
    31ba:	43494d4f          	fnmadd.d	fs10,fs2,fs4,fs0,rmm
    31be:	4c5f 4f4c 474e      	0x474e4f4c4c5f
    31c4:	4c5f 434f 5f4b      	0x5f4b434f4c5f
    31ca:	5246                	lw	tp,112(sp)
    31cc:	4545                	li	a0,17
    31ce:	3120                	fld	fs0,96(a0)
	...

000031d1 <.LASF400>:
    31d1:	475f 494c 4342      	0x4342494c475f
    31d7:	5858                	lw	a4,52(s0)
    31d9:	535f 4454 435f      	0x435f4454535f
    31df:	7320                	flw	fs0,96(a4)
    31e1:	6474                	flw	fa3,76(s0)
	...

000031e4 <.LASF268>:
    31e4:	5f5f 4c46 3654      	0x36544c465f5f
    31ea:	5f34                	lw	a3,120(a4)
    31ec:	414d                	li	sp,19
    31ee:	5f58                	lw	a4,60(a4)
    31f0:	5845                	li	a6,-15
    31f2:	5f50                	lw	a2,60(a4)
    31f4:	205f 3031 3432      	0x34323031205f
	...

000031fb <.LASF810>:
    31fb:	6e69                	lui	t3,0x1a
    31fd:	5f74                	lw	a3,124(a4)
    31ff:	656c                	flw	fa1,76(a0)
    3201:	7361                	lui	t1,0xffff8
    3203:	3374                	fld	fa3,224(a4)
    3205:	5f32                	lw	t5,44(sp)
    3207:	0074                	addi	a3,sp,12

00003209 <.LASF639>:
    3209:	5f5f 695f 746e      	0x746e695f5f5f
    320f:	745f3233          	0x745f3233
    3213:	645f 6665 6e69      	0x6e696665645f
    3219:	6465                	lui	s0,0x19
    321b:	3120                	fld	fs0,96(a0)
	...

0000321e <.LASF241>:
    321e:	5f5f 444c 4c42      	0x4c42444c5f5f
    3224:	4d5f 5841 5f5f      	0x5f5f58414d5f
    322a:	3120                	fld	fs0,96(a0)
    322c:	312e                	fld	ft2,232(sp)
    322e:	3938                	fld	fa4,112(a0)
    3230:	34313337          	lui	t1,0x34313
    3234:	3539                	jal	3042 <.LASF862+0x18>
    3236:	32373533          	0x32373533
    323a:	36373133          	0x36373133
    323e:	3035                	jal	2a6a <.LASF240+0x16>
    3240:	3538                	fld	fa4,104(a0)
    3242:	33393537          	lui	a0,0x33393
    3246:	3632                	fld	fa2,296(sp)
    3248:	3236                	fld	ft4,360(sp)
    324a:	3038                	fld	fa4,96(s0)
    324c:	3730                	fld	fa2,104(a4)
    324e:	3230                	fld	fa2,96(a2)
    3250:	2b65                	jal	3808 <.LASF398+0x13>
    3252:	3934                	fld	fa3,112(a0)
    3254:	004c3233          	sltu	tp,s8,tp

00003258 <.LASF143>:
    3258:	5f5f 4957 544e      	0x544e49575f5f
    325e:	575f 4449 4854      	0x48544449575f
    3264:	5f5f 3320 0032      	0x3233205f5f

0000326a <.LASF45>:
    326a:	5f5f 4e49 3654      	0x36544e495f5f
    3270:	5f34                	lw	a3,120(a4)
    3272:	5954                	lw	a3,52(a0)
    3274:	4550                	lw	a2,12(a0)
    3276:	5f5f 6c20 6e6f      	0x6e6f6c205f5f
    327c:	6f6c2067          	0x6f6c2067
    3280:	676e                	flw	fa4,216(sp)
    3282:	6920                	flw	fs0,80(a0)
    3284:	746e                	flw	fs0,248(sp)
	...

00003287 <.LASF24>:
    3287:	5f5f 4843 5241      	0x524148435f5f
    328d:	425f 5449 5f5f      	0x5f5f5449425f
    3293:	3820                	fld	fs0,112(s0)
	...

00003296 <.LASF831>:
    3296:	5a5f 334e 6373      	0x6373334e5a5f
    329c:	3168                	fld	fa0,224(a0)
    329e:	7330                	flw	fa2,96(a4)
    32a0:	7270                	flw	fa2,100(a2)
    32a2:	6b5f636f          	jal	t1,fa156 <.LASF439+0xf40e7>
    32a6:	6c69                	lui	s8,0x1a
    32a8:	456c                	lw	a1,76(a0)
    32aa:	3750                	fld	fa2,168(a4)
    32ac:	6f727073          	csrci	0x6f7,4
    32b0:	00745f63          	bge	s0,t2,32ce <.LASF428+0x5>

000032b4 <.LASF344>:
    32b4:	5f5f 4953 455a      	0x455a49535f5f
    32ba:	575f464f          	fnmadd.q	fa2,ft10,fs5,fa0,rmm
    32be:	52414843          	fmadd.d	fa6,ft2,ft4,fa0,rmm
    32c2:	545f 5f5f 3420      	0x34205f5f545f
	...

000032c9 <.LASF428>:
    32c9:	5f5f 284e 736d      	0x736d284e5f5f
    32cf:	29646967          	0x29646967
    32d3:	2820                	fld	fs0,80(s0)
    32d5:	736d                	lui	t1,0xffffb
    32d7:	29646967          	0x29646967
	...

000032dc <.LASF625>:
    32dc:	5f5f 5342 5f44      	0x5f4453425f5f
    32e2:	4956                	lw	s2,84(sp)
    32e4:	4c424953          	0x4c424953
    32e8:	2045                	jal	3388 <.LASF737+0x15>
    32ea:	0030                	addi	a2,sp,8

000032ec <.LASF847>:
    32ec:	72617473          	csrrci	s0,0x726,2
    32f0:	00746567          	0x746567

000032f4 <.LASF482>:
    32f4:	475f 494c 4342      	0x4342494c475f
    32fa:	5858                	lw	a4,52(s0)
    32fc:	485f 5641 5f45      	0x5f455641485f
    3302:	4341                	li	t1,16
    3304:	2046534f          	fnmadd.s	ft6,fa2,ft4,ft4,unknown
    3308:	0031                	c.nop	12

0000330a <.LASF803>:
    330a:	6975                	lui	s2,0x1d
    330c:	746e                	flw	fs0,248(sp)
    330e:	616d                	addi	sp,sp,240
    3310:	5f78                	lw	a4,124(a4)
    3312:	0074                	addi	a3,sp,12

00003314 <.LASF101>:
    3314:	5f5f 7063 5f70      	0x5f7070635f5f
    331a:	6e65                	lui	t3,0x19
    331c:	6d75                	lui	s10,0x1d
    331e:	7265                	lui	tp,0xffff9
    3320:	7461                	lui	s0,0xffff8
    3322:	615f726f          	jal	tp,fb136 <.LASF439+0xf50c7>
    3326:	7474                	flw	fa3,108(s0)
    3328:	6972                	flw	fs2,28(sp)
    332a:	7562                	flw	fa0,56(sp)
    332c:	6574                	flw	fa3,76(a0)
    332e:	30322073          	csrs	mideleg,tp
    3332:	3431                	jal	2d3e <.LASF225+0x36>
    3334:	3131                	jal	2f40 <.LASF362+0x15>
    3336:	004c                	addi	a1,sp,4

00003338 <.LASF48>:
    3338:	5f5f 4955 544e      	0x544e49555f5f
    333e:	545f3233          	0x545f3233
    3342:	5059                	c.li	zero,-10
    3344:	5f45                	li	t5,-15
    3346:	205f 6f6c 676e      	0x676e6f6c205f
    334c:	7520                	flw	fs0,104(a0)
    334e:	736e                	flw	ft6,248(sp)
    3350:	6769                	lui	a4,0x1a
    3352:	656e                	flw	fa0,216(sp)
    3354:	2064                	fld	fs1,192(s0)
    3356:	6e69                	lui	t3,0x1a
    3358:	0074                	addi	a3,sp,12

0000335a <.LASF381>:
    335a:	475f 494c 4342      	0x4342494c475f
    3360:	5858                	lw	a4,52(s0)
    3362:	3731                	jal	326e <.LASF45+0x4>
    3364:	495f 4c4e 4e49      	0x4e494c4e495f
    336a:	2045                	jal	340a <.LASF205+0x1>
    336c:	6e69                	lui	t3,0x1a
    336e:	696c                	flw	fa1,84(a0)
    3370:	656e                	flw	fa0,216(sp)
	...

00003373 <.LASF737>:
    3373:	4955                	li	s2,21
    3375:	544e                	lw	s0,240(sp)
    3377:	465f 5341 3354      	0x33545341465f
    337d:	5f32                	lw	t5,44(sp)
    337f:	414d                	li	sp,19
    3381:	2058                	fld	fa4,128(s0)
    3383:	5f28                	lw	a0,120(a4)
    3385:	555f 4e49 5f54      	0x5f544e49555f
    338b:	4146                	lw	sp,80(sp)
    338d:	32335453          	0x32335453
    3391:	4d5f 5841 5f5f      	0x5f5f58414d5f
    3397:	0029                	c.nop	10

00003399 <.LASF72>:
    3399:	5f5f 5847 5f58      	0x5f5858475f5f
    339f:	5845                	li	a6,-15
    33a1:	4550                	lw	a2,12(a0)
    33a3:	4952                	lw	s2,20(sp)
    33a5:	454d                	li	a0,19
    33a7:	544e                	lw	s0,240(sp)
    33a9:	4c41                	li	s8,16
    33ab:	435f 5858 5830      	0x58305858435f
    33b1:	5f5f 3120       	0x5f0031205f5f

000033b6 <.LASF634>:
    33b6:	5f5f 5845 2850      	0x285058455f5f
    33bc:	2978                	fld	fa4,208(a0)
    33be:	5f20                	lw	s0,120(a4)
    33c0:	205f 2323 2078      	0x20782323205f
    33c6:	5f5f2323          	sw	s5,1510(t5) # 1a5e6 <.LASF439+0x14577>
	...

000033cb <.LASF607>:
    33cb:	475f 494c 4342      	0x4342494c475f
    33d1:	5858                	lw	a4,52(s0)
    33d3:	555f 4553 575f      	0x575f4553555f
    33d9:	52414843          	fmadd.d	fa6,ft2,ft4,fa0,rmm
    33dd:	545f 3120       	0x5f003120545f

000033e2 <.LASF29>:
    33e2:	5f5f 5942 4554      	0x455459425f5f
    33e8:	4f5f 4452 5245      	0x524544524f5f
    33ee:	5f5f 5f20 4f5f      	0x4f5f5f205f5f
    33f4:	4452                	lw	s0,20(sp)
    33f6:	5245                	li	tp,-15
    33f8:	4c5f 5449 4c54      	0x4c5454494c5f
    33fe:	5f45                	li	t5,-15
    3400:	4e45                	li	t3,17
    3402:	4944                	lw	s1,20(a0)
    3404:	4e41                	li	t3,16
    3406:	5f5f        	0x465f5f005f5f

00003409 <.LASF205>:
    3409:	5f5f 4c46 5f54      	0x5f544c465f5f
    340f:	494d                	li	s2,19
    3411:	5f4e                	lw	t5,240(sp)
    3413:	5845                	li	a6,-15
    3415:	5f50                	lw	a2,60(a4)
    3417:	205f 2d28 3231      	0x32312d28205f
    341d:	2935                	jal	3859 <.LASF854+0x4>
	...

00003420 <.LASF302>:
    3420:	5f5f 4c46 3354      	0x33544c465f5f
    3426:	5832                	lw	a6,44(sp)
    3428:	4e5f 524f 5f4d      	0x5f4d524f4e5f
    342e:	414d                	li	sp,19
    3430:	5f58                	lw	a4,60(a4)
    3432:	205f 2e31 3937      	0x39372e31205f
    3438:	33393637          	lui	a2,0x33393
    343c:	3331                	jal	3148 <.LASF603+0x13>
    343e:	3834                	fld	fa3,112(s0)
    3440:	3236                	fld	ft4,360(sp)
    3442:	37353133          	0x37353133
    3446:	3830                	fld	fa2,112(s0)
    3448:	3431                	jal	2e54 <.LASF633+0x6>
    344a:	3235                	jal	2d76 <.LASF222+0x2>
    344c:	33323437          	lui	s0,0x33323
    3450:	37313337          	lui	t1,0x37313
    3454:	3430                	fld	fa2,104(s0)
    3456:	65373533          	0x65373533
    345a:	3830332b          	0x3830332b
    345e:	3346                	fld	ft6,112(sp)
    3460:	7832                	flw	fa6,44(sp)
	...

00003463 <.LASF35>:
    3463:	5f5f 4357 4148      	0x414843575f5f
    3469:	5f52                	lw	t5,52(sp)
    346b:	5954                	lw	a3,52(a0)
    346d:	4550                	lw	a2,12(a0)
    346f:	5f5f 6920 746e      	0x746e69205f5f
	...

00003476 <.LASF359>:
    3476:	584c                	lw	a1,52(s0)
    3478:	4154                	lw	a3,4(a0)
    347a:	5f4c                	lw	a1,60(a4)
    347c:	4156                	lw	sp,84(sp)
    347e:	554c                	lw	a1,44(a0)
    3480:	2045                	jal	3520 <.LASF511+0xe>
    3482:	36373233          	0x36373233
    3486:	0038                	addi	a4,sp,8

00003488 <.LASF586>:
    3488:	475f 494c 4342      	0x4342494c475f
    348e:	5858                	lw	a4,52(s0)
    3490:	3131                	jal	309c <.LASF601+0x1b>
    3492:	555f 4553 435f      	0x435f4553555f
    3498:	3939                	jal	30b6 <.LASF262+0x5>
    349a:	575f 4843 5241      	0x52414843575f
    34a0:	3120                	fld	fs0,96(a0)
	...

000034a3 <.LASF840>:
    34a3:	4c4c4143          	0x4c4c4143
    34a7:	4142                	lw	sp,16(sp)
    34a9:	          	fmadd.q	fs6,ft0,fa6,fa1,rmm

000034ac <.LASF103>:
    34ac:	5f5f 7063 5f70      	0x5f7070635f5f
    34b2:	6f66                	flw	ft10,88(sp)
    34b4:	646c                	flw	fa1,76(s0)
    34b6:	655f 7078 6572      	0x65727078655f
    34bc:	6f697373          	csrrci	t1,0x6f6,18
    34c0:	736e                	flw	ft6,248(sp)
    34c2:	3220                	fld	fs0,96(a2)
    34c4:	3130                	fld	fa2,96(a0)
    34c6:	3036                	fld	ft0,360(sp)
    34c8:	          	0x5f004c33

000034cb <.LASF699>:
    34cb:	5f5f 6e69 5f74      	0x5f746e695f5f
    34d1:	6166                	flw	ft2,88(sp)
    34d3:	36317473          	csrrci	s0,0x363,2
    34d7:	745f 645f 6665      	0x6665645f745f
    34dd:	6e69                	lui	t3,0x1a
    34df:	6465                	lui	s0,0x19
    34e1:	3120                	fld	fs0,96(a0)
	...

000034e4 <.LASF789>:
    34e4:	5f5f 6e69 6d74      	0x6d746e695f5f
    34ea:	7861                	lui	a6,0xffff8
    34ec:	745f        	0x746f6e00745f

000034ef <.LASF865>:
    34ef:	6f6e                	flw	ft10,216(sp)
    34f1:	5f74                	lw	a3,124(a4)
    34f3:	6f64                	flw	fs1,92(a4)
    34f5:	656e                	flw	fa0,216(sp)
	...

000034f8 <.LASF724>:
    34f8:	4e49                	li	t3,18
    34fa:	3654                	fld	fa3,168(a2)
    34fc:	5f34                	lw	a3,120(a4)
    34fe:	414d                	li	sp,19
    3500:	2058                	fld	fa4,128(s0)
    3502:	5f28                	lw	a0,120(a4)
    3504:	495f 544e 3436      	0x3436544e495f
    350a:	4d5f 5841 5f5f      	0x5f5f58414d5f
    3510:	0029                	c.nop	10

00003512 <.LASF511>:
    3512:	475f 494c 4342      	0x4342494c475f
    3518:	5858                	lw	a4,52(s0)
    351a:	485f 5641 5f45      	0x5f455641485f
    3520:	4146                	lw	sp,80(sp)
    3522:	5342                	lw	t1,48(sp)
    3524:	2046                	fld	ft0,80(sp)
    3526:	0031                	c.nop	12

00003528 <.LASF10>:
    3528:	5f5f 5441 4d4f      	0x4d4f54415f5f
    352e:	4349                	li	t1,18
    3530:	535f 5145 435f      	0x435f5145535f
    3536:	35205453          	0x35205453
	...

0000353b <.LASF620>:
    353b:	5f5f 454e 4c57      	0x4c57454e5f5f
    3541:	4249                	li	tp,18
    3543:	4d5f 4e49 524f      	0x524f4e494d5f
    3549:	5f5f 3220       	0x5f0032205f5f

0000354e <.LASF485>:
    354e:	475f 494c 4342      	0x4342494c475f
    3554:	5858                	lw	a4,52(s0)
    3556:	485f 5641 5f45      	0x5f455641485f
    355c:	5441                	li	s0,-16
    355e:	4e41                	li	t3,16
    3560:	4632                	lw	a2,12(sp)
    3562:	3120                	fld	fs0,96(a0)
	...

00003565 <.LASF201>:
    3565:	5f5f 4544 5f43      	0x5f4345445f5f
    356b:	5645                	li	a2,-15
    356d:	4c41                	li	s8,16
    356f:	4d5f 5445 4f48      	0x4f4854454d5f
    3575:	5f44                	lw	s1,60(a4)
    3577:	205f 0032       	0x49550032205f

0000357b <.LASF758>:
    357b:	4955                	li	s2,21
    357d:	544e                	lw	s0,240(sp)
    357f:	435f3233          	0x435f3233
    3583:	7828                	flw	fa0,112(s0)
    3585:	2029                	jal	358f <.LASF758+0x14>
    3587:	5f5f 4955 544e      	0x544e49555f5f
    358d:	435f3233          	0x435f3233
    3591:	7828                	flw	fa0,112(s0)
    3593:	0029                	c.nop	10

00003595 <.LASF583>:
    3595:	475f 494c 4342      	0x4342494c475f
    359b:	5858                	lw	a4,52(s0)
    359d:	3131                	jal	31a9 <.LASF195+0xb>
    359f:	555f 4553 435f      	0x435f4553555f
    35a5:	3939                	jal	31c3 <.LASF339+0x11>
    35a7:	4d5f 5441 2048      	0x204854414d5f
    35ad:	0031                	c.nop	12

000035af <.LASF512>:
    35af:	475f 494c 4342      	0x4342494c475f
    35b5:	5858                	lw	a4,52(s0)
    35b7:	485f 5641 5f45      	0x5f455641485f
    35bd:	4346                	lw	t1,80(sp)
    35bf:	544e                	lw	s0,240(sp)
    35c1:	5f4c                	lw	a1,60(a4)
    35c3:	2048                	fld	fa0,128(s0)
    35c5:	0031                	c.nop	12

000035c7 <.LASF36>:
    35c7:	5f5f 4957 544e      	0x544e49575f5f
    35cd:	545f 5059 5f45      	0x5f455059545f
    35d3:	205f 6e75 6973      	0x69736e75205f
    35d9:	64656e67          	0x64656e67
    35dd:	6920                	flw	fs0,80(a0)
    35df:	746e                	flw	fs0,248(sp)
	...

000035e2 <.LASF317>:
    35e2:	5f5f 4c46 3654      	0x36544c465f5f
    35e8:	5834                	lw	a3,112(s0)
    35ea:	4e5f 524f 5f4d      	0x5f4d524f4e5f
    35f0:	414d                	li	sp,19
    35f2:	5f58                	lw	a4,60(a4)
    35f4:	205f 2e31 3831      	0x38312e31205f
    35fa:	3739                	jal	3508 <.LASF724+0x10>
    35fc:	39343133          	0x39343133
    3600:	3335                	jal	332c <.LASF101+0x18>
    3602:	3735                	jal	352e <.LASF10+0x6>
    3604:	3332                	fld	ft6,296(sp)
    3606:	3731                	jal	3512 <.LASF511>
    3608:	3536                	fld	fa0,360(sp)
    360a:	3830                	fld	fa2,112(s0)
    360c:	3735                	jal	3538 <.LASF10+0x10>
    360e:	3935                	jal	324a <.LASF241+0x2c>
    3610:	36363233          	0x36363233
    3614:	3832                	fld	fa6,296(sp)
    3616:	3030                	fld	fa2,96(s0)
    3618:	65323037          	lui	zero,0x65323
    361c:	3339342b          	0x3339342b
    3620:	4632                	lw	a2,12(sp)
    3622:	3436                	fld	fs0,360(sp)
    3624:	0078                	addi	a4,sp,12

00003626 <.LASF391>:
    3626:	475f 494c 4342      	0x4342494c475f
    362c:	5858                	lw	a4,52(s0)
    362e:	555f 4553 445f      	0x445f4553555f
    3634:	4155                	li	sp,21
    3636:	5f4c                	lw	a1,60(a4)
    3638:	4241                	li	tp,16
    363a:	2049                	jal	36bc <.LASF204+0x6>
    363c:	0031                	c.nop	12

0000363e <.LASF804>:
    363e:	6e69                	lui	t3,0x1a
    3640:	7074                	flw	fa3,100(s0)
    3642:	7274                	flw	fa3,100(a2)
    3644:	745f        	0x4e5a5f00745f

00003647 <.LASF892>:
    3647:	5a5f 374e 7073      	0x7073374e5a5f
    364d:	6f72                	flw	ft10,28(sp)
    364f:	43745f63          	bge	s0,s7,3a8d <.LASF217+0x4>
    3653:	4532                	lw	a0,12(sp)
    3655:	4650                	lw	a2,12(a2)
    3657:	5076                	0x5076
    3659:	4576                	lw	a0,92(sp)
    365b:	6879                	lui	a6,0x1e
    365d:	005f3053          	fadd.s	ft0,ft10,ft5,rup

00003661 <.LASF301>:
    3661:	5f5f 4c46 3354      	0x33544c465f5f
    3667:	5832                	lw	a6,44(sp)
    3669:	4d5f 5841 5f5f      	0x5f5f58414d5f
    366f:	3120                	fld	fs0,96(a0)
    3671:	372e                	fld	fa4,232(sp)
    3673:	3739                	jal	3581 <.LASF758+0x6>
    3675:	3936                	fld	fs2,360(sp)
    3677:	34333133          	0x34333133
    367b:	3638                	fld	fa4,104(a2)
    367d:	3332                	fld	ft6,296(sp)
    367f:	3531                	jal	348b <.LASF586+0x3>
    3681:	31383037          	lui	zero,0x31383
    3685:	3534                	fld	fa3,104(a0)
    3687:	3732                	fld	fa4,296(sp)
    3689:	3234                	fld	fa3,96(a2)
    368b:	31333733          	0x31333733
    368f:	33343037          	lui	zero,0x33343
    3693:	3735                	jal	35bf <.LASF512+0x10>
    3695:	2b65                	jal	3c4d <.LASF214+0x12>
    3697:	46383033          	0x46383033
    369b:	00783233          	sltu	tp,a6,t2

0000369f <.LASF276>:
    369f:	5f5f 4c46 3654      	0x36544c465f5f
    36a5:	5f34                	lw	a3,120(a4)
    36a7:	4148                	lw	a0,4(a0)
    36a9:	45445f53          	0x45445f53
    36ad:	4f4e                	lw	t5,208(sp)
    36af:	4d52                	lw	s10,20(sp)
    36b1:	5f5f 3120       	0x5f0031205f5f

000036b6 <.LASF204>:
    36b6:	5f5f 4c46 5f54      	0x5f544c465f5f
    36bc:	4944                	lw	s1,20(a0)
    36be:	205f5f47          	fmsub.s	ft10,ft10,ft5,ft4,unknown
    36c2:	0036                	c.slli	zero,0xd

000036c4 <.LASF38>:
    36c4:	5f5f 4955 544e      	0x544e49555f5f
    36ca:	414d                	li	sp,19
    36cc:	5f58                	lw	a4,60(a4)
    36ce:	5954                	lw	a3,52(a0)
    36d0:	4550                	lw	a2,12(a0)
    36d2:	5f5f 6c20 6e6f      	0x6e6f6c205f5f
    36d8:	6f6c2067          	0x6f6c2067
    36dc:	676e                	flw	fa4,216(sp)
    36de:	7520                	flw	fs0,104(a0)
    36e0:	736e                	flw	ft6,248(sp)
    36e2:	6769                	lui	a4,0x1a
    36e4:	656e                	flw	fa0,216(sp)
    36e6:	2064                	fld	fs1,192(s0)
    36e8:	6e69                	lui	t3,0x1a
    36ea:	0074                	addi	a3,sp,12

000036ec <.LASF733>:
    36ec:	4e49                	li	t3,18
    36ee:	5f54                	lw	a3,60(a4)
    36f0:	4146                	lw	sp,80(sp)
    36f2:	36315453          	0x36315453
    36f6:	4d5f 5841 2820      	0x282058414d5f
    36fc:	5f5f 4e49 5f54      	0x5f544e495f5f
    3702:	4146                	lw	sp,80(sp)
    3704:	36315453          	0x36315453
    3708:	4d5f 5841 5f5f      	0x5f5f58414d5f
    370e:	0029                	c.nop	10

00003710 <.LASF448>:
    3710:	505f 5453 5f4c      	0x5f4c5453505f
    3716:	5355                	li	t1,-11
    3718:	4741                	li	a4,16
    371a:	5f45                	li	t5,-15
    371c:	4e524157          	0x4e524157
    3720:	4e49                	li	t3,18
    3722:	30205347          	fmsub.s	ft6,ft0,ft2,ft6,unknown
	...

00003727 <.LASF199>:
    3727:	5f5f 4c46 5f54      	0x5f544c465f5f
    372d:	5645                	li	a2,-15
    372f:	4c41                	li	s8,16
    3731:	4d5f 5445 4f48      	0x4f4854454d5f
    3737:	5f44                	lw	s1,60(a4)
    3739:	205f 0030       	0x475f0030205f

0000373d <.LASF487>:
    373d:	475f 494c 4342      	0x4342494c475f
    3743:	5858                	lw	a4,52(s0)
    3745:	485f 5641 5f45      	0x5f455641485f
    374b:	4c494543          	0x4c494543
    374f:	2046                	fld	ft0,80(sp)
    3751:	0031                	c.nop	12

00003753 <.LASF793>:
    3753:	6e75                	lui	t3,0x1d
    3755:	6e676973          	csrrsi	s2,0x6e6,14
    3759:	6465                	lui	s0,0x19
    375b:	6920                	flw	fs0,80(a0)
    375d:	746e                	flw	fs0,248(sp)
	...

00003760 <.LASF210>:
    3760:	5f5f 4c46 5f54      	0x5f544c465f5f
    3766:	414d                	li	sp,19
    3768:	5f58                	lw	a4,60(a4)
    376a:	205f 2e33 3034      	0x30342e33205f
    3770:	3832                	fld	fa6,296(sp)
    3772:	3332                	fld	ft6,296(sp)
    3774:	3634                	fld	fa3,104(a2)
    3776:	3336                	fld	ft6,360(sp)
    3778:	3538                	fld	fa4,104(a0)
    377a:	3832                	fld	fa6,296(sp)
    377c:	3538                	fld	fa4,104(a0)
    377e:	3839                	jal	2f9c <.LASF881+0x13>
    3780:	3131                	jal	338c <.LASF737+0x19>
    3782:	31343037          	lui	zero,0x31343
    3786:	3338                	fld	fa4,96(a4)
    3788:	3834                	fld	fa3,112(s0)
    378a:	3534                	fld	fa3,104(a0)
    378c:	3631                	jal	3298 <.LASF831+0x2>
    378e:	3239                	jal	309c <.LASF601+0x1b>
    3790:	6535                	lui	a0,0xd
    3792:	4638332b          	0x4638332b
	...

00003797 <.LASF126>:
    3797:	5f5f 4353 4148      	0x414843535f5f
    379d:	5f52                	lw	t5,52(sp)
    379f:	414d                	li	sp,19
    37a1:	5f58                	lw	a4,60(a4)
    37a3:	205f 7830 6637      	0x66377830205f
	...

000037aa <.LASF645>:
    37aa:	5f5f 5845 0050      	0x5058455f5f

000037b0 <.LASF183>:
    37b0:	5f5f 4e49 5f54      	0x5f544e495f5f
    37b6:	4146                	lw	sp,80(sp)
    37b8:	5f385453          	0x5f385453
    37bc:	54444957          	0x54444957
    37c0:	5f48                	lw	a0,60(a4)
    37c2:	205f 3233       	0x5f003233205f

000037c7 <.LASF486>:
    37c7:	475f 494c 4342      	0x4342494c475f
    37cd:	5858                	lw	a4,52(s0)
    37cf:	485f 5641 5f45      	0x5f455641485f
    37d5:	5441                	li	s0,-16
    37d7:	4e41                	li	t3,16
    37d9:	2046                	fld	ft0,80(sp)
    37db:	0031                	c.nop	12

000037dd <.LASF621>:
    37dd:	5f5f 454e 4c57      	0x4c57454e5f5f
    37e3:	4249                	li	tp,18
    37e5:	505f 5441 4843      	0x48435441505f
    37eb:	454c                	lw	a1,12(a0)
    37ed:	4556                	lw	a0,84(sp)
    37ef:	5f4c                	lw	a1,60(a4)
    37f1:	205f 0030       	0x475f0030205f

000037f5 <.LASF398>:
    37f5:	475f 494c 4342      	0x4342494c475f
    37fb:	5858                	lw	a4,52(s0)
    37fd:	425f 4745 4e49      	0x4e494745425f
    3803:	4e5f 4d41 5345      	0x53454d414e5f
    3809:	4150                	lw	a2,4(a0)
    380b:	565f4543          	fmadd.q	fa0,ft10,ft5,fa0,rmm
    380f:	5245                	li	tp,-15
    3811:	4e4f4953          	0x4e4f4953
    3815:	0020                	addi	s0,sp,8

00003817 <.LASF71>:
    3817:	5f5f 7063 5f70      	0x5f7070635f5f
    381d:	7472                	flw	fs0,60(sp)
    381f:	6974                	flw	fa3,84(a0)
    3821:	3120                	fld	fs0,96(a0)
    3823:	3939                	jal	3441 <.LASF302+0x21>
    3825:	4c313137          	lui	sp,0x4c313
	...

0000382a <.LASF284>:
    382a:	5f5f 4c46 3154      	0x31544c465f5f
    3830:	3832                	fld	fa6,296(sp)
    3832:	4d5f 5841 315f      	0x315f58414d5f
    3838:	5f30                	lw	a2,120(a4)
    383a:	5845                	li	a6,-15
    383c:	5f50                	lw	a2,60(a4)
    383e:	205f 3934 3233      	0x32333934205f
	...

00003845 <.LASF197>:
    3845:	5f5f 4347 5f43      	0x5f4343475f5f
    384b:	4549                	li	a0,18
    384d:	35355f43          	0x35355f43
    3851:	2039                	jal	385f <.LASF602+0x2>
    3853:	0030                	addi	a2,sp,8

00003855 <.LASF854>:
    3855:	6f727073          	csrci	0x6f7,4
    3859:	00745f63          	bge	s0,t2,3877 <.LASF602+0x1a>

0000385d <.LASF602>:
    385d:	475f 494c 4342      	0x4342494c475f
    3863:	5858                	lw	a4,52(s0)
    3865:	555f 4553 435f      	0x435f4553555f
    386b:	3939                	jal	3489 <.LASF586+0x1>
    386d:	495f 544e 5954      	0x5954544e495f
    3873:	4550                	lw	a2,12(a0)
    3875:	43575f53          	0x43575f53
    3879:	4148                	lw	a0,4(a0)
    387b:	5f52                	lw	t5,52(sp)
    387d:	5f54                	lw	a3,60(a4)
    387f:	5254                	lw	a3,36(a2)
    3881:	2031                	jal	388d <.LASF346+0x8>
    3883:	0031                	c.nop	12

00003885 <.LASF346>:
    3885:	5f5f 4953 455a      	0x455a49535f5f
    388b:	505f464f          	fnmadd.s	fa2,ft10,ft5,fa0,rmm
    388f:	5254                	lw	a3,36(a2)
    3891:	4944                	lw	s1,20(a0)
    3893:	4646                	lw	a2,80(sp)
    3895:	545f 5f5f 3420      	0x34205f5f545f
	...

0000389c <.LASF83>:
    389c:	5f5f 7063 5f70      	0x5f7070635f5f
    38a2:	7672                	flw	fa2,60(sp)
    38a4:	6c61                	lui	s8,0x18
    38a6:	6575                	lui	a0,0x1d
    38a8:	725f 6665 7265      	0x72656665725f
    38ae:	6e65                	lui	t3,0x19
    38b0:	20736563          	bltu	t1,t2,3aba <.LASF376+0x6>
    38b4:	3032                	fld	ft0,296(sp)
    38b6:	3630                	fld	fa2,104(a2)
    38b8:	3031                	jal	30c4 <.LASF262+0x13>
    38ba:	004c                	addi	a1,sp,4

000038bc <.LASF0>:
    38bc:	5f5f 5453 4344      	0x434454535f5f
    38c2:	5f5f 3120       	0x5f0031205f5f

000038c7 <.LASF392>:
    38c7:	475f 494c 4342      	0x4342494c475f
    38cd:	5858                	lw	a4,52(s0)
    38cf:	555f 4553 435f      	0x435f4553555f
    38d5:	5858                	lw	a4,52(s0)
    38d7:	3131                	jal	34e3 <.LASF699+0x18>
    38d9:	415f 4942 3120      	0x31204942415f
	...

000038e0 <.LASF641>:
    38e0:	5f5f 695f 746e      	0x746e695f5f5f
    38e6:	6c5f 6165 7473      	0x747361656c5f
    38ec:	5f38                	lw	a4,120(a4)
    38ee:	5f74                	lw	a3,124(a4)
    38f0:	6564                	flw	fs1,76(a0)
    38f2:	6966                	flw	fs2,88(sp)
    38f4:	656e                	flw	fa0,216(sp)
    38f6:	2064                	fld	fs1,192(s0)
    38f8:	0031                	c.nop	12

000038fa <.LASF888>:
    38fa:	6c616373          	csrrsi	t1,0x6c6,2
    38fe:	626c                	flw	fa1,68(a2)
    3900:	6361                	lui	t1,0x18
    3902:	00745f6b          	0x745f6b

00003906 <.LASF30>:
    3906:	5f5f 4c46 414f      	0x414f4c465f5f
    390c:	5f54                	lw	a3,60(a4)
    390e:	44524f57          	0x44524f57
    3912:	4f5f 4452 5245      	0x524544524f5f
    3918:	5f5f 5f20 4f5f      	0x4f5f5f205f5f
    391e:	4452                	lw	s0,20(sp)
    3920:	5245                	li	tp,-15
    3922:	4c5f 5449 4c54      	0x4c5454494c5f
    3928:	5f45                	li	t5,-15
    392a:	4e45                	li	t3,17
    392c:	4944                	lw	s1,20(a0)
    392e:	4e41                	li	t3,16
    3930:	5f5f        	0x544e49005f5f

00003933 <.LASF742>:
    3933:	4e49                	li	t3,18
    3935:	4d54                	lw	a3,28(a0)
    3937:	5841                	li	a6,-16
    3939:	4d5f 4e49 2820      	0x28204e494d5f
    393f:	492d                	li	s2,11
    3941:	544e                	lw	s0,240(sp)
    3943:	414d                	li	sp,19
    3945:	5f58                	lw	a4,60(a4)
    3947:	414d                	li	sp,19
    3949:	2058                	fld	fa4,128(s0)
    394b:	202d                	jal	3975 <.LASF816+0x8>
    394d:	2931                	jal	3d69 <.LASF112+0x1a>
	...

00003950 <.LASF46>:
    3950:	5f5f 4955 544e      	0x544e49555f5f
    3956:	5f38                	lw	a4,120(a4)
    3958:	5954                	lw	a3,52(a0)
    395a:	4550                	lw	a2,12(a0)
    395c:	5f5f 7520 736e      	0x736e75205f5f
    3962:	6769                	lui	a4,0x1a
    3964:	656e                	flw	fa0,216(sp)
    3966:	2064                	fld	fs1,192(s0)
    3968:	72616863          	bltu	sp,t1,4098 <.LASF303+0x3d>
	...

0000396d <.LASF816>:
    396d:	6e69                	lui	t3,0x1a
    396f:	5f74                	lw	a3,124(a4)
    3971:	6166                	flw	ft2,88(sp)
    3973:	36317473          	csrrci	s0,0x363,2
    3977:	745f        	0x695f5f00745f

0000397a <.LASF698>:
    397a:	5f5f 6e69 5f74      	0x5f746e695f5f
    3980:	6166                	flw	ft2,88(sp)
    3982:	5f387473          	csrrci	s0,0x5f3,16
    3986:	5f74                	lw	a3,124(a4)
    3988:	6564                	flw	fs1,76(a0)
    398a:	6966                	flw	fs2,88(sp)
    398c:	656e                	flw	fa0,216(sp)
    398e:	2064                	fld	fs1,192(s0)
    3990:	0031                	c.nop	12

00003992 <.LASF41>:
    3992:	5f5f 4953 5f47      	0x5f4749535f5f
    3998:	5441                	li	s0,-16
    399a:	43494d4f          	fnmadd.d	fs10,fs2,fs4,fs0,rmm
    399e:	545f 5059 5f45      	0x5f455059545f
    39a4:	205f 6e69 0074      	0x746e69205f

000039aa <.LASF837>:
    39aa:	74657373          	csrrci	t1,0x746,10
    39ae:	7075                	c.lui	zero,0xffffd
	...

000039b1 <.LASF138>:
    39b1:	5f5f 4853 5452      	0x545248535f5f
    39b7:	575f 4449 4854      	0x48544449575f
    39bd:	5f5f 3120 0036      	0x3631205f5f

000039c3 <.LASF28>:
    39c3:	5f5f 524f 4544      	0x4544524f5f5f
    39c9:	5f52                	lw	t5,52(sp)
    39cb:	4450                	lw	a2,12(s0)
    39cd:	5f50                	lw	a2,60(a4)
    39cf:	4e45                	li	t3,17
    39d1:	4944                	lw	s1,20(a0)
    39d3:	4e41                	li	t3,16
    39d5:	5f5f 3320 3134      	0x313433205f5f
    39db:	0032                	c.slli	zero,0xc

000039dd <.LASF703>:
    39dd:	4e49                	li	t3,18
    39df:	5054                	lw	a3,36(s0)
    39e1:	5254                	lw	a3,36(a2)
    39e3:	4d5f 5841 2820      	0x282058414d5f
    39e9:	5f5f 4e49 5054      	0x50544e495f5f
    39ef:	5254                	lw	a3,36(a2)
    39f1:	4d5f 5841 5f5f      	0x5f5f58414d5f
    39f7:	0029                	c.nop	10

000039f9 <.LASF451>:
    39f9:	505f 5453 5f4c      	0x5f4c5453505f
    39ff:	49525453          	0x49525453
    3a03:	474e                	lw	a4,208(sp)
    3a05:	7828                	flw	fa0,112(s0)
    3a07:	2029                	jal	3a11 <.LASF451+0x18>
    3a09:	505f 5453 5f4c      	0x5f4c5453505f
    3a0f:	49525453          	0x49525453
    3a13:	474e                	lw	a4,208(sp)
    3a15:	415f 5855 7828      	0x78285855415f
    3a1b:	0029                	c.nop	10

00003a1d <.LASF105>:
    3a1d:	5f5f 7063 5f70      	0x5f7070635f5f
    3a23:	6172                	flw	ft2,28(sp)
    3a25:	676e                	flw	fa4,216(sp)
    3a27:	5f65                	li	t5,-7
    3a29:	6162                	flw	ft2,24(sp)
    3a2b:	5f646573          	csrrsi	a0,0x5f6,8
    3a2f:	6f66                	flw	ft10,88(sp)
    3a31:	2072                	fld	ft0,280(sp)
    3a33:	3032                	fld	ft0,296(sp)
    3a35:	3631                	jal	3541 <.LASF620+0x6>
    3a37:	3330                	fld	fa2,96(a4)
    3a39:	004c                	addi	a1,sp,4

00003a3b <.LASF523>:
    3a3b:	475f 494c 4342      	0x4342494c475f
    3a41:	5858                	lw	a4,52(s0)
    3a43:	485f 5641 5f45      	0x5f455641485f
    3a49:	4e49                	li	t3,18
    3a4b:	3654                	fld	fa3,168(a2)
    3a4d:	5f34                	lw	a3,120(a4)
    3a4f:	2054                	fld	fa3,128(s0)
    3a51:	0031                	c.nop	12

00003a53 <.LASF95>:
    3a53:	5f5f 7063 5f70      	0x5f7070635f5f
    3a59:	6761                	lui	a4,0x18
    3a5b:	67657267          	0x67657267
    3a5f:	7461                	lui	s0,0xffff8
    3a61:	5f65                	li	t5,-7
    3a63:	736e                	flw	ft6,248(sp)
    3a65:	6d64                	flw	fs1,92(a0)
    3a67:	2069                	jal	3af1 <.LASF751+0x9>
    3a69:	3032                	fld	ft0,296(sp)
    3a6b:	3331                	jal	3777 <.LASF210+0x17>
    3a6d:	3430                	fld	fa2,104(s0)
    3a6f:	004c                	addi	a1,sp,4

00003a71 <.LASF890>:
    3a71:	5a5f 374e 7073      	0x7073374e5a5f
    3a77:	6f72                	flw	ft10,28(sp)
    3a79:	39745f63          	bge	s0,s7,3e17 <.LASF323+0x11>
    3a7d:	74657373          	csrrci	t1,0x746,10
    3a81:	6d5f 646f 4565      	0x4565646f6d5f
    3a87:	0068                	addi	a0,sp,12

00003a89 <.LASF217>:
    3a89:	5f5f 4c46 5f54      	0x5f544c465f5f
    3a8f:	4148                	lw	a0,4(a0)
    3a91:	55515f53          	0x55515f53
    3a95:	4549                	li	a0,18
    3a97:	5f54                	lw	a3,60(a4)
    3a99:	414e                	lw	sp,208(sp)
    3a9b:	5f4e                	lw	t5,240(sp)
    3a9d:	205f 0031       	0x5f5f0031205f

00003aa1 <.LASF624>:
    3aa1:	5f5f 5441 4946      	0x494654415f5f
    3aa7:	454c                	lw	a1,12(a0)
    3aa9:	565f 5349 4249      	0x42495349565f
    3aaf:	454c                	lw	a1,12(a0)
    3ab1:	3020                	fld	fs0,96(s0)
	...

00003ab4 <.LASF376>:
    3ab4:	475f 494c 4342      	0x4342494c475f
    3aba:	5858                	lw	a4,52(s0)
    3abc:	435f 4e4f 5453      	0x54534e4f435f
    3ac2:	5845                	li	a6,-15
    3ac4:	5250                	lw	a2,36(a2)
    3ac6:	6320                	flw	fs0,64(a4)
    3ac8:	74736e6f          	jal	t3,3aa0e <.LASF439+0x3499f>
    3acc:	7865                	lui	a6,0xffff9
    3ace:	7270                	flw	fa2,100(a2)
	...

00003ad1 <.LASF497>:
    3ad1:	475f 494c 4342      	0x4342494c475f
    3ad7:	5858                	lw	a4,52(s0)
    3ad9:	485f 5641 5f45      	0x5f455641485f
    3adf:	4e45                	li	t3,17
    3ae1:	4350534f          	fnmadd.d	ft6,ft0,fs5,fs0,unknown
    3ae5:	3120                	fld	fs0,96(a0)
	...

00003ae8 <.LASF751>:
    3ae8:	544e4957          	0x544e4957
    3aec:	4d5f 5841 2820      	0x282058414d5f
    3af2:	5f5f 4957 544e      	0x544e49575f5f
    3af8:	4d5f 5841 5f5f      	0x5f5f58414d5f
    3afe:	0029                	c.nop	10

00003b00 <.LASF260>:
    3b00:	5f5f 4c46 3354      	0x33544c465f5f
    3b06:	5f32                	lw	t5,44(sp)
    3b08:	4544                	lw	s1,12(a0)
    3b0a:	4f4e                	lw	t5,208(sp)
    3b0c:	4d52                	lw	s10,20(sp)
    3b0e:	4d5f 4e49 5f5f      	0x5f5f4e494d5f
    3b14:	3120                	fld	fs0,96(a0)
    3b16:	342e                	fld	fs0,232(sp)
    3b18:	3130                	fld	fa2,96(a0)
    3b1a:	3932                	fld	fs2,296(sp)
    3b1c:	3438                	fld	fa4,104(s0)
    3b1e:	3436                	fld	fs0,360(sp)
    3b20:	38343233          	0x38343233
    3b24:	3731                	jal	3a30 <.LASF105+0x13>
    3b26:	3730                	fld	fa2,104(a4)
    3b28:	3930                	fld	fa2,112(a0)
    3b2a:	3332                	fld	ft6,296(sp)
    3b2c:	35393237          	lui	tp,0x35393
    3b30:	3338                	fld	fa4,96(a4)
    3b32:	3832                	fld	fa6,296(sp)
    3b34:	3939                	jal	3752 <.LASF487+0x15>
    3b36:	3631                	jal	3642 <.LASF804+0x4>
    3b38:	3331                	jal	3844 <.LASF284+0x1a>
    3b3a:	2d65                	jal	41f2 <.LASF100+0x12>
    3b3c:	3534                	fld	fa3,104(a0)
    3b3e:	3346                	fld	ft6,112(sp)
    3b40:	0032                	c.slli	zero,0xc

00003b42 <.LASF833>:
    3b42:	6d697473          	csrrci	s0,0x6d6,18
    3b46:	7265                	lui	tp,0xffff9
    3b48:	655f 6576 746e      	0x746e6576655f
	...

00003b4f <.LASF389>:
    3b4f:	475f 494c 4342      	0x4342494c475f
    3b55:	5858                	lw	a4,52(s0)
    3b57:	4e5f 454f 4358      	0x4358454f4e5f
    3b5d:	5045                	c.li	zero,-15
    3b5f:	5f54                	lw	a3,60(a4)
    3b61:	5551                	li	a0,-12
    3b63:	4c41                	li	s8,16
    3b65:	6e20                	flw	fs0,88(a2)
    3b67:	6378656f          	jal	a0,8a99d <.LASF439+0x8492e>
    3b6b:	7065                	c.lui	zero,0xffff9
    3b6d:	2074                	fld	fa3,192(s0)
    3b6f:	5f28                	lw	a0,120(a4)
    3b71:	454e                	lw	a0,208(sp)
    3b73:	0029                	c.nop	10

00003b75 <.LASF556>:
    3b75:	475f 494c 4342      	0x4342494c475f
    3b7b:	5858                	lw	a4,52(s0)
    3b7d:	485f 5641 5f45      	0x5f455641485f
    3b83:	5f535953          	0x5f535953
    3b87:	4150                	lw	a2,4(a0)
    3b89:	4152                	lw	sp,20(sp)
    3b8b:	5f4d                	li	t5,-13
    3b8d:	2048                	fld	fa0,128(s0)
    3b8f:	0031                	c.nop	12

00003b91 <.LASF252>:
    3b91:	5f5f 4c46 3354      	0x33544c465f5f
    3b97:	5f32                	lw	t5,44(sp)
    3b99:	494d                	li	s2,19
    3b9b:	5f4e                	lw	t5,240(sp)
    3b9d:	3031                	jal	33a9 <.LASF72+0x10>
    3b9f:	455f 5058 5f5f      	0x5f5f5058455f
    3ba5:	2820                	fld	fs0,80(s0)
    3ba7:	332d                	jal	38d1 <.LASF392+0xa>
    3ba9:	          	lui	s2,0x5f002

00003bac <.LASF70>:
    3bac:	5f5f 5847 5f58      	0x5f5858475f5f
    3bb2:	5452                	lw	s0,52(sp)
    3bb4:	4954                	lw	a3,20(a0)
    3bb6:	3120                	fld	fs0,96(a0)
	...

00003bb9 <.LASF415>:
    3bb9:	475f 494c 4342      	0x4342494c475f
    3bbf:	5858                	lw	a4,52(s0)
    3bc1:	535f 4e59 4843      	0x48434e59535f
    3bc7:	4f52                	lw	t5,20(sp)
    3bc9:	494e                	lw	s2,208(sp)
    3bcb:	415a                	lw	sp,148(sp)
    3bcd:	4954                	lw	a3,20(a0)
    3bcf:	485f4e4f          	fnmadd.s	ft8,ft10,ft5,fs1,rmm
    3bd3:	5041                	c.li	zero,-16
    3bd5:	4550                	lw	a2,12(a0)
    3bd7:	534e                	lw	t1,240(sp)
    3bd9:	415f 5446 5245      	0x52455446415f
    3bdf:	4128                	lw	a0,64(a0)
    3be1:	2029                	jal	3beb <.LASF627+0x7>
	...

00003be4 <.LASF627>:
    3be4:	5f5f 5349 5f4f      	0x5f4f53495f5f
    3bea:	49565f43          	fmadd.s	ft10,fa2,fs5,fs1,unknown
    3bee:	4c424953          	0x4c424953
    3bf2:	2045                	jal	3c92 <.LASF484+0x19>
    3bf4:	3032                	fld	ft0,296(sp)
    3bf6:	3131                	jal	3802 <.LASF398+0xd>
	...

00003bf9 <.LASF822>:
    3bf9:	5f5f 6e67 5f75      	0x5f756e675f5f
    3bff:	00787863          	bgeu	a6,t2,3c0f <.LASF481+0xc>

00003c03 <.LASF481>:
    3c03:	505f 5453 5f4c      	0x5f4c5453505f
    3c09:	4349                	li	t1,18
    3c0b:	38315f43          	fmadd.s	ft10,ft2,ft3,ft7,unknown
    3c0f:	4f5f 504d 535f      	0x535f504d4f5f
    3c15:	4d49                	li	s10,18
    3c17:	5f44                	lw	s1,60(a4)
    3c19:	5242                	lw	tp,48(sp)
    3c1b:	4e454b4f          	fnmadd.q	fs6,fa0,ft4,fs1,rmm
    3c1f:	2820                	fld	fs0,80(s0)
    3c21:	5f5f 4e49 4554      	0x45544e495f5f
    3c27:	5f4c                	lw	a1,60(a4)
    3c29:	504d4f43          	fmadd.s	ft10,fs10,ft4,fa0,rmm
    3c2d:	4c49                	li	s8,18
    3c2f:	5245                	li	tp,-15
    3c31:	3d20                	fld	fs0,120(a0)
    3c33:	203d                	jal	3c61 <.LASF214+0x26>
    3c35:	3831                	jal	3451 <.LASF302+0x31>
    3c37:	3030                	fld	fa2,96(s0)
    3c39:	0029                	c.nop	10

00003c3b <.LASF214>:
    3c3b:	5f5f 4c46 5f54      	0x5f544c465f5f
    3c41:	4544                	lw	s1,12(a0)
    3c43:	4f4e                	lw	t5,208(sp)
    3c45:	4d52                	lw	s10,20(sp)
    3c47:	4d5f 4e49 5f5f      	0x5f5f4e494d5f
    3c4d:	3120                	fld	fs0,96(a0)
    3c4f:	342e                	fld	fs0,232(sp)
    3c51:	3130                	fld	fa2,96(a0)
    3c53:	3932                	fld	fs2,296(sp)
    3c55:	3438                	fld	fa4,104(s0)
    3c57:	3436                	fld	fs0,360(sp)
    3c59:	38343233          	0x38343233
    3c5d:	3731                	jal	3b69 <.LASF389+0x1a>
    3c5f:	3730                	fld	fa2,104(a4)
    3c61:	3930                	fld	fa2,112(a0)
    3c63:	3332                	fld	ft6,296(sp)
    3c65:	35393237          	lui	tp,0x35393
    3c69:	3338                	fld	fa4,96(a4)
    3c6b:	3832                	fld	fa6,296(sp)
    3c6d:	3939                	jal	388b <.LASF346+0x6>
    3c6f:	3631                	jal	377b <.LASF210+0x1b>
    3c71:	3331                	jal	397d <.LASF698+0x3>
    3c73:	2d65                	jal	432b <.LASF686+0xb>
    3c75:	3534                	fld	fa3,104(a0)
    3c77:	0046                	c.slli	zero,0x11

00003c79 <.LASF484>:
    3c79:	475f 494c 4342      	0x4342494c475f
    3c7f:	5858                	lw	a4,52(s0)
    3c81:	485f 5641 5f45      	0x5f455641485f
    3c87:	5341                	li	t1,-16
    3c89:	535f 4d59 4556      	0x45564d59535f
    3c8f:	5f52                	lw	t5,52(sp)
    3c91:	4944                	lw	s1,20(a0)
    3c93:	4552                	lw	a0,20(sp)
    3c95:	56495443          	fmadd.q	fs0,fs2,ft4,fa0,unknown
    3c99:	2045                	jal	3d39 <.LASF596>
    3c9b:	0031                	c.nop	12

00003c9d <.LASF562>:
    3c9d:	475f 494c 4342      	0x4342494c475f
    3ca3:	5858                	lw	a4,52(s0)
    3ca5:	485f 5641 5f45      	0x5f455641485f
    3cab:	4154                	lw	a3,4(a0)
    3cad:	464e                	lw	a2,208(sp)
    3caf:	3120                	fld	fs0,96(a0)
	...

00003cb2 <.LASF615>:
    3cb2:	4d5f 4341 4948      	0x494843414d5f
    3cb8:	454e                	lw	a0,208(sp)
    3cba:	5f5f 4544 4146      	0x414645445f5f
    3cc0:	4c55                	li	s8,21
    3cc2:	5f54                	lw	a3,60(a4)
    3cc4:	5954                	lw	a3,52(a0)
    3cc6:	4550                	lw	a2,12(a0)
    3cc8:	20485f53          	0x20485f53
	...

00003ccd <.LASF807>:
    3ccd:	6975                	lui	s2,0x1d
    3ccf:	746e                	flw	fs0,248(sp)
    3cd1:	6c5f 6165 7473      	0x747361656c5f
    3cd7:	5f38                	lw	a4,120(a4)
    3cd9:	0074                	addi	a3,sp,12

00003cdb <.LASF233>:
    3cdb:	5f5f 444c 4c42      	0x4c42444c5f5f
    3ce1:	4d5f 4e41 5f54      	0x5f544e414d5f
    3ce7:	4944                	lw	s1,20(a0)
    3ce9:	205f5f47          	fmsub.s	ft10,ft10,ft5,ft4,unknown
    3ced:	3131                	jal	38f9 <.LASF641+0x19>
    3cef:	          	0x5f5f0033

00003cf1 <.LASF96>:
    3cf1:	5f5f 7063 5f70      	0x5f7070635f5f
    3cf7:	6176                	flw	ft2,92(sp)
    3cf9:	6972                	flw	fs2,28(sp)
    3cfb:	6261                	lui	tp,0x18
    3cfd:	656c                	flw	fa1,76(a0)
    3cff:	745f 6d65 6c70      	0x6c706d65745f
    3d05:	7461                	lui	s0,0xffff8
    3d07:	7365                	lui	t1,0xffff9
    3d09:	3220                	fld	fs0,96(a2)
    3d0b:	3130                	fld	fa2,96(a0)
    3d0d:	4c343033          	0x4c343033
	...

00003d12 <.LASF598>:
    3d12:	475f 494c 4342      	0x4342494c475f
    3d18:	5858                	lw	a4,52(s0)
    3d1a:	535f 4454 4f49      	0x4f494454535f
    3d20:	535f 4545 5f4b      	0x5f4b4545535f
    3d26:	4e45                	li	t3,17
    3d28:	2044                	fld	fs1,128(s0)
    3d2a:	0032                	c.slli	zero,0xc

00003d2c <.LASF806>:
    3d2c:	6e69                	lui	t3,0x1a
    3d2e:	5f74                	lw	a3,124(a4)
    3d30:	656c                	flw	fa1,76(a0)
    3d32:	7361                	lui	t1,0xffff8
    3d34:	3874                	fld	fa3,240(s0)
    3d36:	745f        	0x4c475f00745f

00003d39 <.LASF596>:
    3d39:	475f 494c 4342      	0x4342494c475f
    3d3f:	5858                	lw	a4,52(s0)
    3d41:	535f 4454 4f49      	0x4f494454535f
    3d47:	455f 464f 2d20      	0x2d20464f455f
    3d4d:	0031                	c.nop	12

00003d4f <.LASF112>:
    3d4f:	5f5f 7063 5f70      	0x5f7070635f5f
    3d55:	6f6e                	flw	ft10,216(sp)
    3d57:	7865                	lui	a6,0xffff9
    3d59:	74706563          	bltu	zero,t2,44a3 <.LASF55+0x1c>
    3d5d:	665f 6e75 7463      	0x74636e75665f
    3d63:	6f69                	lui	t5,0x1a
    3d65:	5f6e                	lw	t5,248(sp)
    3d67:	7974                	flw	fa3,116(a0)
    3d69:	6570                	flw	fa2,76(a0)
    3d6b:	3220                	fld	fs0,96(a2)
    3d6d:	3130                	fld	fa2,96(a0)
    3d6f:	3135                	jal	399b <.LASF41+0x9>
    3d71:	4c30                	lw	a2,88(s0)
	...

00003d74 <.LASF429>:
    3d74:	475f 494c 4342      	0x4342494c475f
    3d7a:	5858                	lw	a4,52(s0)
    3d7c:	555f 4553 435f      	0x435f4553555f
    3d82:	3939                	jal	39a0 <.LASF41+0xe>
    3d84:	4d5f 5441 2048      	0x204854414d5f
    3d8a:	475f 494c 4342      	0x4342494c475f
    3d90:	5858                	lw	a4,52(s0)
    3d92:	3131                	jal	399e <.LASF41+0xc>
    3d94:	555f 4553 435f      	0x435f4553555f
    3d9a:	3939                	jal	39b8 <.LASF138+0x7>
    3d9c:	4d5f 5441 0048      	0x4854414d5f

00003da2 <.LASF863>:
    3da2:	6f727073          	csrci	0x6f7,4
    3da6:	65725f63          	bge	tp,s7,4404 <.LASF59+0xc>
    3daa:	616d                	addi	sp,sp,240
    3dac:	6e69                	lui	t3,0x1a
    3dae:	6e69                	lui	t3,0x1a
    3db0:	          	jr	1173(a0) # 1d495 <.LASF439+0x17426>

00003db2 <.LASF713>:
    3db2:	4955                	li	s2,21
    3db4:	544e                	lw	s0,240(sp)
    3db6:	3631                	jal	38c2 <.LASF0+0x6>
    3db8:	4d5f 5841 2820      	0x282058414d5f
    3dbe:	5f5f 4955 544e      	0x544e49555f5f
    3dc4:	3631                	jal	38d0 <.LASF392+0x9>
    3dc6:	4d5f 5841 5f5f      	0x5f5f58414d5f
    3dcc:	0029                	c.nop	10

00003dce <.LASF654>:
    3dce:	6f6c                	flw	fa1,92(a4)
    3dd0:	676e                	flw	fa4,216(sp)
	...

00003dd3 <.LASF651>:
    3dd3:	726f6873          	csrrsi	a6,0x726,30
    3dd7:	0074                	addi	a3,sp,12

00003dd9 <.LASF516>:
    3dd9:	475f 494c 4342      	0x4342494c475f
    3ddf:	5858                	lw	a4,52(s0)
    3de1:	485f 5641 5f45      	0x5f455641485f
    3de7:	4d46                	lw	s10,80(sp)
    3de9:	2046444f          	fnmadd.s	fs0,fa2,ft4,ft4,rmm
    3ded:	0031                	c.nop	12

00003def <.LASF450>:
    3def:	505f 5453 5f4c      	0x5f4c5453505f
    3df5:	49525453          	0x49525453
    3df9:	474e                	lw	a4,208(sp)
    3dfb:	415f 5855 7828      	0x78285855415f
    3e01:	2029                	jal	3e0b <.LASF323+0x5>
    3e03:	          	0x5f007823

00003e06 <.LASF323>:
    3e06:	5f5f 4c46 3654      	0x36544c465f5f
    3e0c:	5834                	lw	a3,112(s0)
    3e0e:	485f 5341 515f      	0x515f5341485f
    3e14:	4955                	li	s2,21
    3e16:	5445                	li	s0,-15
    3e18:	4e5f 4e41 5f5f      	0x5f5f4e414e5f
    3e1e:	3120                	fld	fs0,96(a0)
	...

00003e21 <.LASF280>:
    3e21:	5f5f 4c46 3154      	0x31544c465f5f
    3e27:	3832                	fld	fa6,296(sp)
    3e29:	445f 4749 5f5f      	0x5f5f4749445f
    3e2f:	3320                	fld	fs0,96(a4)
    3e31:	          	0x5f5f0033

00003e33 <.LASF163>:
    3e33:	5f5f 4e49 3854      	0x38544e495f5f
    3e39:	435f 6328 2029      	0x20296328435f
    3e3f:	          	beq	t5,s5,441f <.LASF691+0xf>

00003e41 <.LASF256>:
    3e41:	5f5f 4c46 3354      	0x33544c465f5f
    3e47:	5f32                	lw	t5,44(sp)
    3e49:	414d                	li	sp,19
    3e4b:	5f58                	lw	a4,60(a4)
    3e4d:	205f 2e33 3034      	0x30342e33205f
    3e53:	3832                	fld	fa6,296(sp)
    3e55:	3332                	fld	ft6,296(sp)
    3e57:	3634                	fld	fa3,104(a2)
    3e59:	3336                	fld	ft6,360(sp)
    3e5b:	3538                	fld	fa4,104(a0)
    3e5d:	3832                	fld	fa6,296(sp)
    3e5f:	3538                	fld	fa4,104(a0)
    3e61:	3839                	jal	367f <.LASF301+0x1e>
    3e63:	3131                	jal	3a6f <.LASF95+0x1c>
    3e65:	31343037          	lui	zero,0x31343
    3e69:	3338                	fld	fa4,96(a4)
    3e6b:	3834                	fld	fa3,112(s0)
    3e6d:	3534                	fld	fa3,104(a0)
    3e6f:	3631                	jal	397b <.LASF698+0x1>
    3e71:	3239                	jal	377f <.LASF210+0x1f>
    3e73:	6535                	lui	a0,0xd
    3e75:	4638332b          	0x4638332b
    3e79:	          	0x5f003233

00003e7c <.LASF320>:
    3e7c:	5f5f 4c46 3654      	0x36544c465f5f
    3e82:	5834                	lw	a3,112(s0)
    3e84:	445f 4e45 524f      	0x524f4e45445f
    3e8a:	5f4d                	li	t5,-13
    3e8c:	494d                	li	s2,19
    3e8e:	5f4e                	lw	t5,240(sp)
    3e90:	205f 2e36 3734      	0x37342e36205f
    3e96:	3135                	jal	3ac2 <.LASF376+0xe>
    3e98:	31313537          	lui	a0,0x31313
    3e9c:	3439                	jal	38aa <.LASF83+0xe>
    3e9e:	32303833          	0x32303833
    3ea2:	3135                	jal	3ace <.LASF376+0x1a>
    3ea4:	3031                	jal	36b0 <.LASF276+0x11>
    3ea6:	3239                	jal	37b4 <.LASF183+0x4>
    3ea8:	3434                	fld	fa3,104(s0)
    3eaa:	35393833          	0x35393833
    3eae:	3238                	fld	fa4,96(a2)
    3eb0:	3732                	fld	fa4,296(sp)
    3eb2:	3436                	fld	fs0,360(sp)
    3eb4:	3536                	fld	fa0,360(sp)
    3eb6:	6535                	lui	a0,0xd
    3eb8:	342d                	jal	38e2 <.LASF641+0x2>
    3eba:	3639                	jal	39c8 <.LASF28+0x5>
    3ebc:	4636                	lw	a2,76(sp)
    3ebe:	3436                	fld	fs0,360(sp)
    3ec0:	0078                	addi	a4,sp,12

00003ec2 <.LASF220>:
    3ec2:	5f5f 4244 5f4c      	0x5f4c42445f5f
    3ec8:	494d                	li	s2,19
    3eca:	5f4e                	lw	t5,240(sp)
    3ecc:	5845                	li	a6,-15
    3ece:	5f50                	lw	a2,60(a4)
    3ed0:	205f 2d28 3031      	0x30312d28205f
    3ed6:	3132                	fld	ft2,296(sp)
    3ed8:	0029                	c.nop	10

00003eda <.LASF388>:
    3eda:	475f 494c 4342      	0x4342494c475f
    3ee0:	5858                	lw	a4,52(s0)
    3ee2:	4e5f 454f 4358      	0x4358454f4e5f
    3ee8:	5045                	c.li	zero,-15
    3eea:	5f54                	lw	a3,60(a4)
    3eec:	4150                	lw	a2,4(a0)
    3eee:	4d52                	lw	s10,20(sp)
    3ef0:	2c20                	fld	fs0,88(s0)
    3ef2:	6220                	flw	fs0,64(a2)
    3ef4:	206c6f6f          	jal	t5,ca0fa <.LASF439+0xc408b>
    3ef8:	4e5f 0045       	0x5f5f00454e5f

00003efc <.LASF334>:
    3efc:	5f5f 4347 5f43      	0x5f4343475f5f
    3f02:	5441                	li	s0,-16
    3f04:	43494d4f          	fnmadd.d	fs10,fs2,fs4,fs0,rmm
    3f08:	435f 4148 3352      	0x33524148435f
    3f0e:	5f32                	lw	t5,44(sp)
    3f10:	5f54                	lw	a3,60(a4)
    3f12:	4f4c                	lw	a1,28(a4)
    3f14:	465f4b43          	fmadd.q	fs6,ft10,ft5,fs0,rmm
    3f18:	4552                	lw	a0,20(sp)
    3f1a:	2045                	jal	3fba <.LASF85+0x6>
    3f1c:	0032                	c.slli	zero,0xc

00003f1e <.LASF311>:
    3f1e:	5f5f 4c46 3654      	0x36544c465f5f
    3f24:	5834                	lw	a3,112(s0)
    3f26:	4d5f 4e49 455f      	0x455f4e494d5f
    3f2c:	5058                	lw	a4,36(s0)
    3f2e:	5f5f 2820 312d      	0x312d28205f5f
    3f34:	3336                	fld	ft6,360(sp)
    3f36:	3138                	fld	fa4,96(a0)
    3f38:	0029                	c.nop	10

00003f3a <.LASF250>:
    3f3a:	5f5f 4c46 3354      	0x33544c465f5f
    3f40:	5f32                	lw	t5,44(sp)
    3f42:	4944                	lw	s1,20(a0)
    3f44:	205f5f47          	fmsub.s	ft10,ft10,ft5,ft4,unknown
    3f48:	0036                	c.slli	zero,0xd

00003f4a <.LASF613>:
    3f4a:	5f5f 5453 4344      	0x434454535f5f
    3f50:	435f 4e4f 5453      	0x54534e4f435f
    3f56:	4e41                	li	t3,16
    3f58:	5f54                	lw	a3,60(a4)
    3f5a:	414d                	li	sp,19
    3f5c:	534f5243          	fmadd.d	ft4,ft10,fs4,fa0,unknown
    3f60:	0020                	addi	s0,sp,8

00003f62 <.LASF676>:
    3f62:	5f5f 454c 5341      	0x5341454c5f5f
    3f68:	3654                	fld	fa3,168(a2)
    3f6a:	2034                	fld	fa3,64(s0)
    3f6c:	6c22                	flw	fs8,8(sp)
    3f6e:	226c                	fld	fa1,192(a2)
	...

00003f71 <.LASF386>:
    3f71:	475f 494c 4342      	0x4342494c475f
    3f77:	5858                	lw	a4,52(s0)
    3f79:	4e5f 544f 5248      	0x5248544f4e5f
    3f7f:	5f20574f          	fnmadd.q	fa4,ft0,fs2,fa1,unknown
    3f83:	42494c47          	fmsub.d	fs8,fs2,ft4,fs0,rmm
    3f87:	5f585843          	fmadd.q	fa6,fa6,fs5,fa1,unknown
    3f8b:	5355                	li	t1,-11
    3f8d:	5f45                	li	t5,-15
    3f8f:	4f4e                	lw	t5,208(sp)
    3f91:	5845                	li	a6,-15
    3f93:	54504543          	0x54504543
	...

00003f98 <.LASF762>:
    3f98:	4955                	li	s2,21
    3f9a:	544e                	lw	s0,240(sp)
    3f9c:	414d                	li	sp,19
    3f9e:	5f58                	lw	a4,60(a4)
    3fa0:	29782843          	fmadd.s	fa6,fa6,fs7,ft5,rdn
    3fa4:	5f20                	lw	s0,120(a4)
    3fa6:	555f 4e49 4d54      	0x4d544e49555f
    3fac:	5841                	li	a6,-16
    3fae:	435f 7828 0029      	0x297828435f

00003fb4 <.LASF85>:
    3fb4:	5f5f 7063 5f70      	0x5f7070635f5f
    3fba:	6e69                	lui	t3,0x1a
    3fbc:	7469                	lui	s0,0xffffa
    3fbe:	6169                	addi	sp,sp,208
    3fc0:	696c                	flw	fa1,84(a0)
    3fc2:	657a                	flw	fa0,156(sp)
    3fc4:	5f72                	lw	t5,60(sp)
    3fc6:	696c                	flw	fa1,84(a0)
    3fc8:	20737473          	csrrci	s0,0x207,6
    3fcc:	3032                	fld	ft0,296(sp)
    3fce:	3830                	fld	fa2,112(s0)
    3fd0:	3630                	fld	fa2,104(a2)
    3fd2:	004c                	addi	a1,sp,4

00003fd4 <.LASF368>:
    3fd4:	475f 494c 4342      	0x4342494c475f
    3fda:	5858                	lw	a4,52(s0)
    3fdc:	485f 5641 5f45      	0x5f455641485f
    3fe2:	5441                	li	s0,-16
    3fe4:	5254                	lw	a3,36(a2)
    3fe6:	4249                	li	tp,18
    3fe8:	5455                	li	s0,-11
    3fea:	5f45                	li	t5,-15
    3fec:	4956                	lw	s2,84(sp)
    3fee:	49424953          	0x49424953
    3ff2:	494c                	lw	a1,20(a0)
    3ff4:	5954                	lw	a3,52(a0)
    3ff6:	3120                	fld	fs0,96(a0)
	...

00003ff9 <.LASF712>:
    3ff9:	4e49                	li	t3,18
    3ffb:	3154                	fld	fa3,160(a0)
    3ffd:	5f36                	lw	t5,108(sp)
    3fff:	414d                	li	sp,19
    4001:	2058                	fld	fa4,128(s0)
    4003:	5f28                	lw	a0,120(a4)
    4005:	495f 544e 3631      	0x3631544e495f
    400b:	4d5f 5841 5f5f      	0x5f5f58414d5f
    4011:	0029                	c.nop	10

00004013 <.LASF640>:
    4013:	5f5f 695f 746e      	0x746e695f5f5f
    4019:	3436                	fld	fs0,360(sp)
    401b:	745f 645f 6665      	0x6665645f745f
    4021:	6e69                	lui	t3,0x1a
    4023:	6465                	lui	s0,0x19
    4025:	3120                	fld	fs0,96(a0)
	...

00004028 <.LASF246>:
    4028:	5f5f 444c 4c42      	0x4c42444c5f5f
    402e:	485f 5341 445f      	0x445f5341485f
    4034:	4e45                	li	t3,17
    4036:	5f4d524f          	fnmadd.q	ft4,fs10,fs4,fa1,unknown
    403a:	205f 0031       	0x505f0031205f

0000403e <.LASF470>:
    403e:	505f 5453 5f4c      	0x5f4c5453505f
    4044:	5250                	lw	a2,36(a2)
    4046:	4741                	li	a4,16
    4048:	414d                	li	sp,19
    404a:	535f 4d49 5f44      	0x5f444d49535f
    4050:	4145                	li	sp,17
    4052:	4c52                	lw	s8,20(sp)
    4054:	4559                	li	a0,22
    4056:	4958                	lw	a4,20(a0)
    4058:	2054                	fld	fa3,128(s0)
	...

0000405b <.LASF303>:
    405b:	5f5f 4c46 3354      	0x33544c465f5f
    4061:	5832                	lw	a6,44(sp)
    4063:	4d5f 4e49 5f5f      	0x5f5f4e494d5f
    4069:	3220                	fld	fs0,96(a2)
    406b:	322e                	fld	ft4,232(sp)
    406d:	3532                	fld	fa0,296(sp)
    406f:	3730                	fld	fa2,104(a4)
    4071:	38353833          	0x38353833
    4075:	3035                	jal	38a1 <.LASF83+0x5>
    4077:	31303237          	lui	tp,0x31303
    407b:	30333833          	0x30333833
    407f:	3039                	jal	388d <.LASF346+0x8>
    4081:	3332                	fld	ft6,296(sp)
    4083:	3732                	fld	fa4,296(sp)
    4085:	3731                	jal	3f91 <.LASF386+0x20>
    4087:	34323333          	0x34323333
    408b:	3430                	fld	fa2,104(s0)
    408d:	3630                	fld	fa2,104(a2)
    408f:	2d65                	jal	4747 <.LASF151+0x9>
    4091:	46383033          	0x46383033
    4095:	00783233          	sltu	tp,a6,t2

00004099 <.LASF181>:
    4099:	5f5f 4955 544e      	0x544e49555f5f
    409f:	3436                	fld	fs0,360(sp)
    40a1:	435f 6328 2029      	0x20296328435f
    40a7:	23232063          	0x23232063
    40ab:	5520                	lw	s0,104(a0)
    40ad:	4c4c                	lw	a1,28(s0)
	...

000040b0 <.LASF420>:
    40b0:	475f 494c 4342      	0x4342494c475f
    40b6:	5858                	lw	a4,52(s0)
    40b8:	435f 5550 445f      	0x445f5550435f
    40be:	4645                	li	a2,17
    40c0:	4e49                	li	t3,18
    40c2:	5345                	li	t1,-15
    40c4:	3120                	fld	fs0,96(a0)
	...

000040c7 <.LASF846>:
    40c7:	72617473          	csrrci	s0,0x726,2
    40cb:	5f746567          	0x5f746567
    40cf:	7974                	flw	fa3,116(a0)
    40d1:	6570                	flw	fa2,76(a0)
	...

000040d4 <.LASF410>:
    40d4:	475f 494c 4342      	0x4342494c475f
    40da:	5858                	lw	a4,52(s0)
    40dc:	4e5f 4d41 5345      	0x53454d414e5f
    40e2:	4150                	lw	a2,4(a0)
    40e4:	4c5f4543          	0x4c5f4543
    40e8:	4244                	lw	s1,4(a2)
    40ea:	5f4c                	lw	a1,60(a4)
    40ec:	435f524f          	fnmadd.d	ft4,ft10,fs5,fs0,unknown
    40f0:	5858                	lw	a4,52(s0)
    40f2:	3131                	jal	3cfe <.LASF96+0xd>
    40f4:	5f20                	lw	s0,120(a4)
    40f6:	42494c47          	fmsub.d	fs8,fs2,ft4,fs0,rmm
    40fa:	5f585843          	fmadd.q	fa6,fa6,fs5,fa1,unknown
    40fe:	414e                	lw	sp,208(sp)
    4100:	454d                	li	a0,19
    4102:	43415053          	0x43415053
    4106:	5f45                	li	t5,-15
    4108:	31585843          	fmadd.s	fa6,fa6,fs5,ft6,unknown
    410c:	0031                	c.nop	12

0000410e <.LASF52>:
    410e:	5f5f 4e49 5f54      	0x5f544e495f5f
    4114:	454c                	lw	a1,12(a0)
    4116:	5341                	li	t1,-16
    4118:	3354                	fld	fa3,160(a4)
    411a:	5f32                	lw	t5,44(sp)
    411c:	5954                	lw	a3,52(a0)
    411e:	4550                	lw	a2,12(a0)
    4120:	5f5f 6c20 6e6f      	0x6e6f6c205f5f
    4126:	6e692067          	0x6e692067
    412a:	0074                	addi	a3,sp,12

0000412c <.LASF494>:
    412c:	475f 494c 4342      	0x4342494c475f
    4132:	5858                	lw	a4,52(s0)
    4134:	485f 5641 5f45      	0x5f455641485f
    413a:	4945                	li	s2,17
    413c:	5244                	lw	s1,36(a2)
    413e:	204d                	jal	41e0 <.LASF100>
    4140:	0031                	c.nop	12

00004142 <.LASF591>:
    4142:	475f 494c 4342      	0x4342494c475f
    4148:	5858                	lw	a4,52(s0)
    414a:	465f 4c55 594c      	0x594c4c55465f
    4150:	445f 4e59 4d41      	0x4d414e59445f
    4156:	4349                	li	t1,18
    4158:	535f 5254 4e49      	0x4e495254535f
    415e:	00302047          	fmsub.s	ft0,ft0,ft3,ft0,rdn

00004162 <.LASF581>:
    4162:	43445453          	0x43445453
    4166:	485f 4145 4544      	0x45444145485f
    416c:	5352                	lw	t1,52(sp)
    416e:	3120                	fld	fs0,96(a0)
	...

00004171 <.LASF180>:
    4171:	5f5f 4955 544e      	0x544e49555f5f
    4177:	4c5f 4145 5453      	0x545341454c5f
    417d:	3436                	fld	fs0,360(sp)
    417f:	4d5f 5841 5f5f      	0x5f5f58414d5f
    4185:	3020                	fld	fs0,96(s0)
    4187:	6678                	flw	fa4,76(a2)
    4189:	6666                	flw	fa2,88(sp)
    418b:	6666                	flw	fa2,88(sp)
    418d:	6666                	flw	fa2,88(sp)
    418f:	6666                	flw	fa2,88(sp)
    4191:	6666                	flw	fa2,88(sp)
    4193:	6666                	flw	fa2,88(sp)
    4195:	6666                	flw	fa2,88(sp)
    4197:	5566                	lw	a0,120(sp)
    4199:	4c4c                	lw	a1,28(s0)
	...

0000419c <.LASF765>:
    419c:	5f5f 6e69 3874      	0x38746e695f5f
    41a2:	745f        	0x555f5f00745f

000041a5 <.LASF193>:
    41a5:	5f5f 4955 544e      	0x544e49555f5f
    41ab:	465f 5341 3654      	0x36545341465f
    41b1:	5f34                	lw	a3,120(a4)
    41b3:	414d                	li	sp,19
    41b5:	5f58                	lw	a4,60(a4)
    41b7:	205f 7830 6666      	0x66667830205f
    41bd:	6666                	flw	fa2,88(sp)
    41bf:	6666                	flw	fa2,88(sp)
    41c1:	6666                	flw	fa2,88(sp)
    41c3:	6666                	flw	fa2,88(sp)
    41c5:	6666                	flw	fa2,88(sp)
    41c7:	6666                	flw	fa2,88(sp)
    41c9:	6666                	flw	fa2,88(sp)
    41cb:	4c55                	li	s8,21
    41cd:	004c                	addi	a1,sp,4

000041cf <.LASF139>:
    41cf:	5f5f 4e49 5f54      	0x5f544e495f5f
    41d5:	54444957          	0x54444957
    41d9:	5f48                	lw	a0,60(a4)
    41db:	205f 3233       	0x5f003233205f

000041e0 <.LASF100>:
    41e0:	5f5f 7063 5f70      	0x5f7070635f5f
    41e6:	616e                	flw	ft2,216(sp)
    41e8:	656d                	lui	a0,0x1b
    41ea:	63617073          	csrci	0x636,2
    41ee:	5f65                	li	t5,-7
    41f0:	7461                	lui	s0,0xffff8
    41f2:	7274                	flw	fa3,100(a2)
    41f4:	6269                	lui	tp,0x1a
    41f6:	7475                	lui	s0,0xffffd
    41f8:	7365                	lui	t1,0xffff9
    41fa:	3220                	fld	fs0,96(a2)
    41fc:	3130                	fld	fa2,96(a0)
    41fe:	3134                	fld	fa3,96(a0)
    4200:	4c31                	li	s8,12
	...

00004203 <.LASF26>:
    4203:	5f5f 524f 4544      	0x4544524f5f5f
    4209:	5f52                	lw	t5,52(sp)
    420b:	494c                	lw	a1,20(a0)
    420d:	5454                	lw	a3,44(s0)
    420f:	454c                	lw	a1,12(a0)
    4211:	455f 444e 4149      	0x4149444e455f
    4217:	5f4e                	lw	t5,240(sp)
    4219:	205f 3231 3433      	0x34333231205f
	...

00004220 <.LASF545>:
    4220:	475f 494c 4342      	0x4342494c475f
    4226:	5858                	lw	a4,52(s0)
    4228:	485f 5641 5f45      	0x5f455641485f
    422e:	484e4953          	0x484e4953
    4232:	2046                	fld	ft0,80(sp)
    4234:	0031                	c.nop	12

00004236 <.LASF730>:
    4236:	4e49                	li	t3,18
    4238:	5f54                	lw	a3,60(a4)
    423a:	4146                	lw	sp,80(sp)
    423c:	5f385453          	0x5f385453
    4240:	414d                	li	sp,19
    4242:	2058                	fld	fa4,128(s0)
    4244:	5f28                	lw	a0,120(a4)
    4246:	495f 544e 465f      	0x465f544e495f
    424c:	5341                	li	t1,-16
    424e:	3854                	fld	fa3,176(s0)
    4250:	4d5f 5841 5f5f      	0x5f5f58414d5f
    4256:	0029                	c.nop	10

00004258 <.LASF76>:
    4258:	5f5f 7063 5f70      	0x5f7070635f5f
    425e:	6172                	flw	ft2,28(sp)
    4260:	74735f77          	0x74735f77
    4264:	6972                	flw	fs2,28(sp)
    4266:	676e                	flw	fa4,216(sp)
    4268:	30322073          	csrs	mideleg,tp
    426c:	3730                	fld	fa2,104(a4)
    426e:	3031                	jal	3a7a <.LASF890+0x9>
    4270:	004c                	addi	a1,sp,4

00004272 <.LASF780>:
    4272:	6f6c                	flw	fa1,92(a4)
    4274:	676e                	flw	fa4,216(sp)
    4276:	6c20                	flw	fs0,88(s0)
    4278:	20676e6f          	jal	t3,7a47e <.LASF439+0x7440f>
    427c:	6e75                	lui	t3,0x1d
    427e:	6e676973          	csrrsi	s2,0x6e6,14
    4282:	6465                	lui	s0,0x19
    4284:	6920                	flw	fs0,80(a0)
    4286:	746e                	flw	fs0,248(sp)
	...

00004289 <.LASF728>:
    4289:	4955                	li	s2,21
    428b:	544e                	lw	s0,240(sp)
    428d:	4c5f 4145 5453      	0x545341454c5f
    4293:	3436                	fld	fs0,360(sp)
    4295:	4d5f 5841 2820      	0x282058414d5f
    429b:	5f5f 4955 544e      	0x544e49555f5f
    42a1:	4c5f 4145 5453      	0x545341454c5f
    42a7:	3436                	fld	fs0,360(sp)
    42a9:	4d5f 5841 5f5f      	0x5f5f58414d5f
    42af:	0029                	c.nop	10

000042b1 <.LASF114>:
    42b1:	5f5f 7063 5f70      	0x5f7070635f5f
    42b7:	75727473          	csrrci	s0,0x757,4
    42bb:	72757463          	bgeu	a0,t2,49e3 <.LASF292+0x7>
    42bf:	6465                	lui	s0,0x19
    42c1:	625f 6e69 6964      	0x69646e69625f
    42c7:	676e                	flw	fa4,216(sp)
    42c9:	30322073          	csrs	mideleg,tp
    42cd:	3631                	jal	3dd9 <.LASF516>
    42cf:	3630                	fld	fa2,104(a2)
    42d1:	004c                	addi	a1,sp,4

000042d3 <.LASF127>:
    42d3:	5f5f 4853 5452      	0x545248535f5f
    42d9:	4d5f 5841 5f5f      	0x5f5f58414d5f
    42df:	3020                	fld	fs0,96(s0)
    42e1:	3778                	fld	fa4,232(a4)
    42e3:	6666                	flw	fa2,88(sp)
    42e5:	0066                	c.slli	zero,0x19

000042e7 <.LASF731>:
    42e7:	4955                	li	s2,21
    42e9:	544e                	lw	s0,240(sp)
    42eb:	465f 5341 3854      	0x38545341465f
    42f1:	4d5f 5841 2820      	0x282058414d5f
    42f7:	5f5f 4955 544e      	0x544e49555f5f
    42fd:	465f 5341 3854      	0x38545341465f
    4303:	4d5f 5841 5f5f      	0x5f5f58414d5f
    4309:	0029                	c.nop	10

0000430b <.LASF34>:
    430b:	5f5f 5450 4452      	0x445254505f5f
    4311:	4649                	li	a2,18
    4313:	5f46                	lw	t5,112(sp)
    4315:	5954                	lw	a3,52(a0)
    4317:	4550                	lw	a2,12(a0)
    4319:	5f5f 6920 746e      	0x746e69205f5f
	...

00004320 <.LASF686>:
    4320:	5f5f 6e69 3374      	0x33746e695f5f
    4326:	5f32                	lw	t5,44(sp)
    4328:	5f74                	lw	a3,124(a4)
    432a:	6564                	flw	fs1,76(a0)
    432c:	6966                	flw	fs2,88(sp)
    432e:	656e                	flw	fa0,216(sp)
    4330:	2064                	fld	fs1,192(s0)
    4332:	0031                	c.nop	12

00004334 <.LASF133>:
    4334:	5f5f 4957 544e      	0x544e49575f5f
    433a:	4d5f 5841 5f5f      	0x5f5f58414d5f
    4340:	3020                	fld	fs0,96(s0)
    4342:	6678                	flw	fa4,76(a2)
    4344:	6666                	flw	fa2,88(sp)
    4346:	6666                	flw	fa2,88(sp)
    4348:	6666                	flw	fa2,88(sp)
    434a:	5566                	lw	a0,120(sp)
	...

0000434d <.LASF829>:
    434d:	6f727073          	csrci	0x6f7,4
    4351:	696b5f63          	bge	s6,s6,49ef <.LASF292+0x13>
    4355:	6c6c                	flw	fa1,92(s0)
	...

00004358 <.LASF626>:
    4358:	5f5f 4e47 5f55      	0x5f554e475f5f
    435e:	4956                	lw	s2,84(sp)
    4360:	4c424953          	0x4c424953
    4364:	2045                	jal	4404 <.LASF59+0xc>
    4366:	0030                	addi	a2,sp,8

00004368 <.LASF84>:
    4368:	5f5f 7063 5f70      	0x5f7070635f5f
    436e:	6176                	flw	ft2,92(sp)
    4370:	6972                	flw	fs2,28(sp)
    4372:	6461                	lui	s0,0x18
    4374:	6369                	lui	t1,0x1a
    4376:	745f 6d65 6c70      	0x6c706d65745f
    437c:	7461                	lui	s0,0xffff8
    437e:	7365                	lui	t1,0xffff9
    4380:	3220                	fld	fs0,96(a2)
    4382:	3030                	fld	fa2,96(s0)
    4384:	4c343037          	lui	zero,0x4c343
	...

00004389 <.LASF797>:
    4389:	6975                	lui	s2,0x1d
    438b:	746e                	flw	fs0,248(sp)
    438d:	3631                	jal	3e99 <.LASF320+0x1d>
    438f:	745f        	0x635f5f00745f

00004392 <.LASF97>:
    4392:	5f5f 7063 5f70      	0x5f7070635f5f
    4398:	6964                	flw	fs1,84(a0)
    439a:	5f746967          	0x5f746967
    439e:	61706573          	csrrsi	a0,0x617,0
    43a2:	6172                	flw	ft2,28(sp)
    43a4:	6f74                	flw	fa3,92(a4)
    43a6:	7372                	flw	ft6,60(sp)
    43a8:	3220                	fld	fs0,96(a2)
    43aa:	3130                	fld	fa2,96(a0)
    43ac:	4c393033          	0x4c393033
	...

000043b1 <.LASF64>:
    43b1:	5f5f 4955 544e      	0x544e49555f5f
    43b7:	465f 5341 3354      	0x33545341465f
    43bd:	5f32                	lw	t5,44(sp)
    43bf:	5954                	lw	a3,52(a0)
    43c1:	4550                	lw	a2,12(a0)
    43c3:	5f5f 7520 736e      	0x736e75205f5f
    43c9:	6769                	lui	a4,0x1a
    43cb:	656e                	flw	fa0,216(sp)
    43cd:	2064                	fld	fs1,192(s0)
    43cf:	6e69                	lui	t3,0x1a
    43d1:	0074                	addi	a3,sp,12

000043d3 <.LASF330>:
    43d3:	5f5f 4347 5f43      	0x5f4343475f5f
    43d9:	4148                	lw	a0,4(a0)
    43db:	4556                	lw	a0,84(sp)
    43dd:	535f 4e59 5f43      	0x5f434e59535f
    43e3:	504d4f43          	fmadd.s	ft10,fs10,ft4,fa0,rmm
    43e7:	5241                	li	tp,-16
    43e9:	5f45                	li	t5,-15
    43eb:	4e41                	li	t3,16
    43ed:	5f44                	lw	s1,60(a4)
    43ef:	50415753          	0x50415753
    43f3:	345f 3120       	0x5f003120345f

000043f8 <.LASF59>:
    43f8:	5f5f 4e49 5f54      	0x5f544e495f5f
    43fe:	4146                	lw	sp,80(sp)
    4400:	36315453          	0x36315453
    4404:	545f 5059 5f45      	0x5f455059545f
    440a:	205f 6e69 0074      	0x746e69205f

00004410 <.LASF691>:
    4410:	555f 4e49 4d54      	0x4d544e49555f
    4416:	5841                	li	a6,-16
    4418:	545f 445f 4345      	0x4345445f545f
    441e:	414c                	lw	a1,4(a0)
    4420:	4552                	lw	a0,20(sp)
    4422:	2044                	fld	fs1,128(s0)
	...

00004425 <.LASF477>:
    4425:	505f 5453 5f4c      	0x5f4c5453505f
    442b:	5250                	lw	a2,36(a2)
    442d:	4741                	li	a4,16
    442f:	414d                	li	sp,19
    4431:	4d5f 5345 4153      	0x415353454d5f
    4437:	495f4547          	fmsub.s	fa0,ft10,fs5,fs1,rmm
    443b:	504d                	c.li	zero,-13
    443d:	284c                	fld	fa1,144(s0)
    443f:	2978                	fld	fa4,208(a0)
    4441:	5f20                	lw	s0,120(a4)
    4443:	5350                	lw	a2,36(a4)
    4445:	4c54                	lw	a3,28(s0)
    4447:	505f 4152 4d47      	0x4d474152505f
    444d:	2841                	jal	44dd <.LASF39+0x19>
    444f:	656d                	lui	a0,0x1b
    4451:	67617373          	csrrci	t1,0x676,2
    4455:	2865                	jal	450d <.LASF119+0x14>
    4457:	505f 5453 5f4c      	0x5f4c5453505f
    445d:	49525453          	0x49525453
    4461:	474e                	lw	a4,208(sp)
    4463:	435f 4e4f 4143      	0x41434e4f435f
    4469:	2854                	fld	fa3,144(s0)
    446b:	505f 5453 5f4c      	0x5f4c5453505f
    4471:	5250                	lw	a2,36(a2)
    4473:	4741                	li	a4,16
    4475:	414d                	li	sp,19
    4477:	4c5f 434f 5441      	0x5441434f4c5f
    447d:	4f49                	li	t5,18
    447f:	2c4e                	fld	fs8,208(sp)
    4481:	7820                	flw	fs0,112(s0)
    4483:	2929                	jal	489d <.LASF318+0x2f>
    4485:	0029                	c.nop	10

00004487 <.LASF55>:
    4487:	5f5f 4955 544e      	0x544e49555f5f
    448d:	4c5f 4145 5453      	0x545341454c5f
    4493:	3631                	jal	3f9f <.LASF762+0x7>
    4495:	545f 5059 5f45      	0x5f455059545f
    449b:	205f 6873 726f      	0x726f6873205f
    44a1:	2074                	fld	fa3,192(s0)
    44a3:	6e75                	lui	t3,0x1d
    44a5:	6e676973          	csrrsi	s2,0x6e6,14
    44a9:	6465                	lui	s0,0x19
    44ab:	6920                	flw	fs0,80(a0)
    44ad:	746e                	flw	fs0,248(sp)
	...

000044b0 <.LASF690>:
    44b0:	495f 544e 414d      	0x414d544e495f
    44b6:	5f58                	lw	a4,60(a4)
    44b8:	5f54                	lw	a3,60(a4)
    44ba:	4544                	lw	s1,12(a0)
    44bc:	52414c43          	fmadd.d	fs8,ft2,ft4,fa0,rmm
    44c0:	4445                	li	s0,17
    44c2:	0020                	addi	s0,sp,8

000044c4 <.LASF39>:
    44c4:	5f5f 4843 5241      	0x524148435f5f
    44ca:	3631                	jal	3fd6 <.LASF368+0x2>
    44cc:	545f 5059 5f45      	0x5f455059545f
    44d2:	205f 6873 726f      	0x726f6873205f
    44d8:	2074                	fld	fa3,192(s0)
    44da:	6e75                	lui	t3,0x1d
    44dc:	6e676973          	csrrsi	s2,0x6e6,14
    44e0:	6465                	lui	s0,0x19
    44e2:	6920                	flw	fs0,80(a0)
    44e4:	746e                	flw	fs0,248(sp)
	...

000044e7 <.LASF295>:
    44e7:	5f5f 4c46 3354      	0x33544c465f5f
    44ed:	5832                	lw	a6,44(sp)
    44ef:	445f 4749 5f5f      	0x5f5f4749445f
    44f5:	3120                	fld	fs0,96(a0)
    44f7:	0035                	c.nop	13

000044f9 <.LASF119>:
    44f9:	5f5f 7063 5f70      	0x5f7070635f5f
    44ff:	6c61                	lui	s8,0x18
    4501:	6769                	lui	a4,0x1a
    4503:	656e                	flw	fa0,216(sp)
    4505:	5f64                	lw	s1,124(a4)
    4507:	656e                	flw	fa0,216(sp)
    4509:	30322077          	0x30322077
    450d:	3631                	jal	4019 <.LASF640+0x6>
    450f:	3630                	fld	fa2,104(a2)
    4511:	004c                	addi	a1,sp,4

00004513 <.LASF783>:
    4513:	5f5f 6e69 5f74      	0x5f746e695f5f
    4519:	656c                	flw	fa1,76(a0)
    451b:	7361                	lui	t1,0xffff8
    451d:	3174                	fld	fa3,224(a0)
    451f:	5f36                	lw	t5,108(sp)
    4521:	0074                	addi	a3,sp,12

00004523 <.LASF820>:
    4523:	6e69                	lui	t3,0x1a
    4525:	5f74                	lw	a3,124(a4)
    4527:	6166                	flw	ft2,88(sp)
    4529:	34367473          	csrrci	s0,mtval,12
    452d:	745f        	0x495f5f00745f

00004530 <.LASF184>:
    4530:	5f5f 4e49 5f54      	0x5f544e495f5f
    4536:	4146                	lw	sp,80(sp)
    4538:	36315453          	0x36315453
    453c:	4d5f 5841 5f5f      	0x5f5f58414d5f
    4542:	3020                	fld	fs0,96(s0)
    4544:	3778                	fld	fa4,232(a4)
    4546:	6666                	flw	fa2,88(sp)
    4548:	6666                	flw	fa2,88(sp)
    454a:	6666                	flw	fa2,88(sp)
    454c:	0066                	c.slli	zero,0x19

0000454e <.LASF635>:
    454e:	5f5f 6168 6576      	0x657661685f5f
    4554:	6c5f 6e6f 6c67      	0x6c676e6f6c5f
    455a:	36676e6f          	jal	t3,7a8c0 <.LASF439+0x74851>
    455e:	2034                	fld	fa3,64(s0)
    4560:	0031                	c.nop	12

00004562 <.LASF557>:
    4562:	475f 494c 4342      	0x4342494c475f
    4568:	5858                	lw	a4,52(s0)
    456a:	485f 5641 5f45      	0x5f455641485f
    4570:	5f535953          	0x5f535953
    4574:	4552                	lw	a0,20(sp)
    4576:	52554f53          	0x52554f53
    457a:	485f4543          	fmadd.s	fa0,ft10,ft5,fs1,rmm
    457e:	3120                	fld	fs0,96(a0)
	...

00004581 <.LASF830>:
    4581:	6f727073          	csrci	0x6f7,4
    4585:	64615f63          	bge	sp,t1,4be3 <.LASF838+0xe>
    4589:	0064                	addi	s1,sp,12

0000458b <.LASF503>:
    458b:	475f 494c 4342      	0x4342494c475f
    4591:	5858                	lw	a4,52(s0)
    4593:	485f 5641 5f45      	0x5f455641485f
    4599:	4f45                	li	t5,17
    459b:	52454e57          	0x52454e57
    459f:	4544                	lw	s1,12(a0)
    45a1:	4441                	li	s0,16
    45a3:	3120                	fld	fs0,96(a0)
	...

000045a6 <.LASF353>:
    45a6:	5f5f 6972 6373      	0x637369725f5f
    45ac:	5f76                	lw	t5,124(sp)
    45ae:	6c78                	flw	fa4,92(s0)
    45b0:	6e65                	lui	t3,0x19
    45b2:	3320                	fld	fs0,96(a4)
    45b4:	0032                	c.slli	zero,0xc

000045b6 <.LASF493>:
    45b6:	475f 494c 4342      	0x4342494c475f
    45bc:	5858                	lw	a4,52(s0)
    45be:	485f 5641 5f45      	0x5f455641485f
    45c4:	4345                	li	t1,17
    45c6:	4948                	lw	a0,20(a0)
    45c8:	444c                	lw	a1,12(s0)
    45ca:	3120                	fld	fs0,96(a0)
	...

000045cd <.LASF69>:
    45cd:	5f5f 4544 5250      	0x525045445f5f
    45d3:	4345                	li	t1,17
    45d5:	5441                	li	s0,-16
    45d7:	4445                	li	s0,17
    45d9:	3120                	fld	fs0,96(a0)
	...

000045dc <.LASF285>:
    45dc:	5f5f 4c46 3154      	0x31544c465f5f
    45e2:	3832                	fld	fa6,296(sp)
    45e4:	445f 4345 4d49      	0x4d494345445f
    45ea:	4c41                	li	s8,16
    45ec:	445f 4749 5f5f      	0x5f5f4749445f
    45f2:	3320                	fld	fs0,96(a4)
    45f4:	0036                	c.slli	zero,0xd

000045f6 <.LASF594>:
    45f6:	475f 494c 4342      	0x4342494c475f
    45fc:	5858                	lw	a4,52(s0)
    45fe:	505f 5254 4944      	0x49445254505f
    4604:	4646                	lw	a2,80(sp)
    4606:	545f 495f 5f53      	0x5f53495f545f
    460c:	4e49                	li	t3,18
    460e:	2054                	fld	fa3,128(s0)
    4610:	0031                	c.nop	12

00004612 <.LASF855>:
    4612:	5a5f 374e 7073      	0x7073374e5a5f
    4618:	6f72                	flw	ft10,28(sp)
    461a:	43745f63          	bge	s0,s7,4a58 <.LASF226+0x1>
    461e:	4534                	lw	a3,72(a0)
    4620:	4650                	lw	a2,12(a2)
    4622:	5076                	0x5076
    4624:	4576                	lw	a0,92(sp)
    4626:	6879                	lui	a6,0x1e
    4628:	005f3053          	fadd.s	ft0,ft10,ft5,rup

0000462c <.LASF166>:
    462c:	5f5f 4e49 3154      	0x31544e495f5f
    4632:	5f36                	lw	t5,108(sp)
    4634:	29632843          	fmadd.s	fa6,ft6,fs6,ft5,rdn
    4638:	6320                	flw	fs0,64(a4)
	...

0000463b <.LASF577>:
    463b:	475f 494c 4342      	0x4342494c475f
    4641:	5858                	lw	a4,52(s0)
    4643:	505f 4341 414b      	0x414b4341505f
    4649:	535f4547          	fmsub.d	fa0,ft10,fs5,fa0,rmm
    464d:	5254                	lw	a3,36(a2)
    464f:	4e49                	li	t3,18
    4651:	70222047          	fmsub.s	ft0,ft4,ft2,fa4,rdn
    4655:	6361                	lui	t1,0x18
    4657:	6567616b          	0x6567616b
    465b:	752d                	lui	a0,0xfffeb
    465d:	756e                	flw	fa0,248(sp)
    465f:	20646573          	csrrsi	a0,0x206,8
    4663:	6576                	flw	fa0,92(sp)
    4665:	7372                	flw	ft6,60(sp)
    4667:	6f69                	lui	t5,0x1a
    4669:	2d6e                	fld	fs10,216(sp)
    466b:	6e75                	lui	t3,0x1d
    466d:	7375                	lui	t1,0xffffd
    466f:	6465                	lui	s0,0x19
    4671:	0022                	c.slli	zero,0x8

00004673 <.LASF111>:
    4673:	5f5f 7063 5f70      	0x5f7070635f5f
    4679:	6564                	flw	fs1,76(a0)
    467b:	7564                	flw	fs1,108(a0)
    467d:	6f697463          	bgeu	s2,s6,4d65 <.LASF272+0xf>
    4681:	5f6e                	lw	t5,248(sp)
    4683:	64697567          	0x64697567
    4687:	7365                	lui	t1,0xffff9
    4689:	3220                	fld	fs0,96(a2)
    468b:	3130                	fld	fa2,96(a0)
    468d:	4c333037          	lui	zero,0x4c333
	...

00004692 <.LASF104>:
    4692:	5f5f 7063 5f70      	0x5f7070635f5f
    4698:	6f6e                	flw	ft10,216(sp)
    469a:	746e                	flw	fs0,248(sp)
    469c:	7079                	c.lui	zero,0xffffe
    469e:	5f65                	li	t5,-7
    46a0:	6574                	flw	fa3,76(a0)
    46a2:	706d                	c.lui	zero,0xffffb
    46a4:	616c                	flw	fa1,68(a0)
    46a6:	6574                	flw	fa3,76(a0)
    46a8:	615f 6772 2073      	0x20736772615f
    46ae:	3032                	fld	ft0,296(sp)
    46b0:	3431                	jal	40bc <.LASF420+0xc>
    46b2:	3131                	jal	42be <.LASF114+0xd>
    46b4:	004c                	addi	a1,sp,4

000046b6 <.LASF473>:
    46b6:	505f 5453 5f4c      	0x5f4c5453505f
    46bc:	5250                	lw	a2,36(a2)
    46be:	4741                	li	a4,16
    46c0:	414d                	li	sp,19
    46c2:	445f 4345 414c      	0x414c4345445f
    46c8:	4552                	lw	a0,20(sp)
    46ca:	525f 4445 4355      	0x43554445525f
    46d0:	4954                	lw	a3,20(a0)
    46d2:	4e284e4f          	fnmadd.q	ft8,fa6,ft2,fs1,rmm
    46d6:	4d41                	li	s10,16
    46d8:	2c45                	jal	4988 <.LASF337+0x13>
    46da:	2029504f          	fnmadd.s	ft0,fs2,ft2,ft4,unknown
    46de:	505f 5453 5f4c      	0x5f4c5453505f
    46e4:	5250                	lw	a2,36(a2)
    46e6:	4741                	li	a4,16
    46e8:	414d                	li	sp,19
    46ea:	6f28                	flw	fa0,88(a4)
    46ec:	706d                	c.lui	zero,0xffffb
    46ee:	6420                	flw	fs0,72(s0)
    46f0:	6365                	lui	t1,0x19
    46f2:	616c                	flw	fa1,68(a0)
    46f4:	6572                	flw	fa0,28(sp)
    46f6:	7220                	flw	fs0,96(a2)
    46f8:	6465                	lui	s0,0x19
    46fa:	6375                	lui	t1,0x1d
    46fc:	6974                	flw	fa3,84(a0)
    46fe:	4e286e6f          	jal	t3,8abe0 <.LASF439+0x84b71>
    4702:	4d41                	li	s10,16
    4704:	3a45                	jal	40b4 <.LASF420+0x4>
    4706:	3a20504f          	fnmadd.d	ft0,ft0,ft2,ft7,unknown
    470a:	6f20                	flw	fs0,88(a4)
    470c:	706d                	c.lui	zero,0xffffb
    470e:	6f5f 7475 6f28      	0x6f2874756f5f
    4714:	706d                	c.lui	zero,0xffffb
    4716:	695f 296e 2029      	0x2029296e695f
    471c:	6e69                	lui	t3,0x1a
    471e:	7469                	lui	s0,0xffffa
    4720:	6169                	addi	sp,sp,208
    4722:	696c                	flw	fa1,84(a0)
    4724:	657a                	flw	fa0,156(sp)
    4726:	2872                	fld	fa6,280(sp)
    4728:	5f706d6f          	jal	s10,b51e <.LASF439+0x54af>
    472c:	7270                	flw	fa2,100(a2)
    472e:	7669                	lui	a2,0xffffa
    4730:	3d20                	fld	fs0,120(a0)
    4732:	6f20                	flw	fs0,88(a4)
    4734:	706d                	c.lui	zero,0xffffb
    4736:	6f5f 6972 2967      	0x296769726f5f
    473c:	0029                	c.nop	10

0000473e <.LASF151>:
    473e:	5f5f 4953 5f47      	0x5f4749535f5f
    4744:	5441                	li	s0,-16
    4746:	43494d4f          	fnmadd.d	fs10,fs2,fs4,fs0,rmm
    474a:	4d5f 5841 5f5f      	0x5f5f58414d5f
    4750:	3020                	fld	fs0,96(s0)
    4752:	3778                	fld	fa4,232(a4)
    4754:	6666                	flw	fa2,88(sp)
    4756:	6666                	flw	fa2,88(sp)
    4758:	6666                	flw	fa2,88(sp)
    475a:	0066                	c.slli	zero,0x19

0000475c <.LASF764>:
    475c:	5f5f 7863 3178      	0x317878635f5f
    4762:	0031                	c.nop	12

00004764 <.LASF660>:
    4764:	5f5f 6e69 3274      	0x32746e695f5f
    476a:	5f30                	lw	a2,120(a4)
    476c:	205f 322b       	0x5f00322b205f

00004771 <.LASF766>:
    4771:	5f5f 6975 746e      	0x746e69755f5f
    4777:	5f38                	lw	a4,120(a4)
    4779:	0074                	addi	a3,sp,12

0000477b <.LASF82>:
    477b:	5f5f 7063 5f70      	0x5f7070635f5f
    4781:	7672                	flw	fa2,60(sp)
    4783:	6c61                	lui	s8,0x18
    4785:	6575                	lui	a0,0x1d
    4787:	725f 6665 7265      	0x72656665725f
    478d:	6e65                	lui	t3,0x19
    478f:	32206563          	bltu	zero,sp,4ab9 <.LASF148+0x1d>
    4793:	3030                	fld	fa2,96(s0)
    4795:	3136                	fld	ft2,360(sp)
    4797:	4c30                	lw	a2,88(s0)
	...

0000479a <.LASF687>:
    479a:	495f 544e 3436      	0x3436544e495f
    47a0:	545f 445f 4345      	0x4345445f545f
    47a6:	414c                	lw	a1,4(a0)
    47a8:	4552                	lw	a0,20(sp)
    47aa:	2044                	fld	fs1,128(s0)
	...

000047ad <.LASF118>:
    47ad:	5f5f 7063 5f70      	0x5f7070635f5f
    47b3:	657a6973          	csrrsi	s2,0x657,20
    47b7:	5f64                	lw	s1,124(a4)
    47b9:	6564                	flw	fs1,76(a0)
    47bb:	6c61                	lui	s8,0x18
    47bd:	6f6c                	flw	fa1,92(a4)
    47bf:	69746163          	bltu	s0,s7,4e41 <.LASF305+0x1b>
    47c3:	32206e6f          	jal	t3,aae5 <.LASF439+0x4a76>
    47c7:	3130                	fld	fa2,96(a0)
    47c9:	4c393033          	0x4c393033
	...

000047ce <.LASF769>:
    47ce:	5f5f 6e69 3174      	0x31746e695f5f
    47d4:	5f36                	lw	t5,108(sp)
    47d6:	0074                	addi	a3,sp,12

000047d8 <.LASF815>:
    47d8:	6975                	lui	s2,0x1d
    47da:	746e                	flw	fs0,248(sp)
    47dc:	665f 7361 3874      	0x38747361665f
    47e2:	745f        	0x4c475f00745f

000047e5 <.LASF546>:
    47e5:	475f 494c 4342      	0x4342494c475f
    47eb:	5858                	lw	a4,52(s0)
    47ed:	485f 5641 5f45      	0x5f455641485f
    47f3:	45454c53          	0x45454c53
    47f7:	2050                	fld	fa2,128(s0)
    47f9:	0031                	c.nop	12

000047fb <.LASF422>:
    47fb:	475f 494c 4342      	0x4342494c475f
    4801:	5858                	lw	a4,52(s0)
    4803:	575f 4145 5f4b      	0x5f4b4145575f
    4809:	4544                	lw	s1,12(a0)
    480b:	4946                	lw	s2,80(sp)
    480d:	494e                	lw	s2,208(sp)
    480f:	4954                	lw	a3,20(a0)
    4811:	00204e4f          	fnmadd.s	ft8,ft0,ft2,ft0,rmm

00004815 <.LASF356>:
    4815:	5f5f 4c45 5f46      	0x5f464c455f5f
    481b:	205f 0031       	0x4e490031205f

0000481f <.LASF717>:
    481f:	4e49                	li	t3,18
    4821:	3354                	fld	fa3,160(a4)
    4823:	5f32                	lw	t5,44(sp)
    4825:	494d                	li	s2,19
    4827:	204e                	fld	ft0,208(sp)
    4829:	2d28                	fld	fa0,88(a0)
    482b:	5f5f 4e49 3354      	0x33544e495f5f
    4831:	5f32                	lw	t5,44(sp)
    4833:	414d                	li	sp,19
    4835:	5f58                	lw	a4,60(a4)
    4837:	205f 202d 2931      	0x2931202d205f
	...

0000483e <.LASF383>:
    483e:	475f 494c 4342      	0x4342494c475f
    4844:	5858                	lw	a4,52(s0)
    4846:	4e5f 454f 4358      	0x4358454f4e5f
    484c:	5045                	c.li	zero,-15
    484e:	5f54                	lw	a3,60(a4)
    4850:	4649                	li	a2,18
    4852:	2e28                	fld	fa0,88(a2)
    4854:	2e2e                	fld	ft8,200(sp)
    4856:	2029                	jal	4860 <.LASF383+0x22>
    4858:	6f6e                	flw	ft10,216(sp)
    485a:	7865                	lui	a6,0xffff9
    485c:	74706563          	bltu	zero,t2,4fa6 <.LASF257+0x1b>
    4860:	5f28                	lw	a0,120(a4)
    4862:	565f 5f41 5241      	0x52415f41565f
    4868:	5f5f5347          	fmsub.q	ft6,ft10,fs5,fa1,unknown
    486c:	0029                	c.nop	10

0000486e <.LASF318>:
    486e:	5f5f 4c46 3654      	0x36544c465f5f
    4874:	5834                	lw	a3,112(s0)
    4876:	4d5f 4e49 5f5f      	0x5f5f4e494d5f
    487c:	3320                	fld	fs0,96(a4)
    487e:	332e                	fld	ft6,232(sp)
    4880:	3236                	fld	ft4,360(sp)
    4882:	3031                	jal	408e <.LASF303+0x33>
    4884:	33343133          	0x33343133
    4888:	3131                	jal	4494 <.LASF55+0xd>
    488a:	3032                	fld	ft0,296(sp)
    488c:	3339                	jal	459a <.LASF503+0xf>
    488e:	3035                	jal	40ba <.LASF420+0xa>
    4890:	3236                	fld	ft4,360(sp)
    4892:	3236                	fld	ft4,360(sp)
    4894:	3736                	fld	fa4,360(sp)
    4896:	37313837          	lui	a6,0x37313
    489a:	37313233          	0x37313233
    489e:	3235                	jal	41ca <.LASF193+0x25>
    48a0:	3036                	fld	ft0,360(sp)
    48a2:	2d65                	jal	4f5a <.LASF437+0x25>
    48a4:	3934                	fld	fa3,112(a0)
    48a6:	36463233          	0x36463233
    48aa:	7834                	flw	fa3,112(s0)
	...

000048ad <.LASF849>:
    48ad:	6974                	flw	fa3,84(a0)
    48af:	656d                	lui	a0,0x1b
	...

000048b2 <.LASF131>:
    48b2:	5f5f 4357 4148      	0x414843575f5f
    48b8:	5f52                	lw	t5,52(sp)
    48ba:	414d                	li	sp,19
    48bc:	5f58                	lw	a4,60(a4)
    48be:	205f 7830 6637      	0x66377830205f
    48c4:	6666                	flw	fa2,88(sp)
    48c6:	6666                	flw	fa2,88(sp)
    48c8:	6666                	flw	fa2,88(sp)
	...

000048cb <.LASF792>:
    48cb:	5f5f 6975 746e      	0x746e69755f5f
    48d1:	7470                	flw	fa2,108(s0)
    48d3:	5f72                	lw	t5,60(sp)
    48d5:	0074                	addi	a3,sp,12

000048d7 <.LASF6>:
    48d7:	5f5f 4e47 4355      	0x43554e475f5f
    48dd:	4d5f 4e49 524f      	0x524f4e494d5f
    48e3:	5f5f 3220       	0x5f0032205f5f

000048e8 <.LASF56>:
    48e8:	5f5f 4955 544e      	0x544e49555f5f
    48ee:	4c5f 4145 5453      	0x545341454c5f
    48f4:	545f3233          	0x545f3233
    48f8:	5059                	c.li	zero,-10
    48fa:	5f45                	li	t5,-15
    48fc:	205f 6f6c 676e      	0x676e6f6c205f
    4902:	7520                	flw	fs0,104(a0)
    4904:	736e                	flw	ft6,248(sp)
    4906:	6769                	lui	a4,0x1a
    4908:	656e                	flw	fa0,216(sp)
    490a:	2064                	fld	fs1,192(s0)
    490c:	6e69                	lui	t3,0x1a
    490e:	0074                	addi	a3,sp,12

00004910 <.LASF236>:
    4910:	5f5f 444c 4c42      	0x4c42444c5f5f
    4916:	4d5f 4e49 315f      	0x315f4e494d5f
    491c:	5f30                	lw	a2,120(a4)
    491e:	5845                	li	a6,-15
    4920:	5f50                	lw	a2,60(a4)
    4922:	205f 2d28 3934      	0x39342d28205f
    4928:	00293133          	sltu	sp,s2,sp

0000492c <.LASF544>:
    492c:	475f 494c 4342      	0x4342494c475f
    4932:	5858                	lw	a4,52(s0)
    4934:	485f 5641 5f45      	0x5f455641485f
    493a:	464e4953          	0x464e4953
    493e:	3120                	fld	fs0,96(a0)
	...

00004941 <.LASF37>:
    4941:	5f5f 4e49 4d54      	0x4d544e495f5f
    4947:	5841                	li	a6,-16
    4949:	545f 5059 5f45      	0x5f455059545f
    494f:	205f 6f6c 676e      	0x676e6f6c205f
    4955:	6c20                	flw	fs0,88(s0)
    4957:	20676e6f          	jal	t3,7ab5d <.LASF439+0x74aee>
    495b:	6e69                	lui	t3,0x1a
    495d:	0074                	addi	a3,sp,12

0000495f <.LASF79>:
    495f:	5f5f 7063 5f70      	0x5f7070635f5f
    4965:	616c                	flw	fa1,68(a0)
    4967:	626d                	lui	tp,0x1b
    4969:	6164                	flw	fs1,68(a0)
    496b:	30322073          	csrs	mideleg,tp
    496f:	3930                	fld	fa2,112(a0)
    4971:	3730                	fld	fa2,104(a4)
    4973:	004c                	addi	a1,sp,4

00004975 <.LASF337>:
    4975:	5f5f 4347 5f43      	0x5f4343475f5f
    497b:	5441                	li	s0,-16
    497d:	43494d4f          	fnmadd.d	fs10,fs2,fs4,fs0,rmm
    4981:	495f 544e 4c5f      	0x4c5f544e495f
    4987:	5f4b434f          	fnmadd.q	ft6,fs6,fs4,fa1,rmm
    498b:	5246                	lw	tp,112(sp)
    498d:	4545                	li	a0,17
    498f:	3220                	fld	fs0,96(a2)
	...

00004992 <.LASF561>:
    4992:	475f 494c 4342      	0x4342494c475f
    4998:	5858                	lw	a4,52(s0)
    499a:	485f 5641 5f45      	0x5f455641485f
    49a0:	53495f53          	0x53495f53
    49a4:	4552                	lw	a0,20(sp)
    49a6:	00312047          	fmsub.s	ft0,ft2,ft3,ft0,rdn

000049aa <.LASF446>:
    49aa:	505f 5453 5f4c      	0x5f4c5453505f
    49b0:	4556                	lw	a0,84(sp)
    49b2:	5352                	lw	t1,52(sp)
    49b4:	4f49                	li	t5,18
    49b6:	5f4e                	lw	t5,240(sp)
    49b8:	494d                	li	s2,19
    49ba:	4f4e                	lw	t5,208(sp)
    49bc:	2052                	fld	ft0,272(sp)
    49be:	2828                	fld	fa0,80(s0)
    49c0:	505f 5453 5f4c      	0x5f4c5453505f
    49c6:	4556                	lw	a0,84(sp)
    49c8:	5352                	lw	t1,52(sp)
    49ca:	4f49                	li	t5,18
    49cc:	204e                	fld	ft0,208(sp)
    49ce:	2025                	jal	49f6 <.LASF304>
    49d0:	3031                	jal	41dc <.LASF139+0xd>
    49d2:	3030                	fld	fa2,96(s0)
    49d4:	2029                	jal	49de <.LASF292+0x2>
    49d6:	3031202f          	0x3031202f
    49da:	0029                	c.nop	10

000049dc <.LASF292>:
    49dc:	5f5f 4c46 3154      	0x31544c465f5f
    49e2:	3832                	fld	fa6,296(sp)
    49e4:	485f 5341 495f      	0x495f5341485f
    49ea:	464e                	lw	a2,208(sp)
    49ec:	4e49                	li	t3,18
    49ee:	5449                	li	s0,-14
    49f0:	5f59                	li	t5,-10
    49f2:	205f 0031       	0x5f5f0031205f

000049f6 <.LASF304>:
    49f6:	5f5f 4c46 3354      	0x33544c465f5f
    49fc:	5832                	lw	a6,44(sp)
    49fe:	455f 5350 4c49      	0x4c495350455f
    4a04:	5f5f4e4f          	fnmadd.q	ft8,ft10,fs5,fa1,rmm
    4a08:	3220                	fld	fs0,96(a2)
    4a0a:	322e                	fld	ft4,232(sp)
    4a0c:	3032                	fld	ft0,296(sp)
    4a0e:	3434                	fld	fa3,104(s0)
    4a10:	3036                	fld	ft0,360(sp)
    4a12:	3934                	fld	fa3,112(a0)
    4a14:	3532                	fld	fa0,296(sp)
    4a16:	3330                	fld	fa2,96(a4)
    4a18:	3331                	jal	4724 <.LASF473+0x6e>
    4a1a:	3830                	fld	fa2,112(s0)
    4a1c:	3830                	fld	fa2,112(s0)
    4a1e:	3734                	fld	fa3,104(a4)
    4a20:	3632                	fld	fa2,296(sp)
    4a22:	36333333          	0x36333333
    4a26:	3831                	jal	4242 <.LASF730+0xc>
    4a28:	3631                	jal	4534 <.LASF184+0x4>
    4a2a:	3034                	fld	fa3,96(s0)
    4a2c:	3236                	fld	ft4,360(sp)
    4a2e:	2d65                	jal	50e6 <.LASF636+0x2>
    4a30:	3631                	jal	453c <.LASF184+0xc>
    4a32:	3346                	fld	ft6,112(sp)
    4a34:	7832                	flw	fa6,44(sp)
	...

00004a37 <.LASF192>:
    4a37:	5f5f 4955 544e      	0x544e49555f5f
    4a3d:	465f 5341 3354      	0x33545341465f
    4a43:	5f32                	lw	t5,44(sp)
    4a45:	414d                	li	sp,19
    4a47:	5f58                	lw	a4,60(a4)
    4a49:	205f 7830 6666      	0x66667830205f
    4a4f:	6666                	flw	fa2,88(sp)
    4a51:	6666                	flw	fa2,88(sp)
    4a53:	6666                	flw	fa2,88(sp)
    4a55:	0055                	c.nop	21

00004a57 <.LASF226>:
    4a57:	5f5f 4244 5f4c      	0x5f4c42445f5f
    4a5d:	4f4e                	lw	t5,208(sp)
    4a5f:	4d52                	lw	s10,20(sp)
    4a61:	4d5f 5841 5f5f      	0x5f5f58414d5f
    4a67:	6420                	flw	fs0,72(s0)
    4a69:	6c62756f          	jal	a0,2c12f <.LASF439+0x260c0>
    4a6d:	2865                	jal	4b25 <.LASF514+0x4>
    4a6f:	2e31                	jal	4d8b <.LASF272+0x35>
    4a71:	36373937          	lui	s2,0x36373
    4a75:	3339                	jal	4783 <.LASF82+0x8>
    4a77:	3331                	jal	4783 <.LASF82+0x8>
    4a79:	3834                	fld	fa3,112(s0)
    4a7b:	3236                	fld	ft4,360(sp)
    4a7d:	37353133          	0x37353133
    4a81:	3830                	fld	fa2,112(s0)
    4a83:	3431                	jal	448f <.LASF55+0x8>
    4a85:	3235                	jal	43b1 <.LASF64>
    4a87:	33323437          	lui	s0,0x33323
    4a8b:	37313337          	lui	t1,0x37313
    4a8f:	3430                	fld	fa2,104(s0)
    4a91:	65373533          	0x65373533
    4a95:	3830332b          	0x3830332b
    4a99:	294c                	fld	fa1,144(a0)
	...

00004a9c <.LASF148>:
    4a9c:	5f5f 4955 544e      	0x544e49555f5f
    4aa2:	414d                	li	sp,19
    4aa4:	5f58                	lw	a4,60(a4)
    4aa6:	414d                	li	sp,19
    4aa8:	5f58                	lw	a4,60(a4)
    4aaa:	205f 7830 6666      	0x66667830205f
    4ab0:	6666                	flw	fa2,88(sp)
    4ab2:	6666                	flw	fa2,88(sp)
    4ab4:	6666                	flw	fa2,88(sp)
    4ab6:	6666                	flw	fa2,88(sp)
    4ab8:	6666                	flw	fa2,88(sp)
    4aba:	6666                	flw	fa2,88(sp)
    4abc:	6666                	flw	fa2,88(sp)
    4abe:	4c55                	li	s8,21
    4ac0:	004c                	addi	a1,sp,4

00004ac2 <.LASF500>:
    4ac2:	475f 494c 4342      	0x4342494c475f
    4ac8:	5858                	lw	a4,52(s0)
    4aca:	485f 5641 5f45      	0x5f455641485f
    4ad0:	4e45                	li	t3,17
    4ad2:	4552544f          	0x4552544f
    4ad6:	45564f43          	0x45564f43
    4ada:	4152                	lw	sp,20(sp)
    4adc:	4c42                	lw	s8,16(sp)
    4ade:	2045                	jal	4b7e <.LASF879+0x3>
    4ae0:	0031                	c.nop	12

00004ae2 <.LASF232>:
    4ae2:	5f5f 4244 5f4c      	0x5f4c42445f5f
    4ae8:	4148                	lw	a0,4(a0)
    4aea:	55515f53          	0x55515f53
    4aee:	4549                	li	a0,18
    4af0:	5f54                	lw	a3,60(a4)
    4af2:	414e                	lw	sp,208(sp)
    4af4:	5f4e                	lw	t5,240(sp)
    4af6:	205f 0031       	0x5f5f0031205f

00004afa <.LASF278>:
    4afa:	5f5f 4c46 3654      	0x36544c465f5f
    4b00:	5f34                	lw	a3,120(a4)
    4b02:	4148                	lw	a0,4(a0)
    4b04:	55515f53          	0x55515f53
    4b08:	4549                	li	a0,18
    4b0a:	5f54                	lw	a3,60(a4)
    4b0c:	414e                	lw	sp,208(sp)
    4b0e:	5f4e                	lw	t5,240(sp)
    4b10:	205f 0031       	0x69740031205f

00004b14 <.LASF870>:
    4b14:	6974                	flw	fa3,84(a0)
    4b16:	656d                	lui	a0,0x1b
    4b18:	655f 616c 7370      	0x7370616c655f
    4b1e:	6465                	lui	s0,0x19
	...

00004b21 <.LASF514>:
    4b21:	475f 494c 4342      	0x4342494c475f
    4b27:	5858                	lw	a4,52(s0)
    4b29:	485f 5641 5f45      	0x5f455641485f
    4b2f:	4c46                	lw	s8,80(sp)
    4b31:	5f54414f          	fnmadd.q	ft2,fs0,fs5,fa1,rmm
    4b35:	2048                	fld	fa0,128(s0)
    4b37:	0031                	c.nop	12

00004b39 <.LASF587>:
    4b39:	475f 494c 4342      	0x4342494c475f
    4b3f:	5858                	lw	a4,52(s0)
    4b41:	3839                	jal	435f <.LASF626+0x7>
    4b43:	555f 4553 435f      	0x435f4553555f
    4b49:	3939                	jal	4767 <.LASF660+0x3>
    4b4b:	4d5f 5441 2048      	0x204854414d5f
    4b51:	0031                	c.nop	12

00004b53 <.LASF722>:
    4b53:	4955                	li	s2,21
    4b55:	544e                	lw	s0,240(sp)
    4b57:	4c5f 4145 5453      	0x545341454c5f
    4b5d:	4d5f3233          	0x4d5f3233
    4b61:	5841                	li	a6,-16
    4b63:	2820                	fld	fs0,80(s0)
    4b65:	5f5f 4955 544e      	0x544e49555f5f
    4b6b:	4c5f 4145 5453      	0x545341454c5f
    4b71:	4d5f3233          	0x4d5f3233
    4b75:	5841                	li	a6,-16
    4b77:	5f5f 0029       	0x6f6d00295f5f

00004b7b <.LASF879>:
    4b7b:	6f6d                	lui	t5,0x1b
    4b7d:	6564                	flw	fs1,76(a0)
    4b7f:	695f 706e       	0x5f00706e695f

00004b84 <.LASF555>:
    4b84:	475f 494c 4342      	0x4342494c475f
    4b8a:	5858                	lw	a4,52(s0)
    4b8c:	485f 5641 5f45      	0x5f455641485f
    4b92:	54525453          	0x54525453
    4b96:	3120464f          	fnmadd.s	fa2,ft0,fs2,ft6,rmm
	...

00004b9b <.LASF657>:
    4b9b:	72616863          	bltu	sp,t1,52cb <.LASF623+0x3>
    4b9f:	2b20                	fld	fs0,80(a4)
    4ba1:	0030                	addi	a2,sp,8

00004ba3 <.LASF66>:
    4ba3:	5f5f 4e49 5054      	0x50544e495f5f
    4ba9:	5254                	lw	a3,36(a2)
    4bab:	545f 5059 5f45      	0x5f455059545f
    4bb1:	205f 6e69 0074      	0x746e69205f

00004bb7 <.LASF67>:
    4bb7:	5f5f 4955 544e      	0x544e49555f5f
    4bbd:	5450                	lw	a2,44(s0)
    4bbf:	5f52                	lw	t5,52(sp)
    4bc1:	5954                	lw	a3,52(a0)
    4bc3:	4550                	lw	a2,12(a0)
    4bc5:	5f5f 7520 736e      	0x736e75205f5f
    4bcb:	6769                	lui	a4,0x1a
    4bcd:	656e                	flw	fa0,216(sp)
    4bcf:	2064                	fld	fs1,192(s0)
    4bd1:	6e69                	lui	t3,0x1a
    4bd3:	0074                	addi	a3,sp,12

00004bd5 <.LASF838>:
    4bd5:	5a5f 334e 6373      	0x6373334e5a5f
    4bdb:	3668                	fld	fa0,232(a2)
    4bdd:	74657373          	csrrci	t1,0x746,10
    4be1:	7075                	c.lui	zero,0xffffd
    4be3:	7645                	lui	a2,0xffff1
	...

00004be6 <.LASF324>:
    4be6:	5f5f 4552 4947      	0x494745525f5f
    4bec:	52455453          	0x52455453
    4bf0:	505f 4552 4946      	0x49464552505f
    4bf6:	5f58                	lw	a4,60(a4)
    4bf8:	205f        	0x48435700205f

00004bfb <.LASF749>:
    4bfb:	41484357          	0x41484357
    4bff:	5f52                	lw	t5,52(sp)
    4c01:	494d                	li	s2,19
    4c03:	204e                	fld	ft0,208(sp)
    4c05:	5f28                	lw	a0,120(a4)
    4c07:	575f 4843 5241      	0x52414843575f
    4c0d:	4d5f 4e49 5f5f      	0x5f5f4e494d5f
    4c13:	0029                	c.nop	10

00004c15 <.LASF219>:
    4c15:	5f5f 4244 5f4c      	0x5f4c42445f5f
    4c1b:	4944                	lw	s1,20(a0)
    4c1d:	205f5f47          	fmsub.s	ft10,ft10,ft5,ft4,unknown
    4c21:	3531                	jal	4a2d <.LASF304+0x37>
	...

00004c24 <.LASF682>:
    4c24:	555f 4e49 3154      	0x31544e49555f
    4c2a:	5f36                	lw	t5,108(sp)
    4c2c:	5f54                	lw	a3,60(a4)
    4c2e:	4544                	lw	s1,12(a0)
    4c30:	52414c43          	fmadd.d	fs8,ft2,ft4,fa0,rmm
    4c34:	4445                	li	s0,17
    4c36:	0020                	addi	s0,sp,8

00004c38 <.LASF818>:
    4c38:	6e69                	lui	t3,0x1a
    4c3a:	5f74                	lw	a3,124(a4)
    4c3c:	6166                	flw	ft2,88(sp)
    4c3e:	32337473          	csrrci	s0,mhpmevent3,6
    4c42:	745f        	0x535f5f00745f

00004c45 <.LASF23>:
    4c45:	5f5f 4953 455a      	0x455a49535f5f
    4c4b:	535f464f          	fnmadd.d	fa2,ft10,fs5,fa0,rmm
    4c4f:	5a49                	li	s4,-14
    4c51:	5f45                	li	t5,-15
    4c53:	5f54                	lw	a3,60(a4)
    4c55:	205f 0034       	0x5f5f0034205f

00004c59 <.LASF49>:
    4c59:	5f5f 4955 544e      	0x544e49555f5f
    4c5f:	3436                	fld	fs0,360(sp)
    4c61:	545f 5059 5f45      	0x5f455059545f
    4c67:	205f 6f6c 676e      	0x676e6f6c205f
    4c6d:	6c20                	flw	fs0,88(s0)
    4c6f:	20676e6f          	jal	t3,7ae75 <.LASF439+0x74e06>
    4c73:	6e75                	lui	t3,0x1d
    4c75:	6e676973          	csrrsi	s2,0x6e6,14
    4c79:	6465                	lui	s0,0x19
    4c7b:	6920                	flw	fs0,80(a0)
    4c7d:	746e                	flw	fs0,248(sp)
	...

00004c80 <.LASF696>:
    4c80:	5f5f 6e69 5f74      	0x5f746e695f5f
    4c86:	656c                	flw	fa1,76(a0)
    4c88:	7361                	lui	t1,0xffff8
    4c8a:	3374                	fld	fa3,224(a4)
    4c8c:	5f32                	lw	t5,44(sp)
    4c8e:	5f74                	lw	a3,124(a4)
    4c90:	6564                	flw	fs1,76(a0)
    4c92:	6966                	flw	fs2,88(sp)
    4c94:	656e                	flw	fa0,216(sp)
    4c96:	2064                	fld	fs1,192(s0)
    4c98:	0031                	c.nop	12

00004c9a <.LASF172>:
    4c9a:	5f5f 4e49 3654      	0x36544e495f5f
    4ca0:	5f34                	lw	a3,120(a4)
    4ca2:	29632843          	fmadd.s	fa6,ft6,fs6,ft5,rdn
    4ca6:	6320                	flw	fs0,64(a4)
    4ca8:	2320                	fld	fs0,64(a4)
    4caa:	4c4c2023          	sw	tp,1216(s8) # 184c0 <.LASF439+0x12451>
	...

00004caf <.LASF504>:
    4caf:	475f 494c 4342      	0x4342494c475f
    4cb5:	5858                	lw	a4,52(s0)
    4cb7:	485f 5641 5f45      	0x5f455641485f
    4cbd:	5045                	c.li	zero,-15
    4cbf:	5245                	li	tp,-15
    4cc1:	204d                	jal	4d63 <.LASF272+0xd>
    4cc3:	0031                	c.nop	12

00004cc5 <.LASF426>:
    4cc5:	475f 494c 4342      	0x4342494c475f
    4ccb:	5858                	lw	a4,52(s0)
    4ccd:	555f 4553 535f      	0x535f4553555f
    4cd3:	4454                	lw	a3,12(s0)
    4cd5:	535f 4550 5f43      	0x5f434550535f
    4cdb:	5546                	lw	a0,112(sp)
    4cdd:	434e                	lw	t1,208(sp)
    4cdf:	00312053          	fadd.s	ft0,ft2,ft3,rdn

00004ce3 <.LASF274>:
    4ce3:	5f5f 4c46 3654      	0x36544c465f5f
    4ce9:	5f34                	lw	a3,120(a4)
    4ceb:	5045                	c.li	zero,-15
    4ced:	4f4c4953          	0x4f4c4953
    4cf1:	5f4e                	lw	t5,240(sp)
    4cf3:	205f 2e32 3232      	0x32322e32205f
    4cf9:	3430                	fld	fa2,104(s0)
    4cfb:	3634                	fld	fa3,104(a2)
    4cfd:	3430                	fld	fa2,104(s0)
    4cff:	3239                	jal	460d <.LASF594+0x17>
    4d01:	3035                	jal	452d <.LASF820+0xa>
    4d03:	30333133          	0x30333133
    4d07:	3038                	fld	fa4,96(s0)
    4d09:	3438                	fld	fa4,104(s0)
    4d0b:	33363237          	lui	tp,0x33363
    4d0f:	31363333          	0x31363333
    4d13:	3138                	fld	fa4,96(a0)
    4d15:	3436                	fld	fs0,360(sp)
    4d17:	3630                	fld	fa2,104(a2)
    4d19:	6532                	flw	fa0,12(sp)
    4d1b:	312d                	jal	4945 <.LASF37+0x4>
    4d1d:	4636                	lw	a2,76(sp)
    4d1f:	3436                	fld	fs0,360(sp)
	...

00004d22 <.LASF720>:
    4d22:	4e49                	li	t3,18
    4d24:	5f54                	lw	a3,60(a4)
    4d26:	454c                	lw	a1,12(a0)
    4d28:	5341                	li	t1,-16
    4d2a:	3354                	fld	fa3,160(a4)
    4d2c:	5f32                	lw	t5,44(sp)
    4d2e:	494d                	li	s2,19
    4d30:	204e                	fld	ft0,208(sp)
    4d32:	2d28                	fld	fa0,88(a0)
    4d34:	5f5f 4e49 5f54      	0x5f544e495f5f
    4d3a:	454c                	lw	a1,12(a0)
    4d3c:	5341                	li	t1,-16
    4d3e:	3354                	fld	fa3,160(a4)
    4d40:	5f32                	lw	t5,44(sp)
    4d42:	414d                	li	sp,19
    4d44:	5f58                	lw	a4,60(a4)
    4d46:	205f 202d 2931      	0x2931202d205f
	...

00004d4d <.LASF883>:
    4d4d:	6164                	flw	fs1,68(a0)
    4d4f:	6174                	flw	fa3,68(a0)
    4d51:	695f 706e       	0x5f00706e695f

00004d56 <.LASF272>:
    4d56:	5f5f 4c46 3654      	0x36544c465f5f
    4d5c:	5f34                	lw	a3,120(a4)
    4d5e:	4f4e                	lw	t5,208(sp)
    4d60:	4d52                	lw	s10,20(sp)
    4d62:	4d5f 5841 5f5f      	0x5f5f58414d5f
    4d68:	3120                	fld	fs0,96(a0)
    4d6a:	372e                	fld	fa4,232(sp)
    4d6c:	3739                	jal	4c7a <.LASF49+0x21>
    4d6e:	3936                	fld	fs2,360(sp)
    4d70:	34333133          	0x34333133
    4d74:	3638                	fld	fa4,104(a2)
    4d76:	3332                	fld	ft6,296(sp)
    4d78:	3531                	jal	4b84 <.LASF555>
    4d7a:	31383037          	lui	zero,0x31383
    4d7e:	3534                	fld	fa3,104(a0)
    4d80:	3732                	fld	fa4,296(sp)
    4d82:	3234                	fld	fa3,96(a2)
    4d84:	31333733          	0x31333733
    4d88:	33343037          	lui	zero,0x33343
    4d8c:	3735                	jal	4cb8 <.LASF504+0x9>
    4d8e:	2b65                	jal	5346 <.LASF565+0x7>
    4d90:	46383033          	0x46383033
    4d94:	3436                	fld	fs0,360(sp)
	...

00004d97 <.LASF413>:
    4d97:	5f5f 6c67 6269      	0x62696c675f5f
    4d9d:	5f787863          	bgeu	a6,s7,538d <.LASF74+0xa>
    4da1:	7361                	lui	t1,0xffff8
    4da3:	74726573          	csrrsi	a0,0x747,4
    4da7:	5f28                	lw	a0,120(a4)
    4da9:	646e6f43          	0x646e6f43
    4dad:	7469                	lui	s0,0xffffa
    4daf:	6f69                	lui	t5,0x1a
    4db1:	296e                	fld	fs2,216(sp)
    4db3:	0020                	addi	s0,sp,8

00004db5 <.LASF649>:
    4db5:	6e75                	lui	t3,0x1d
    4db7:	6e676973          	csrrsi	s2,0x6e6,14
    4dbb:	6465                	lui	s0,0x19
	...

00004dbe <.LASF538>:
    4dbe:	475f 494c 4342      	0x4342494c475f
    4dc4:	5858                	lw	a4,52(s0)
    4dc6:	485f 5641 5f45      	0x5f455641485f
    4dcc:	414d                	li	sp,19
    4dce:	4e494843          	fmadd.q	fa6,fs2,ft4,fs1,rmm
    4dd2:	5f45                	li	t5,-15
    4dd4:	4150                	lw	a2,4(a0)
    4dd6:	4152                	lw	sp,20(sp)
    4dd8:	5f4d                	li	t5,-13
    4dda:	2048                	fld	fa0,128(s0)
    4ddc:	0031                	c.nop	12

00004dde <.LASF445>:
    4dde:	505f 5453 5f4c      	0x5f4c5453505f
    4de4:	4556                	lw	a0,84(sp)
    4de6:	5352                	lw	t1,52(sp)
    4de8:	4f49                	li	t5,18
    4dea:	5f4e                	lw	t5,240(sp)
    4dec:	414d                	li	sp,19
    4dee:	4f4a                	lw	t5,144(sp)
    4df0:	2052                	fld	ft0,272(sp)
    4df2:	5f28                	lw	a0,120(a4)
    4df4:	5350                	lw	a2,36(a4)
    4df6:	4c54                	lw	a3,28(s0)
    4df8:	565f 5245 4953      	0x49535245565f
    4dfe:	2f204e4f          	fnmadd.q	ft8,ft0,fs2,ft5,rmm
    4e02:	3120                	fld	fs0,96(a0)
    4e04:	3030                	fld	fa2,96(s0)
    4e06:	2930                	fld	fa2,80(a0)
	...

00004e09 <.LASF418>:
    4e09:	475f 494c 4342      	0x4342494c475f
    4e0f:	5858                	lw	a4,52(s0)
    4e11:	555f 4553 415f      	0x415f4553555f
    4e17:	4c4c                	lw	a1,28(s0)
    4e19:	5441434f          	0x5441434f
    4e1d:	4e5f524f          	fnmadd.q	ft4,ft10,ft5,fs1,unknown
    4e21:	5745                	li	a4,-15
    4e23:	3120                	fld	fs0,96(a0)
	...

00004e26 <.LASF305>:
    4e26:	5f5f 4c46 3354      	0x33544c465f5f
    4e2c:	5832                	lw	a6,44(sp)
    4e2e:	445f 4e45 524f      	0x524f4e45445f
    4e34:	5f4d                	li	t5,-13
    4e36:	494d                	li	s2,19
    4e38:	5f4e                	lw	t5,240(sp)
    4e3a:	205f 2e34 3439      	0x34392e34205f
    4e40:	3630                	fld	fa2,104(a2)
    4e42:	3635                	jal	496e <.LASF79+0xf>
    4e44:	3534                	fld	fa3,104(a0)
    4e46:	3438                	fld	fa4,104(s0)
    4e48:	3231                	jal	4754 <.LASF151+0x16>
    4e4a:	3634                	fld	fa3,104(a2)
    4e4c:	3435                	jal	4878 <.LASF318+0xa>
    4e4e:	3134                	fld	fa3,96(a0)
    4e50:	36353637          	lui	a2,0x36353
    4e54:	3738                	fld	fa4,104(a4)
    4e56:	3239                	jal	4764 <.LASF660>
    4e58:	3638                	fld	fa4,104(a2)
    4e5a:	3238                	fld	fa4,96(a2)
    4e5c:	3132                	fld	ft2,296(sp)
    4e5e:	65323733          	0x65323733
    4e62:	332d                	jal	4b8c <.LASF555+0x8>
    4e64:	3432                	fld	fs0,296(sp)
    4e66:	3346                	fld	ft6,112(sp)
    4e68:	7832                	flw	fa6,44(sp)
	...

00004e6b <.LASF177>:
    4e6b:	5f5f 4955 544e      	0x544e49555f5f
    4e71:	3631                	jal	497d <.LASF337+0x8>
    4e73:	435f 6328 2029      	0x20296328435f
    4e79:	          	beq	t5,s5,5459 <.LASF182+0x3>

00004e7b <.LASF80>:
    4e7b:	5f5f 7063 5f70      	0x5f7070635f5f
    4e81:	6564                	flw	fs1,76(a0)
    4e83:	79746c63          	bltu	s0,s7,561b <.LASF286+0x26>
    4e87:	6570                	flw	fa2,76(a0)
    4e89:	3220                	fld	fs0,96(a2)
    4e8b:	3030                	fld	fa2,96(s0)
    4e8d:	4c373037          	lui	zero,0x4c373
	...

00004e92 <.LASF801>:
    4e92:	6975                	lui	s2,0x1d
    4e94:	746e                	flw	fs0,248(sp)
    4e96:	3436                	fld	fs0,360(sp)
    4e98:	745f        	0x646f6d00745f

00004e9b <.LASF851>:
    4e9b:	6f6d                	lui	t5,0x1b
    4e9d:	6564                	flw	fs1,76(a0)
	...

00004ea0 <.LASF403>:
    4ea0:	475f 494c 4342      	0x4342494c475f
    4ea6:	5858                	lw	a4,52(s0)
    4ea8:	535f 4454 415f      	0x415f4454535f
    4eae:	7320                	flw	fs0,96(a4)
    4eb0:	6474                	flw	fa3,76(s0)
	...

00004eb3 <.LASF369>:
    4eb3:	475f 494c 4342      	0x4342494c475f
    4eb9:	5858                	lw	a4,52(s0)
    4ebb:	565f 5349 4249      	0x42495349565f
    4ec1:	4c49                	li	s8,18
    4ec3:	5449                	li	s0,-14
    4ec5:	2859                	jal	4f5b <.LASF437+0x26>
    4ec7:	2956                	fld	fs2,336(sp)
    4ec9:	5f20                	lw	s0,120(a4)
    4ecb:	615f 7474 6972      	0x69727474615f
    4ed1:	7562                	flw	fa0,56(sp)
    4ed3:	6574                	flw	fa3,76(a0)
    4ed5:	5f5f 2820 5f28      	0x5f2828205f5f
    4edb:	765f 7369 6269      	0x62697369765f
    4ee1:	6c69                	lui	s8,0x1a
    4ee3:	7469                	lui	s0,0xffffa
    4ee5:	5f79                	li	t5,-2
    4ee7:	205f 2328 2956      	0x29562328205f
    4eed:	2929                	jal	5307 <.LASF458+0x12>
	...

00004ef0 <.LASF313>:
    4ef0:	5f5f 4c46 3654      	0x36544c465f5f
    4ef6:	5834                	lw	a3,112(s0)
    4ef8:	4d5f 5841 455f      	0x455f58414d5f
    4efe:	5058                	lw	a4,36(s0)
    4f00:	5f5f 3120 3336      	0x333631205f5f
    4f06:	3438                	fld	fa4,104(s0)
	...

00004f09 <.LASF541>:
    4f09:	475f 494c 4342      	0x4342494c475f
    4f0f:	5858                	lw	a4,52(s0)
    4f11:	485f 5641 5f45      	0x5f455641485f
    4f17:	454d                	li	a0,19
    4f19:	4f4d                	li	t5,19
    4f1b:	5952                	lw	s2,52(sp)
    4f1d:	485f 3120       	0x5f003120485f

00004f22 <.LASF9>:
    4f22:	5f5f 5441 4d4f      	0x4d4f54415f5f
    4f28:	4349                	li	t1,18
    4f2a:	525f 4c45 5841      	0x58414c45525f
    4f30:	4445                	li	s0,17
    4f32:	3020                	fld	fs0,96(s0)
	...

00004f35 <.LASF437>:
    4f35:	475f 494c 4342      	0x4342494c475f
    4f3b:	5858                	lw	a4,52(s0)
    4f3d:	425f 4955 544c      	0x544c4955425f
    4f43:	4e49                	li	t3,18
    4f45:	495f 5f53 4153      	0x41535f53495f
    4f4b:	454d                	li	a0,19
    4f4d:	415f 2853 2c54      	0x2c542853415f
    4f53:	2955                	jal	5407 <.LASF394+0x11>
    4f55:	5f20                	lw	s0,120(a4)
    4f57:	695f 5f73 6173      	0x61735f73695f
    4f5d:	656d                	lui	a0,0x1b
    4f5f:	615f 2873 2c54      	0x2c542873615f
    4f65:	5520                	lw	s0,104(a0)
    4f67:	0029                	c.nop	10

00004f69 <.LASF402>:
    4f69:	475f 494c 4342      	0x4342494c475f
    4f6f:	5858                	lw	a4,52(s0)
    4f71:	455f 444e 4e5f      	0x4e5f444e455f
    4f77:	4d41                	li	s10,16
    4f79:	5345                	li	t1,-15
    4f7b:	4150                	lw	a2,4(a0)
    4f7d:	435f4543          	fmadd.d	fa0,ft10,fs5,fs0,rmm
    4f81:	41544e4f          	fnmadd.s	ft8,fs0,fs5,fs0,rmm
    4f85:	4e49                	li	t3,18
    4f87:	5245                	li	tp,-15
    4f89:	0020                	addi	s0,sp,8

00004f8b <.LASF257>:
    4f8b:	5f5f 4c46 3354      	0x33544c465f5f
    4f91:	5f32                	lw	t5,44(sp)
    4f93:	4f4e                	lw	t5,208(sp)
    4f95:	4d52                	lw	s10,20(sp)
    4f97:	4d5f 5841 5f5f      	0x5f5f58414d5f
    4f9d:	3320                	fld	fs0,96(a4)
    4f9f:	342e                	fld	fs0,232(sp)
    4fa1:	3230                	fld	fa2,96(a2)
    4fa3:	3238                	fld	fa4,96(a2)
    4fa5:	36363433          	0x36363433
    4fa9:	32353833          	0x32353833
    4fad:	3838                	fld	fa4,112(s0)
    4faf:	3935                	jal	4beb <.LASF324+0x5>
    4fb1:	3138                	fld	fa4,96(a0)
    4fb3:	3731                	jal	4ebf <.LASF369+0xc>
    4fb5:	3430                	fld	fa2,104(s0)
    4fb7:	3831                	jal	47d3 <.LASF769+0x5>
    4fb9:	34383433          	0x34383433
    4fbd:	3135                	jal	4be9 <.LASF324+0x3>
    4fbf:	3936                	fld	fs2,360(sp)
    4fc1:	3532                	fld	fa0,296(sp)
    4fc3:	2b65                	jal	557b <.LASF462+0x28>
    4fc5:	33463833          	0x33463833
    4fc9:	0032                	c.slli	zero,0xc

00004fcb <.LASF231>:
    4fcb:	5f5f 4244 5f4c      	0x5f4c42445f5f
    4fd1:	4148                	lw	a0,4(a0)
    4fd3:	4e495f53          	0x4e495f53
    4fd7:	4946                	lw	s2,80(sp)
    4fd9:	494e                	lw	s2,208(sp)
    4fdb:	5954                	lw	a3,52(a0)
    4fdd:	5f5f 3120       	0x690031205f5f

00004fe2 <.LASF796>:
    4fe2:	6e69                	lui	t3,0x1a
    4fe4:	3174                	fld	fa3,224(a0)
    4fe6:	5f36                	lw	t5,108(sp)
    4fe8:	0074                	addi	a3,sp,12

00004fea <.LASF850>:
    4fea:	6974                	flw	fa3,84(a0)
    4fec:	656d                	lui	a0,0x1b
    4fee:	725f 6c65 7461      	0x74616c65725f
    4ff4:	7669                	lui	a2,0xffffa
    4ff6:	0065                	c.nop	25

00004ff8 <.LASF506>:
    4ff8:	475f 494c 4342      	0x4342494c475f
    4ffe:	5858                	lw	a4,52(s0)
    5000:	485f 5641 5f45      	0x5f455641485f
    5006:	5445                	li	s0,-15
    5008:	4d49                	li	s10,18
    500a:	2045                	jal	50aa <.LASF576+0x20>
    500c:	0031                	c.nop	12

0000500e <.LASF435>:
    500e:	475f 494c 4342      	0x4342494c475f
    5014:	5858                	lw	a4,52(s0)
    5016:	485f 5641 5f45      	0x5f455641485f
    501c:	5542                	lw	a0,48(sp)
    501e:	4c49                	li	s8,18
    5020:	4954                	lw	a3,20(a0)
    5022:	5f4e                	lw	t5,240(sp)
    5024:	5349                	li	t1,-14
    5026:	415f 4747 4552      	0x45524747415f
    502c:	45544147          	0x45544147
    5030:	3120                	fld	fs0,96(a0)
	...

00005033 <.LASF579>:
    5033:	475f 494c 4342      	0x4342494c475f
    5039:	5858                	lw	a4,52(s0)
    503b:	505f 4341 414b      	0x414b4341505f
    5041:	555f4547          	0x555f4547
    5045:	4c52                	lw	s8,20(sp)
    5047:	2220                	fld	fs0,64(a2)
    5049:	0022                	c.slli	zero,0x8

0000504b <.LASF425>:
    504b:	475f 494c 4342      	0x4342494c475f
    5051:	5858                	lw	a4,52(s0)
    5053:	545f 4e58 535f      	0x535f4e58545f
    5059:	4641                	li	a2,16
    505b:	5f45                	li	t5,-15
    505d:	5944                	lw	s1,52(a0)
    505f:	204e                	fld	ft0,208(sp)
	...

00005062 <.LASF787>:
    5062:	5f5f 6e69 5f74      	0x5f746e695f5f
    5068:	656c                	flw	fa1,76(a0)
    506a:	7361                	lui	t1,0xffff8
    506c:	3674                	fld	fa3,232(a2)
    506e:	5f34                	lw	a3,120(a4)
    5070:	0074                	addi	a3,sp,12

00005072 <.LASF754>:
    5072:	4955                	li	s2,21
    5074:	544e                	lw	s0,240(sp)
    5076:	5f38                	lw	a4,120(a4)
    5078:	29782843          	fmadd.s	fa6,fa6,fs7,ft5,rdn
    507c:	5f20                	lw	s0,120(a4)
    507e:	555f 4e49 3854      	0x38544e49555f
    5084:	435f 7828 0029      	0x297828435f

0000508a <.LASF576>:
    508a:	475f 494c 4342      	0x4342494c475f
    5090:	5858                	lw	a4,52(s0)
    5092:	505f 4341 414b      	0x414b4341505f
    5098:	4e5f4547          	fmsub.q	fa0,ft10,ft5,fs1,rmm
    509c:	4d41                	li	s10,16
    509e:	2045                	jal	513e <.LASF155+0xc>
    50a0:	7022                	flw	ft0,40(sp)
    50a2:	6361                	lui	t1,0x18
    50a4:	6567616b          	0x6567616b
    50a8:	752d                	lui	a0,0xfffeb
    50aa:	756e                	flw	fa0,248(sp)
    50ac:	22646573          	csrrsi	a0,0x226,8
	...

000050b1 <.LASF224>:
    50b1:	5f5f 4244 5f4c      	0x5f4c42445f5f
    50b7:	4544                	lw	s1,12(a0)
    50b9:	414d4943          	fmadd.s	fs2,fs10,fs4,fs0,rmm
    50bd:	5f4c                	lw	a1,60(a4)
    50bf:	4944                	lw	s1,20(a0)
    50c1:	205f5f47          	fmsub.s	ft10,ft10,ft5,ft4,unknown
    50c5:	3731                	jal	4fd1 <.LASF231+0x6>
	...

000050c8 <.LASF604>:
    50c8:	475f 494c 4342      	0x4342494c475f
    50ce:	5858                	lw	a4,52(s0)
    50d0:	555f 4553 475f      	0x475f4553555f
    50d6:	5445                	li	s0,-15
    50d8:	4954                	lw	a3,20(a0)
    50da:	454d                	li	a0,19
    50dc:	4144464f          	fnmadd.s	fa2,fs0,fs4,fs0,rmm
    50e0:	2059                	jal	5166 <.LASF358+0x11>
    50e2:	0031                	c.nop	12

000050e4 <.LASF636>:
    50e4:	5f5f 6168 6576      	0x657661685f5f
    50ea:	6c5f 6e6f 3367      	0x33676e6f6c5f
    50f0:	2032                	fld	ft0,264(sp)
    50f2:	0031                	c.nop	12

000050f4 <.LASF790>:
    50f4:	5f5f 6975 746e      	0x746e69755f5f
    50fa:	616d                	addi	sp,sp,240
    50fc:	5f78                	lw	a4,124(a4)
    50fe:	0074                	addi	a3,sp,12

00005100 <.LASF760>:
    5100:	4955                	li	s2,21
    5102:	544e                	lw	s0,240(sp)
    5104:	3436                	fld	fs0,360(sp)
    5106:	435f 7828 2029      	0x20297828435f
    510c:	5f5f 4955 544e      	0x544e49555f5f
    5112:	3436                	fld	fs0,360(sp)
    5114:	435f 7828 0029      	0x297828435f

0000511a <.LASF491>:
    511a:	475f 494c 4342      	0x4342494c475f
    5120:	5858                	lw	a4,52(s0)
    5122:	485f 5641 5f45      	0x5f455641485f
    5128:	4245                	li	tp,17
    512a:	4441                	li	s0,16
    512c:	534d                	li	t1,-13
    512e:	00312047          	fmsub.s	ft0,ft2,ft3,ft0,rdn

00005132 <.LASF155>:
    5132:	5f5f 4e49 3154      	0x31544e495f5f
    5138:	5f36                	lw	t5,108(sp)
    513a:	414d                	li	sp,19
    513c:	5f58                	lw	a4,60(a4)
    513e:	205f 7830 6637      	0x66377830205f
    5144:	6666                	flw	fa2,88(sp)
	...

00005147 <.LASF350>:
    5147:	5f5f 6972 6373      	0x637369725f5f
    514d:	5f76                	lw	t5,124(sp)
    514f:	756d                	lui	a0,0xffffb
    5151:	206c                	fld	fa1,192(s0)
    5153:	0031                	c.nop	12

00005155 <.LASF358>:
    5155:	5848                	lw	a0,52(s0)
    5157:	4154                	lw	a3,4(a0)
    5159:	5f4c                	lw	a1,60(a4)
    515b:	4156                	lw	sp,84(sp)
    515d:	554c                	lw	a1,44(a0)
    515f:	2045                	jal	51ff <.LASF405+0x13>
    5161:	3038                	fld	fa4,96(s0)
    5163:	3030                	fld	fa2,96(s0)
    5165:	3030                	fld	fa2,96(s0)
    5167:	0030                	addi	a2,sp,8

00005169 <.LASF564>:
    5169:	475f 494c 4342      	0x4342494c475f
    516f:	5858                	lw	a4,52(s0)
    5171:	485f 5641 5f45      	0x5f455641485f
    5177:	4754                	lw	a3,12(a4)
    5179:	414d                	li	sp,19
    517b:	4854                	lw	a3,20(s0)
    517d:	485f 3120       	0x5f003120485f

00005182 <.LASF414>:
    5182:	475f 494c 4342      	0x4342494c475f
    5188:	5858                	lw	a4,52(s0)
    518a:	535f 4e59 4843      	0x48434e59535f
    5190:	4f52                	lw	t5,20(sp)
    5192:	494e                	lw	s2,208(sp)
    5194:	415a                	lw	sp,148(sp)
    5196:	4954                	lw	a3,20(a0)
    5198:	485f4e4f          	fnmadd.s	ft8,ft10,ft5,fs1,rmm
    519c:	5041                	c.li	zero,-16
    519e:	4550                	lw	a2,12(a0)
    51a0:	534e                	lw	t1,240(sp)
    51a2:	425f 4645 524f      	0x524f4645425f
    51a8:	2845                	jal	5258 <.LASF472+0x13>
    51aa:	2941                	jal	563a <.LASF436+0x6>
    51ac:	0020                	addi	s0,sp,8

000051ae <.LASF669>:
    51ae:	5f5f 4146 5453      	0x545341465f5f
    51b4:	2038                	fld	fa4,64(s0)
	...

000051b7 <.LASF416>:
    51b7:	475f 494c 4342      	0x4342494c475f
    51bd:	5858                	lw	a4,52(s0)
    51bf:	425f 4745 4e49      	0x4e494745425f
    51c5:	455f 5458 5245      	0x52455458455f
    51cb:	5f4e                	lw	t5,240(sp)
    51cd:	78652043          	fmadd.s	ft0,fa0,ft6,fa5,rdn
    51d1:	6574                	flw	fa3,76(a0)
    51d3:	6e72                	flw	ft8,28(sp)
    51d5:	2220                	fld	fs0,64(a2)
    51d7:	7b202243          	fmadd.d	ft4,ft0,fs2,fa5,rdn
	...

000051dc <.LASF632>:
    51dc:	5f5f 5358 5f49      	0x5f4953585f5f
    51e2:	4956                	lw	s2,84(sp)
    51e4:	4c424953          	0x4c424953
    51e8:	2045                	jal	5288 <.LASF153+0xd>
    51ea:	0030                	addi	a2,sp,8

000051ec <.LASF405>:
    51ec:	475f 494c 4342      	0x4342494c475f
    51f2:	5858                	lw	a4,52(s0)
    51f4:	455f 444e 4e5f      	0x4e5f444e455f
    51fa:	4d41                	li	s10,16
    51fc:	5345                	li	t1,-15
    51fe:	4150                	lw	a2,4(a0)
    5200:	415f4543          	fmadd.s	fa0,ft10,fs5,fs0,rmm
    5204:	474c                	lw	a1,12(a4)
    5206:	          	fnmadd.q	ft0,ft0,fa6,fa1,rdn

00005209 <.LASF582>:
    5209:	475f 494c 4342      	0x4342494c475f
    520f:	5858                	lw	a4,52(s0)
    5211:	445f 5241 4957      	0x49575241445f
    5217:	5f4e                	lw	t5,240(sp)
    5219:	5355                	li	t1,-11
    521b:	5f45                	li	t5,-15
    521d:	3436                	fld	fs0,360(sp)
    521f:	425f 5449 495f      	0x495f5449425f
    5225:	4f4e                	lw	t5,208(sp)
    5227:	4544                	lw	s1,12(a0)
    5229:	3120                	fld	fs0,96(a0)
	...

0000522c <.LASF68>:
    522c:	5f5f 5847 5f58      	0x5f5858475f5f
    5232:	4b414557          	0x4b414557
    5236:	5f5f 3120       	0x5f0031205f5f

0000523b <.LASF671>:
    523b:	5f5f 4146 5453      	0x545341465f5f
    5241:	00203233          	snez	tp,sp

00005245 <.LASF472>:
    5245:	505f 5453 5f4c      	0x5f4c5453505f
    524b:	5250                	lw	a2,36(a2)
    524d:	4741                	li	a4,16
    524f:	414d                	li	sp,19
    5251:	535f 4d49 5f44      	0x5f444d49535f
    5257:	4544524f          	0x4544524f
    525b:	4552                	lw	a0,20(sp)
    525d:	5f44                	lw	s1,60(a4)
    525f:	4f4d                	li	t5,19
    5261:	4f4e                	lw	t5,208(sp)
    5263:	4f54                	lw	a3,28(a4)
    5265:	494e                	lw	s2,208(sp)
    5267:	41325f43          	fmadd.s	ft10,ft4,fs3,fs0,unknown
    526b:	4752                	lw	a4,20(sp)
    526d:	52502853          	0x52502853
    5271:	314d                	jal	4f13 <.LASF541+0xa>
    5273:	502c                	lw	a1,96(s0)
    5275:	4d52                	lw	s10,20(sp)
    5277:	2932                	fld	fs2,264(sp)
    5279:	0020                	addi	s0,sp,8

0000527b <.LASF153>:
    527b:	5f5f 4953 5f47      	0x5f4749535f5f
    5281:	5441                	li	s0,-16
    5283:	43494d4f          	fnmadd.d	fs10,fs2,fs4,fs0,rmm
    5287:	575f 4449 4854      	0x48544449575f
    528d:	5f5f 3320 0032      	0x3233205f5f

00005293 <.LASF108>:
    5293:	5f5f 7063 5f70      	0x5f7070635f5f
    5299:	74706163          	bltu	zero,t2,59db <.LASF465+0x60>
    529d:	7275                	lui	tp,0xffffd
    529f:	5f65                	li	t5,-7
    52a1:	72617473          	csrrci	s0,0x726,2
    52a5:	745f 6968 2073      	0x20736968745f
    52ab:	3032                	fld	ft0,296(sp)
    52ad:	3631                	jal	4db9 <.LASF649+0x4>
    52af:	3330                	fld	fa2,96(a4)
    52b1:	004c                	addi	a1,sp,4

000052b3 <.LASF693>:
    52b3:	555f 4e49 5054      	0x50544e49555f
    52b9:	5254                	lw	a3,36(a2)
    52bb:	545f 445f 4345      	0x4345445f545f
    52c1:	414c                	lw	a1,4(a0)
    52c3:	4552                	lw	a0,20(sp)
    52c5:	2044                	fld	fs1,128(s0)
	...

000052c8 <.LASF623>:
    52c8:	5f5f 4e47 4355      	0x43554e475f5f
    52ce:	505f 4552 4552      	0x45524552505f
    52d4:	5f51                	li	t5,-12
    52d6:	285f 616d 6d2c      	0x6d2c616d285f
    52dc:	2969                	jal	5776 <.LASF489+0x4>
    52de:	5f20                	lw	s0,120(a4)
    52e0:	475f 554e 5f43      	0x5f43554e475f
    52e6:	5250                	lw	a2,36(a2)
    52e8:	5245                	li	tp,-15
    52ea:	5145                	li	sp,-15
    52ec:	6d28                	flw	fa0,88(a0)
    52ee:	2c61                	jal	5586 <.LASF462+0x33>
    52f0:	6d20                	flw	fs0,88(a0)
    52f2:	2969                	jal	578c <.LASF16+0x5>
	...

000052f5 <.LASF458>:
    52f5:	505f 5453 5f4c      	0x5f4c5453505f
    52fb:	5250                	lw	a2,36(a2)
    52fd:	4741                	li	a4,16
    52ff:	414d                	li	sp,19
    5301:	535f 4d49 5f44      	0x5f444d49535f
    5307:	4e414353          	0x4e414353
    530b:	5028                	lw	a0,96(s0)
    530d:	4d52                	lw	s10,20(sp)
    530f:	2029                	jal	5319 <.LASF458+0x24>
    5311:	505f 5453 5f4c      	0x5f4c5453505f
    5317:	5250                	lw	a2,36(a2)
    5319:	4741                	li	a4,16
    531b:	414d                	li	sp,19
    531d:	6f28                	flw	fa0,88(a4)
    531f:	706d                	c.lui	zero,0xffffb
    5321:	7320                	flw	fs0,96(a4)
    5323:	6d69                	lui	s10,0x1a
    5325:	2064                	fld	fs1,192(s0)
    5327:	6572                	flw	fa0,28(sp)
    5329:	7564                	flw	fs1,108(a0)
    532b:	6f697463          	bgeu	s2,s6,5a13 <.LASF423+0x7>
    532f:	286e                	fld	fa6,216(sp)
    5331:	6e69                	lui	t3,0x1a
    5333:	6e616373          	csrrsi	t1,0x6e6,2
    5337:	202c                	fld	fa1,64(s0)
    5339:	5250                	lw	a2,36(a2)
    533b:	294d                	jal	57ed <.LASF567+0x6>
    533d:	0029                	c.nop	10

0000533f <.LASF565>:
    533f:	475f 494c 4342      	0x4342494c475f
    5345:	5858                	lw	a4,52(s0)
    5347:	485f 5641 5f45      	0x5f455641485f
    534d:	4e55                	li	t3,21
    534f:	5349                	li	t1,-14
    5351:	4454                	lw	a3,12(s0)
    5353:	485f 3120       	0x5f003120485f

00005358 <.LASF499>:
    5358:	475f 494c 4342      	0x4342494c475f
    535e:	5858                	lw	a4,52(s0)
    5360:	485f 5641 5f45      	0x5f455641485f
    5366:	4e45                	li	t3,17
    5368:	5254534f          	fnmadd.d	ft6,fs0,ft5,fa0,unknown
    536c:	3120                	fld	fs0,96(a0)
	...

0000536f <.LASF688>:
    536f:	555f 4e49 3654      	0x36544e49555f
    5375:	5f34                	lw	a3,120(a4)
    5377:	5f54                	lw	a3,60(a4)
    5379:	4544                	lw	s1,12(a0)
    537b:	52414c43          	fmadd.d	fs8,ft2,ft4,fa0,rmm
    537f:	4445                	li	s0,17
    5381:	0020                	addi	s0,sp,8

00005383 <.LASF74>:
    5383:	5f5f 7063 5f70      	0x5f7070635f5f
    5389:	6568                	flw	fa0,76(a0)
    538b:	5f78                	lw	a4,124(a4)
    538d:	6c66                	flw	fs8,88(sp)
    538f:	2074616f          	jal	sp,4bd95 <.LASF439+0x45d26>
    5393:	3032                	fld	ft0,296(sp)
    5395:	3631                	jal	4ea1 <.LASF403+0x1>
    5397:	3330                	fld	fa2,96(a4)
    5399:	004c                	addi	a1,sp,4

0000539b <.LASF558>:
    539b:	475f 494c 4342      	0x4342494c475f
    53a1:	5858                	lw	a4,52(s0)
    53a3:	485f 5641 5f45      	0x5f455641485f
    53a9:	5f535953          	0x5f535953
    53ad:	54415453          	0x54415453
    53b1:	485f 3120       	0x5f003120485f

000053b6 <.LASF345>:
    53b6:	5f5f 4953 455a      	0x455a49535f5f
    53bc:	575f464f          	fnmadd.q	fa2,ft10,fs5,fa0,rmm
    53c0:	4e49                	li	t3,18
    53c2:	5f54                	lw	a3,60(a4)
    53c4:	5f54                	lw	a3,60(a4)
    53c6:	205f 0034       	0x6f700034205f

000053ca <.LASF843>:
    53ca:	6f70                	flw	fa2,92(a4)
    53cc:	796c                	flw	fa1,116(a0)
    53ce:	6f6d                	lui	t5,0x1b
    53d0:	7072                	flw	ft0,60(sp)
    53d2:	6968                	flw	fa0,84(a0)
    53d4:	          	beq	t5,s5,59b4 <.LASF465+0x39>

000053d6 <.LASF168>:
    53d6:	5f5f 4e49 5f54      	0x5f544e495f5f
    53dc:	454c                	lw	a1,12(a0)
    53de:	5341                	li	t1,-16
    53e0:	3354                	fld	fa3,160(a4)
    53e2:	5f32                	lw	t5,44(sp)
    53e4:	414d                	li	sp,19
    53e6:	5f58                	lw	a4,60(a4)
    53e8:	205f 7830 6637      	0x66377830205f
    53ee:	6666                	flw	fa2,88(sp)
    53f0:	6666                	flw	fa2,88(sp)
    53f2:	6666                	flw	fa2,88(sp)
    53f4:	004c                	addi	a1,sp,4

000053f6 <.LASF394>:
    53f6:	475f 494c 4342      	0x4342494c475f
    53fc:	5858                	lw	a4,52(s0)
    53fe:	425f 4745 4e49      	0x4e494745425f
    5404:	4e5f 4d41 5345      	0x53454d414e5f
    540a:	4150                	lw	a2,4(a0)
    540c:	435f4543          	fmadd.d	fa0,ft10,fs5,fs0,rmm
    5410:	5858                	lw	a4,52(s0)
    5412:	3131                	jal	501e <.LASF435+0x10>
    5414:	6e20                	flw	fs0,88(a2)
    5416:	6d61                	lui	s10,0x18
    5418:	7365                	lui	t1,0xffff9
    541a:	6170                	flw	fa2,68(a0)
    541c:	5f206563          	bltu	zero,s2,5a06 <.LASF465+0x8b>
    5420:	635f 7878 3131      	0x31317878635f
    5426:	7b20                	flw	fs0,112(a4)
	...

00005429 <.LASF777>:
    5429:	5f5f 6e69 3674      	0x36746e695f5f
    542f:	5f34                	lw	a3,120(a4)
    5431:	0074                	addi	a3,sp,12

00005433 <.LASF605>:
    5433:	475f 494c 4342      	0x4342494c475f
    5439:	5858                	lw	a4,52(s0)
    543b:	555f 4553 4c5f      	0x4c5f4553555f
    5441:	5f474e4f          	fnmadd.q	ft8,fa4,fs4,fa1,rmm
    5445:	4f4c                	lw	a1,28(a4)
    5447:	474e                	lw	a4,208(sp)
    5449:	3120                	fld	fs0,96(a0)
	...

0000544c <.LASF655>:
    544c:	6e676973          	csrrsi	s2,0x6e6,14
    5450:	6465                	lui	s0,0x19
    5452:	2b20                	fld	fs0,80(a4)
    5454:	0030                	addi	a2,sp,8

00005456 <.LASF182>:
    5456:	5f5f 4e49 5f54      	0x5f544e495f5f
    545c:	4146                	lw	sp,80(sp)
    545e:	5f385453          	0x5f385453
    5462:	414d                	li	sp,19
    5464:	5f58                	lw	a4,60(a4)
    5466:	205f 7830 6637      	0x66377830205f
    546c:	6666                	flw	fa2,88(sp)
    546e:	6666                	flw	fa2,88(sp)
    5470:	6666                	flw	fa2,88(sp)
	...

00005473 <.LASF261>:
    5473:	5f5f 4c46 3354      	0x33544c465f5f
    5479:	5f32                	lw	t5,44(sp)
    547b:	4148                	lw	a0,4(a0)
    547d:	45445f53          	0x45445f53
    5481:	4f4e                	lw	t5,208(sp)
    5483:	4d52                	lw	s10,20(sp)
    5485:	5f5f 3120       	0x730031205f5f

0000548a <.LASF861>:
    548a:	72657473          	csrrci	s0,0x726,10
    548e:	696d                	lui	s2,0x1b
    5490:	616e                	flw	ft2,216(sp)
    5492:	6574                	flw	fa3,76(a0)
	...

00005495 <.LASF306>:
    5495:	5f5f 4c46 3354      	0x33544c465f5f
    549b:	5832                	lw	a6,44(sp)
    549d:	485f 5341 445f      	0x445f5341485f
    54a3:	4e45                	li	t3,17
    54a5:	5f4d524f          	fnmadd.q	ft4,fs10,fs4,fa1,unknown
    54a9:	205f 0031       	0x5f5f0031205f

000054ad <.LASF612>:
    54ad:	5f5f 5453 4344      	0x434454535f5f
    54b3:	435f 4e4f 5453      	0x54534e4f435f
    54b9:	4e41                	li	t3,16
    54bb:	5f54                	lw	a3,60(a4)
    54bd:	414d                	li	sp,19
    54bf:	534f5243          	fmadd.d	ft4,ft10,fs4,fa0,unknown
	...

000054c4 <.LASF187>:
    54c4:	5f5f 4e49 5f54      	0x5f544e495f5f
    54ca:	4146                	lw	sp,80(sp)
    54cc:	32335453          	0x32335453
    54d0:	575f 4449 4854      	0x48544449575f
    54d6:	5f5f 3320 0032      	0x3233205f5f

000054dc <.LASF611>:
    54dc:	5f5f 5453 4344      	0x434454535f5f
    54e2:	4c5f 4d49 5449      	0x54494d494c5f
    54e8:	4d5f 4341 4f52      	0x4f5243414d5f
    54ee:	          	0x5f002053

000054f1 <.LASF599>:
    54f1:	475f 494c 4342      	0x4342494c475f
    54f7:	5858                	lw	a4,52(s0)
    54f9:	555f 4553 435f      	0x435f4553555f
    54ff:	3939                	jal	511d <.LASF491+0x3>
    5501:	435f 5954 4550      	0x45505954435f
    5507:	545f 3152 3120      	0x31203152545f
	...

0000550e <.LASF552>:
    550e:	475f 494c 4342      	0x4342494c475f
    5514:	5858                	lw	a4,52(s0)
    5516:	485f 5641 5f45      	0x5f455641485f
    551c:	45525453          	0x45525453
    5520:	5252                	lw	tp,52(sp)
    5522:	525f524f          	fnmadd.d	ft4,ft10,ft5,fa0,unknown
    5526:	3120                	fld	fs0,96(a0)
	...

00005529 <.LASF880>:
    5529:	5a5f 374e 7073      	0x7073374e5a5f
    552f:	6f72                	flw	ft10,28(sp)
    5531:	44745f63          	bge	s0,t2,598f <.LASF465+0x14>
    5535:	4532                	lw	a0,12(sp)
    5537:	0076                	c.slli	zero,0x1d

00005539 <.LASF22>:
    5539:	5f5f 4953 455a      	0x455a49535f5f
    553f:	4c5f464f          	0x4c5f464f
    5543:	5f474e4f          	fnmadd.q	ft8,fa4,fs4,fa1,rmm
    5547:	4f44                	lw	s1,28(a4)
    5549:	4255                	li	tp,21
    554b:	454c                	lw	a1,12(a0)
    554d:	5f5f 3120 0036      	0x3631205f5f

00005553 <.LASF462>:
    5553:	505f 5453 5f4c      	0x5f4c5453505f
    5559:	31505043          	fmadd.s	ft0,ft0,fs5,ft6,unknown
    555d:	5f34                	lw	a3,120(a4)
    555f:	5232                	lw	tp,44(sp)
    5561:	4e41                	li	t3,16
    5563:	4d5f4547          	0x4d5f4547
    5567:	5349                	li	t1,-14
    5569:	414d                	li	sp,19
    556b:	4354                	lw	a3,4(a4)
    556d:	5f48                	lw	a0,60(a4)
    556f:	5145                	li	sp,-15
    5571:	4155                	li	sp,21
    5573:	5f4c                	lw	a1,60(a4)
    5575:	5250                	lw	a2,36(a2)
    5577:	5345                	li	t1,-15
    5579:	4e45                	li	t3,17
    557b:	2054                	fld	fa3,128(s0)
    557d:	5f28                	lw	a0,120(a4)
    557f:	534d                	li	t1,-13
    5581:	45565f43          	0x45565f43
    5585:	2052                	fld	ft0,272(sp)
    5587:	3d3e                	fld	fs10,488(sp)
    5589:	3120                	fld	fs0,96(a0)
    558b:	3039                	jal	4d99 <.LASF413+0x2>
    558d:	2030                	fld	fa2,64(s0)
    558f:	7c7c                	flw	fa5,124(s0)
    5591:	5f20                	lw	s0,120(a4)
    5593:	635f 6c70 7375      	0x73756c70635f
    5599:	6c70                	flw	fa2,92(s0)
    559b:	7375                	lui	t1,0xffffd
    559d:	3e20                	fld	fs0,120(a2)
    559f:	203d                	jal	55cd <.LASF462+0x7a>
    55a1:	3032                	fld	ft0,296(sp)
    55a3:	3331                	jal	52af <.LASF108+0x1c>
    55a5:	3030                	fld	fa2,96(s0)
    55a7:	204c                	fld	fa1,128(s0)
    55a9:	7c7c                	flw	fa5,124(s0)
    55ab:	5f20                	lw	s0,120(a4)
    55ad:	635f 7070 6c5f      	0x6c5f7070635f
    55b3:	6269                	lui	tp,0x1a
    55b5:	725f 626f 7375      	0x7375626f725f
    55bb:	5f74                	lw	a3,124(a4)
    55bd:	6f6e                	flw	ft10,216(sp)
    55bf:	6d6e                	flw	fs10,216(sp)
    55c1:	6669646f          	jal	s0,9bc27 <.LASF439+0x95bb8>
    55c5:	6979                	lui	s2,0x1e
    55c7:	676e                	flw	fa4,216(sp)
    55c9:	735f 7165 6f5f      	0x6f5f7165735f
    55cf:	7370                	flw	fa2,100(a4)
    55d1:	3d20                	fld	fs0,120(a0)
    55d3:	203d                	jal	5601 <.LASF286+0xc>
    55d5:	3032                	fld	ft0,296(sp)
    55d7:	3331                	jal	52e3 <.LASF623+0x1b>
    55d9:	3430                	fld	fa2,104(s0)
    55db:	0029                	c.nop	10

000055dd <.LASF667>:
    55dd:	5f5f 4e49 3354      	0x33544e495f5f
    55e3:	2032                	fld	ft0,264(sp)
    55e5:	6c22                	flw	fs8,8(sp)
    55e7:	0022                	c.slli	zero,0x8

000055e9 <.LASF891>:
    55e9:	7865                	lui	a6,0xffff9
    55eb:	6365                	lui	t1,0x19
    55ed:	625f 7361 5f65      	0x5f657361625f
    55f3:	0074                	addi	a3,sp,12

000055f5 <.LASF286>:
    55f5:	5f5f 4c46 3154      	0x31544c465f5f
    55fb:	3832                	fld	fa6,296(sp)
    55fd:	4d5f 5841 5f5f      	0x5f5f58414d5f
    5603:	3120                	fld	fs0,96(a0)
    5605:	312e                	fld	ft2,232(sp)
    5607:	3938                	fld	fa4,112(a0)
    5609:	34313337          	lui	t1,0x34313
    560d:	3539                	jal	541b <.LASF394+0x25>
    560f:	32373533          	0x32373533
    5613:	36373133          	0x36373133
    5617:	3035                	jal	4e43 <.LASF305+0x1d>
    5619:	3538                	fld	fa4,104(a0)
    561b:	33393537          	lui	a0,0x33393
    561f:	3632                	fld	fa2,296(sp)
    5621:	3236                	fld	ft4,360(sp)
    5623:	3038                	fld	fa4,96(s0)
    5625:	3730                	fld	fa2,104(a4)
    5627:	3230                	fld	fa2,96(a2)
    5629:	2b65                	jal	5be1 <.LASF235+0x16>
    562b:	3934                	fld	fa3,112(a0)
    562d:	31463233          	0x31463233
    5631:	3832                	fld	fa6,296(sp)
	...

00005634 <.LASF436>:
    5634:	475f 494c 4342      	0x4342494c475f
    563a:	5858                	lw	a4,52(s0)
    563c:	485f 5641 5f45      	0x5f455641485f
    5642:	5542                	lw	a0,48(sp)
    5644:	4c49                	li	s8,18
    5646:	4954                	lw	a3,20(a0)
    5648:	5f4e                	lw	t5,240(sp)
    564a:	414c                	lw	a1,4(a0)
    564c:	4e55                	li	t3,21
    564e:	4544                	lw	s1,12(a0)
    5650:	2052                	fld	ft0,272(sp)
    5652:	0031                	c.nop	12

00005654 <.LASF86>:
    5654:	5f5f 7063 5f70      	0x5f7070635f5f
    565a:	6564                	flw	fs1,76(a0)
    565c:	656c                	flw	fa1,76(a0)
    565e:	69746167          	0x69746167
    5662:	676e                	flw	fa4,216(sp)
    5664:	635f 6e6f 7473      	0x74736e6f635f
    566a:	7572                	flw	fa0,60(sp)
    566c:	726f7463          	bgeu	t5,t1,5d94 <.LASF566+0x16>
    5670:	30322073          	csrs	mideleg,tp
    5674:	3630                	fld	fa2,104(a2)
    5676:	3430                	fld	fa2,104(s0)
    5678:	004c                	addi	a1,sp,4

0000567a <.LASF372>:
    567a:	475f 494c 4342      	0x4342494c475f
    5680:	5858                	lw	a4,52(s0)
    5682:	3731                	jal	558e <.LASF462+0x3b>
    5684:	445f 5045 4552      	0x45525045445f
    568a:	45544143          	0x45544143
    568e:	2044                	fld	fs1,128(s0)
    5690:	5f5f5b5b          	0x5f5f5b5b
    5694:	6564                	flw	fs1,76(a0)
    5696:	7270                	flw	fa2,100(a2)
    5698:	6365                	lui	t1,0x19
    569a:	7461                	lui	s0,0xffff8
    569c:	6465                	lui	s0,0x19
    569e:	5f5f 5d5d       	0x5f005d5d5f5f

000056a3 <.LASF32>:
    56a3:	5f5f 4e47 4755      	0x47554e475f5f
    56a9:	5f5f 3120 0030      	0x3031205f5f

000056af <.LASF593>:
    56af:	475f 494c 4342      	0x4342494c475f
    56b5:	5858                	lw	a4,52(s0)
    56b7:	4d5f 4e41 4c47      	0x4c474e414d5f
    56bd:	5f45                	li	t5,-15
    56bf:	455a4953          	0x455a4953
    56c3:	545f 6a20       	0x5f006a20545f

000056c8 <.LASF271>:
    56c8:	5f5f 4c46 3654      	0x36544c465f5f
    56ce:	5f34                	lw	a3,120(a4)
    56d0:	414d                	li	sp,19
    56d2:	5f58                	lw	a4,60(a4)
    56d4:	205f 2e31 3937      	0x39372e31205f
    56da:	33393637          	lui	a2,0x33393
    56de:	3331                	jal	53ea <.LASF168+0x14>
    56e0:	3834                	fld	fa3,112(s0)
    56e2:	3236                	fld	ft4,360(sp)
    56e4:	37353133          	0x37353133
    56e8:	3830                	fld	fa2,112(s0)
    56ea:	3431                	jal	50f6 <.LASF790+0x2>
    56ec:	3235                	jal	5018 <.LASF435+0xa>
    56ee:	33323437          	lui	s0,0x33323
    56f2:	37313337          	lui	t1,0x37313
    56f6:	3430                	fld	fa2,104(s0)
    56f8:	65373533          	0x65373533
    56fc:	3830332b          	0x3830332b
    5700:	3646                	fld	fa2,112(sp)
    5702:	0034                	addi	a3,sp,8

00005704 <.LASF291>:
    5704:	5f5f 4c46 3154      	0x31544c465f5f
    570a:	3832                	fld	fa6,296(sp)
    570c:	485f 5341 445f      	0x445f5341485f
    5712:	4e45                	li	t3,17
    5714:	5f4d524f          	fnmadd.q	ft4,fs10,fs4,fa1,unknown
    5718:	205f 0031       	0x5f5f0031205f

0000571c <.LASF87>:
    571c:	5f5f 7063 5f70      	0x5f7070635f5f
    5722:	736e                	flw	ft6,248(sp)
    5724:	6d64                	flw	fs1,92(a0)
    5726:	2069                	jal	57b0 <.LASF756+0xa>
    5728:	3032                	fld	ft0,296(sp)
    572a:	3830                	fld	fa2,112(s0)
    572c:	3930                	fld	fa2,112(a0)
    572e:	004c                	addi	a1,sp,4

00005730 <.LASF710>:
    5730:	4955                	li	s2,21
    5732:	544e                	lw	s0,240(sp)
    5734:	4c5f 4145 5453      	0x545341454c5f
    573a:	5f38                	lw	a4,120(a4)
    573c:	414d                	li	sp,19
    573e:	2058                	fld	fa4,128(s0)
    5740:	5f28                	lw	a0,120(a4)
    5742:	555f 4e49 5f54      	0x5f544e49555f
    5748:	454c                	lw	a1,12(a0)
    574a:	5341                	li	t1,-16
    574c:	3854                	fld	fa3,176(s0)
    574e:	4d5f 5841 5f5f      	0x5f5f58414d5f
    5754:	0029                	c.nop	10

00005756 <.LASF889>:
    5756:	74657373          	csrrci	t1,0x746,10
    575a:	6d5f 646f 0065      	0x65646f6d5f

00005760 <.LASF678>:
    5760:	495f 544e 5f38      	0x5f38544e495f
    5766:	5f54                	lw	a3,60(a4)
    5768:	4544                	lw	s1,12(a0)
    576a:	52414c43          	fmadd.d	fs8,ft2,ft4,fa0,rmm
    576e:	4445                	li	s0,17
    5770:	0020                	addi	s0,sp,8

00005772 <.LASF489>:
    5772:	475f 494c 4342      	0x4342494c475f
    5778:	5858                	lw	a4,52(s0)
    577a:	485f 5641 5f45      	0x5f455641485f
    5780:	46534f43          	fmadd.q	ft10,ft6,ft5,fs0,rmm
    5784:	3120                	fld	fs0,96(a0)
	...

00005787 <.LASF16>:
    5787:	5f5f 4953 455a      	0x455a49535f5f
    578d:	495f464f          	fnmadd.s	fa2,ft10,fs5,fs1,rmm
    5791:	544e                	lw	s0,240(sp)
    5793:	5f5f 3420       	0x6c0034205f5f

00005798 <.LASF778>:
    5798:	6f6c                	flw	fa1,92(a4)
    579a:	676e                	flw	fa4,216(sp)
    579c:	6c20                	flw	fs0,88(s0)
    579e:	20676e6f          	jal	t3,7b9a4 <.LASF439+0x75935>
    57a2:	6e69                	lui	t3,0x1a
    57a4:	0074                	addi	a3,sp,12

000057a6 <.LASF756>:
    57a6:	4955                	li	s2,21
    57a8:	544e                	lw	s0,240(sp)
    57aa:	3631                	jal	52b6 <.LASF693+0x3>
    57ac:	435f 7828 2029      	0x20297828435f
    57b2:	5f5f 4955 544e      	0x544e49555f5f
    57b8:	3631                	jal	52c4 <.LASF693+0x11>
    57ba:	435f 7828 0029      	0x297828435f

000057c0 <.LASF90>:
    57c0:	5f5f 7063 5f70      	0x5f7070635f5f
    57c6:	6c61                	lui	s8,0x18
    57c8:	6169                	addi	sp,sp,208
    57ca:	65745f73          	csrrwi	t5,0x657,8
    57ce:	706d                	c.lui	zero,0xffffb
    57d0:	616c                	flw	fa1,68(a0)
    57d2:	6574                	flw	fa3,76(a0)
    57d4:	30322073          	csrs	mideleg,tp
    57d8:	3730                	fld	fa2,104(a4)
    57da:	3430                	fld	fa2,104(s0)
    57dc:	004c                	addi	a1,sp,4

000057de <.LASF799>:
    57de:	6975                	lui	s2,0x1d
    57e0:	746e                	flw	fs0,248(sp)
    57e2:	745f3233          	0x745f3233
	...

000057e7 <.LASF567>:
    57e7:	475f 494c 4342      	0x4342494c475f
    57ed:	5858                	lw	a4,52(s0)
    57ef:	485f 5641 5f45      	0x5f455641485f
    57f5:	5455                	li	s0,-11
    57f7:	4d49                	li	s10,18
    57f9:	5f45                	li	t5,-15
    57fb:	2048                	fld	fa0,128(s0)
    57fd:	0031                	c.nop	12

000057ff <.LASF646>:
    57ff:	535f 5359 5f5f      	0x5f5f5359535f
    5805:	4e49                	li	t3,18
    5807:	5354                	lw	a3,36(a4)
    5809:	5055                	c.li	zero,-11
    580b:	485f 0020       	0x5f5f0020485f

0000580f <.LASF229>:
    580f:	5f5f 4244 5f4c      	0x5f4c42445f5f
    5815:	4544                	lw	s1,12(a0)
    5817:	4f4e                	lw	t5,208(sp)
    5819:	4d52                	lw	s10,20(sp)
    581b:	4d5f 4e49 5f5f      	0x5f5f4e494d5f
    5821:	6420                	flw	fs0,72(s0)
    5823:	6c62756f          	jal	a0,2cee9 <.LASF439+0x26e7a>
    5827:	2865                	jal	58df <.LASF243+0x23>
    5829:	2e34                	fld	fa3,88(a2)
    582b:	3439                	jal	5239 <.LASF68+0xd>
    582d:	3630                	fld	fa2,104(a2)
    582f:	3635                	jal	535b <.LASF499+0x3>
    5831:	3534                	fld	fa3,104(a0)
    5833:	3438                	fld	fa4,104(s0)
    5835:	3231                	jal	5141 <.LASF155+0xf>
    5837:	3634                	fld	fa3,104(a2)
    5839:	3435                	jal	5265 <.LASF472+0x20>
    583b:	3134                	fld	fa3,96(a0)
    583d:	36353637          	lui	a2,0x36353
    5841:	3738                	fld	fa4,104(a4)
    5843:	3239                	jal	5151 <.LASF350+0xa>
    5845:	3638                	fld	fa4,104(a2)
    5847:	3238                	fld	fa4,96(a2)
    5849:	3132                	fld	ft2,296(sp)
    584b:	65323733          	0x65323733
    584f:	332d                	jal	5579 <.LASF462+0x26>
    5851:	3432                	fld	fs0,296(sp)
    5853:	294c                	fld	fa1,144(a0)
	...

00005856 <.LASF518>:
    5856:	475f 494c 4342      	0x4342494c475f
    585c:	5858                	lw	a4,52(s0)
    585e:	485f 5641 5f45      	0x5f455641485f
    5864:	49544547          	fmsub.s	fa0,fs0,fs5,fs1,rmm
    5868:	4950                	lw	a2,20(a0)
    586a:	464e                	lw	a2,208(sp)
    586c:	0031204f          	fnmadd.s	ft0,ft2,ft3,ft0,rdn

00005870 <.LASF644>:
    5870:	5f5f 695f 746e      	0x746e695f5f5f
    5876:	6c5f 6165 7473      	0x747361656c5f
    587c:	3436                	fld	fs0,360(sp)
    587e:	745f 645f 6665      	0x6665645f745f
    5884:	6e69                	lui	t3,0x1a
    5886:	6465                	lui	s0,0x19
    5888:	3120                	fld	fs0,96(a0)
	...

0000588b <.LASF739>:
    588b:	4e49                	li	t3,18
    588d:	5f54                	lw	a3,60(a4)
    588f:	4146                	lw	sp,80(sp)
    5891:	34365453          	0x34365453
    5895:	4d5f 5841 2820      	0x282058414d5f
    589b:	5f5f 4e49 5f54      	0x5f544e495f5f
    58a1:	4146                	lw	sp,80(sp)
    58a3:	34365453          	0x34365453
    58a7:	4d5f 5841 5f5f      	0x5f5f58414d5f
    58ad:	0029                	c.nop	10

000058af <.LASF872>:
    58af:	6f727073          	csrci	0x6f7,4
    58b3:	61745f63          	bge	s0,s7,5ed1 <.LASF853+0x1>
    58b7:	6772                	flw	fa4,28(sp)
    58b9:	7465                	lui	s0,0xffff9
	...

000058bc <.LASF243>:
    58bc:	5f5f 444c 4c42      	0x4c42444c5f5f
    58c2:	4d5f 4e49 5f5f      	0x5f5f4e494d5f
    58c8:	3320                	fld	fs0,96(a4)
    58ca:	332e                	fld	ft6,232(sp)
    58cc:	3236                	fld	ft4,360(sp)
    58ce:	3031                	jal	50da <.LASF604+0x12>
    58d0:	33343133          	0x33343133
    58d4:	3131                	jal	54e0 <.LASF611+0x4>
    58d6:	3032                	fld	ft0,296(sp)
    58d8:	3339                	jal	55e6 <.LASF667+0x9>
    58da:	3035                	jal	5106 <.LASF760+0x6>
    58dc:	3236                	fld	ft4,360(sp)
    58de:	3236                	fld	ft4,360(sp)
    58e0:	3736                	fld	fa4,360(sp)
    58e2:	37313837          	lui	a6,0x37313
    58e6:	37313233          	0x37313233
    58ea:	3235                	jal	5216 <.LASF582+0xd>
    58ec:	3036                	fld	ft0,360(sp)
    58ee:	2d65                	jal	5fa6 <.LASF736+0x5>
    58f0:	3934                	fld	fa3,112(a0)
    58f2:	004c3233          	sltu	tp,s8,tp

000058f6 <.LASF817>:
    58f6:	6975                	lui	s2,0x1d
    58f8:	746e                	flw	fs0,248(sp)
    58fa:	665f 7361 3174      	0x31747361665f
    5900:	5f36                	lw	t5,108(sp)
    5902:	0074                	addi	a3,sp,12

00005904 <.LASF63>:
    5904:	5f5f 4955 544e      	0x544e49555f5f
    590a:	465f 5341 3154      	0x31545341465f
    5910:	5f36                	lw	t5,108(sp)
    5912:	5954                	lw	a3,52(a0)
    5914:	4550                	lw	a2,12(a0)
    5916:	5f5f 7520 736e      	0x736e75205f5f
    591c:	6769                	lui	a4,0x1a
    591e:	656e                	flw	fa0,216(sp)
    5920:	2064                	fld	fs1,192(s0)
    5922:	6e69                	lui	t3,0x1a
    5924:	0074                	addi	a3,sp,12

00005926 <.LASF584>:
    5926:	475f 494c 4342      	0x4342494c475f
    592c:	5858                	lw	a4,52(s0)
    592e:	3131                	jal	553a <.LASF22+0x1>
    5930:	555f 4553 435f      	0x435f4553555f
    5936:	3939                	jal	5554 <.LASF462+0x1>
    5938:	535f 4454 4f49      	0x4f494454535f
    593e:	3120                	fld	fs0,96(a0)
	...

00005941 <.LASF102>:
    5941:	5f5f 7063 5f70      	0x5f7070635f5f
    5947:	656e                	flw	fa0,216(sp)
    5949:	64657473          	csrrci	s0,0x646,10
    594d:	6e5f 6d61 7365      	0x73656d616e5f
    5953:	6170                	flw	fa2,68(a0)
    5955:	645f6563          	bltu	t5,t0,5f9f <.LASF526+0x17>
    5959:	6665                	lui	a2,0x19
    595b:	6e69                	lui	t3,0x1a
    595d:	7469                	lui	s0,0xffffa
    595f:	6f69                	lui	t5,0x1a
    5961:	736e                	flw	ft6,248(sp)
    5963:	3220                	fld	fs0,96(a2)
    5965:	3130                	fld	fa2,96(a0)
    5967:	3134                	fld	fa3,96(a0)
    5969:	4c31                	li	s8,12
	...

0000596c <.LASF123>:
    596c:	5f5f 5845 4543      	0x454358455f5f
    5972:	5450                	lw	a2,44(s0)
    5974:	4f49                	li	t5,18
    5976:	534e                	lw	t1,240(sp)
    5978:	3120                	fld	fs0,96(a0)
	...

0000597b <.LASF465>:
    597b:	505f 5453 5f4c      	0x5f4c5453505f
    5981:	31505043          	fmadd.s	ft0,ft0,fs5,ft6,unknown
    5985:	5f34                	lw	a3,120(a4)
    5987:	4156                	lw	sp,84(sp)
    5989:	4952                	lw	s2,20(sp)
    598b:	4241                	li	tp,16
    598d:	454c                	lw	a1,12(a0)
    598f:	545f 4d45 4c50      	0x4c504d45545f
    5995:	5441                	li	s0,-16
    5997:	5345                	li	t1,-15
    5999:	505f 4552 4553      	0x45534552505f
    599f:	544e                	lw	s0,240(sp)
    59a1:	2820                	fld	fs0,80(s0)
    59a3:	5f21                	li	t5,-24
    59a5:	495f 544e 4c45      	0x4c45544e495f
    59ab:	435f 4d4f 4950      	0x49504d4f435f
    59b1:	454c                	lw	a1,12(a0)
    59b3:	2052                	fld	ft0,272(sp)
    59b5:	7c7c                	flw	fa5,124(s0)
    59b7:	5f20                	lw	s0,120(a4)
    59b9:	495f 544e 4c45      	0x4c45544e495f
    59bf:	435f 4d4f 4950      	0x49504d4f435f
    59c5:	454c                	lw	a1,12(a0)
    59c7:	2052                	fld	ft0,272(sp)
    59c9:	3d3e                	fld	fs10,488(sp)
    59cb:	3120                	fld	fs0,96(a0)
    59cd:	29303037          	lui	zero,0x29303
    59d1:	2620                	fld	fs0,72(a2)
    59d3:	2026                	fld	ft0,72(sp)
    59d5:	5f28                	lw	a0,120(a4)
    59d7:	534d                	li	t1,-13
    59d9:	55465f43          	0x55465f43
    59dd:	4c4c                	lw	a1,28(s0)
    59df:	565f 5245 3e20      	0x3e205245565f
    59e5:	203d                	jal	5a13 <.LASF423+0x7>
    59e7:	3931                	jal	5603 <.LASF286+0xe>
    59e9:	3030                	fld	fa2,96(s0)
    59eb:	3332                	fld	ft6,296(sp)
    59ed:	3139                	jal	55fb <.LASF286+0x6>
    59ef:	2038                	fld	fa4,64(s0)
    59f1:	7c7c                	flw	fa5,124(s0)
    59f3:	5f20                	lw	s0,120(a4)
    59f5:	635f 6c70 7375      	0x73756c70635f
    59fb:	6c70                	flw	fa2,92(s0)
    59fd:	7375                	lui	t1,0xffffd
    59ff:	3e20                	fld	fs0,120(a2)
    5a01:	203d                	jal	5a2f <.LASF145>
    5a03:	3032                	fld	ft0,296(sp)
    5a05:	3431                	jal	5411 <.LASF394+0x1b>
    5a07:	3230                	fld	fa2,96(a2)
    5a09:	294c                	fld	fa1,144(a0)
	...

00005a0c <.LASF423>:
    5a0c:	475f 494c 4342      	0x4342494c475f
    5a12:	5858                	lw	a4,52(s0)
    5a14:	555f 4553 575f      	0x575f4553555f
    5a1a:	4145                	li	sp,17
    5a1c:	45525f4b          	0x45525f4b
    5a20:	2046                	fld	ft0,80(sp)
    5a22:	5f5f 5847 5f58      	0x5f5858475f5f
    5a28:	4b414557          	0x4b414557
    5a2c:	5f5f        	0x535f5f005f5f

00005a2f <.LASF145>:
    5a2f:	5f5f 4953 455a      	0x455a49535f5f
    5a35:	575f 4449 4854      	0x48544449575f
    5a3b:	5f5f 3320 0032      	0x3233205f5f

00005a41 <.LASF130>:
    5a41:	5f5f 4f4c 474e      	0x474e4f4c5f5f
    5a47:	4c5f 4e4f 5f47      	0x5f474e4f4c5f
    5a4d:	414d                	li	sp,19
    5a4f:	5f58                	lw	a4,60(a4)
    5a51:	205f 7830 6637      	0x66377830205f
    5a57:	6666                	flw	fa2,88(sp)
    5a59:	6666                	flw	fa2,88(sp)
    5a5b:	6666                	flw	fa2,88(sp)
    5a5d:	6666                	flw	fa2,88(sp)
    5a5f:	6666                	flw	fa2,88(sp)
    5a61:	6666                	flw	fa2,88(sp)
    5a63:	6666                	flw	fa2,88(sp)
    5a65:	4c4c                	lw	a1,28(s0)
	...

00005a68 <.LASF785>:
    5a68:	5f5f 6e69 5f74      	0x5f746e695f5f
    5a6e:	656c                	flw	fa1,76(a0)
    5a70:	7361                	lui	t1,0xffff8
    5a72:	3374                	fld	fa3,224(a4)
    5a74:	5f32                	lw	t5,44(sp)
    5a76:	0074                	addi	a3,sp,12

00005a78 <.LASF134>:
    5a78:	5f5f 4957 544e      	0x544e49575f5f
    5a7e:	4d5f 4e49 5f5f      	0x5f5f4e494d5f
    5a84:	3020                	fld	fs0,96(s0)
    5a86:	0055                	c.nop	21

00005a88 <.LASF265>:
    5a88:	5f5f 4c46 3654      	0x36544c465f5f
    5a8e:	5f34                	lw	a3,120(a4)
    5a90:	4944                	lw	s1,20(a0)
    5a92:	205f5f47          	fmsub.s	ft10,ft10,ft5,ft4,unknown
    5a96:	3531                	jal	58a2 <.LASF739+0x17>
	...

00005a99 <.LASF479>:
    5a99:	505f 5453 5f4c      	0x5f4c5453505f
    5a9f:	5250                	lw	a2,36(a2)
    5aa1:	4741                	li	a4,16
    5aa3:	414d                	li	sp,19
    5aa5:	4d5f 5345 4153      	0x415353454d5f
    5aab:	505f4547          	fmsub.s	fa0,ft10,ft5,fa0,rmm
    5aaf:	43494c4f          	fnmadd.d	fs8,fs2,fs4,fs0,rmm
    5ab3:	4549                	li	a0,18
    5ab5:	29782853          	0x29782853
    5ab9:	0020                	addi	s0,sp,8

00005abb <.LASF212>:
    5abb:	5f5f 4c46 5f54      	0x5f544c465f5f
    5ac1:	494d                	li	s2,19
    5ac3:	5f4e                	lw	t5,240(sp)
    5ac5:	205f 2e31 3731      	0x37312e31205f
    5acb:	3435                	jal	54f7 <.LASF599+0x6>
    5acd:	3439                	jal	54db <.LASF187+0x17>
    5acf:	38303533          	0x38303533
    5ad3:	3232                	fld	ft4,296(sp)
    5ad5:	3832                	fld	fa6,296(sp)
    5ad7:	37303537          	lui	a0,0x37303
    5adb:	3639                	jal	55e9 <.LASF891>
    5add:	3738                	fld	fa4,104(a4)
    5adf:	33353633          	0x33353633
    5ae3:	32323237          	lui	tp,0x32323
    5ae7:	3432                	fld	fs0,296(sp)
    5ae9:	3635                	jal	5615 <.LASF286+0x20>
    5aeb:	6538                	flw	fa4,72(a0)
    5aed:	332d                	jal	5817 <.LASF229+0x8>
    5aef:	4638                	lw	a4,72(a2)
	...

00005af2 <.LASF164>:
    5af2:	5f5f 4e49 5f54      	0x5f544e495f5f
    5af8:	454c                	lw	a1,12(a0)
    5afa:	5341                	li	t1,-16
    5afc:	3854                	fld	fa3,176(s0)
    5afe:	575f 4449 4854      	0x48544449575f
    5b04:	5f5f 3820       	0x5f0038205f5f

00005b09 <.LASF674>:
    5b09:	5f5f 454c 5341      	0x5341454c5f5f
    5b0f:	3154                	fld	fa3,160(a0)
    5b11:	2036                	fld	ft0,328(sp)
    5b13:	6822                	flw	fa6,8(sp)
    5b15:	0022                	c.slli	zero,0x8

00005b17 <.LASF51>:
    5b17:	5f5f 4e49 5f54      	0x5f544e495f5f
    5b1d:	454c                	lw	a1,12(a0)
    5b1f:	5341                	li	t1,-16
    5b21:	3154                	fld	fa3,160(a0)
    5b23:	5f36                	lw	t5,108(sp)
    5b25:	5954                	lw	a3,52(a0)
    5b27:	4550                	lw	a2,12(a0)
    5b29:	5f5f 7320 6f68      	0x6f6873205f5f
    5b2f:	7472                	flw	fs0,60(sp)
    5b31:	6920                	flw	fs0,80(a0)
    5b33:	746e                	flw	fs0,248(sp)
	...

00005b36 <.LASF772>:
    5b36:	726f6873          	csrrsi	a6,0x726,30
    5b3a:	2074                	fld	fa3,192(s0)
    5b3c:	6e75                	lui	t3,0x1d
    5b3e:	6e676973          	csrrsi	s2,0x6e6,14
    5b42:	6465                	lui	s0,0x19
    5b44:	6920                	flw	fs0,80(a0)
    5b46:	746e                	flw	fs0,248(sp)
	...

00005b49 <.LASF532>:
    5b49:	475f 494c 4342      	0x4342494c475f
    5b4f:	5858                	lw	a4,52(s0)
    5b51:	485f 5641 5f45      	0x5f455641485f
    5b57:	494c                	lw	a1,20(a0)
    5b59:	494d                	li	s2,19
    5b5b:	5f54                	lw	a3,60(a4)
    5b5d:	5352                	lw	t1,52(sp)
    5b5f:	00302053          	fadd.s	ft0,ft0,ft3,rdn

00005b63 <.LASF708>:
    5b63:	4e49                	li	t3,18
    5b65:	5f54                	lw	a3,60(a4)
    5b67:	454c                	lw	a1,12(a0)
    5b69:	5341                	li	t1,-16
    5b6b:	3854                	fld	fa3,176(s0)
    5b6d:	4d5f 4e49 2820      	0x28204e494d5f
    5b73:	5f2d                	li	t5,-21
    5b75:	495f 544e 4c5f      	0x4c5f544e495f
    5b7b:	4145                	li	sp,17
    5b7d:	5f385453          	0x5f385453
    5b81:	414d                	li	sp,19
    5b83:	5f58                	lw	a4,60(a4)
    5b85:	205f 202d 2931      	0x2931202d205f
	...

00005b8c <.LASF279>:
    5b8c:	5f5f 4c46 3154      	0x31544c465f5f
    5b92:	3832                	fld	fa6,296(sp)
    5b94:	4d5f 4e41 5f54      	0x5f544e414d5f
    5b9a:	4944                	lw	s1,20(a0)
    5b9c:	205f5f47          	fmsub.s	ft10,ft10,ft5,ft4,unknown
    5ba0:	3131                	jal	57ac <.LASF756+0x6>
    5ba2:	          	0x70730033

00005ba4 <.LASF874>:
    5ba4:	6f727073          	csrci	0x6f7,4
    5ba8:	6e695f63          	bge	s2,t1,62a6 <.LASF439+0x237>
    5bac:	6964                	flw	fs1,84(a0)
    5bae:	6572                	flw	fa0,28(sp)
    5bb0:	6f697463          	bgeu	s2,s6,6298 <.LASF439+0x229>
    5bb4:	006e                	c.slli	zero,0x1b

00005bb6 <.LASF348>:
    5bb6:	5f5f 6972 6373      	0x637369725f5f
    5bbc:	5f76                	lw	t5,124(sp)
    5bbe:	706d6f63          	bltu	s10,t1,62dc <.LASF439+0x26d>
    5bc2:	6572                	flw	fa0,28(sp)
    5bc4:	64657373          	csrrci	t1,0x646,10
    5bc8:	3120                	fld	fs0,96(a0)
	...

00005bcb <.LASF235>:
    5bcb:	5f5f 444c 4c42      	0x4c42444c5f5f
    5bd1:	4d5f 4e49 455f      	0x455f4e494d5f
    5bd7:	5058                	lw	a4,36(s0)
    5bd9:	5f5f 2820 312d      	0x312d28205f5f
    5bdf:	3336                	fld	ft6,360(sp)
    5be1:	3138                	fld	fa4,96(a0)
    5be3:	0029                	c.nop	10

00005be5 <.LASF275>:
    5be5:	5f5f 4c46 3654      	0x36544c465f5f
    5beb:	5f34                	lw	a3,120(a4)
    5bed:	4544                	lw	s1,12(a0)
    5bef:	4f4e                	lw	t5,208(sp)
    5bf1:	4d52                	lw	s10,20(sp)
    5bf3:	4d5f 4e49 5f5f      	0x5f5f4e494d5f
    5bf9:	3420                	fld	fs0,104(s0)
    5bfb:	392e                	fld	fs2,232(sp)
    5bfd:	3034                	fld	fa3,96(s0)
    5bff:	3536                	fld	fa0,360(sp)
    5c01:	3436                	fld	fs0,360(sp)
    5c03:	3835                	jal	543f <.LASF605+0xc>
    5c05:	3134                	fld	fa3,96(a0)
    5c07:	3432                	fld	fs0,296(sp)
    5c09:	3536                	fld	fa0,360(sp)
    5c0b:	3434                	fld	fa3,104(s0)
    5c0d:	3731                	jal	5b19 <.LASF51+0x2>
    5c0f:	3536                	fld	fa0,360(sp)
    5c11:	3836                	fld	fa6,360(sp)
    5c13:	38323937          	lui	s2,0x38323
    5c17:	3836                	fld	fa6,360(sp)
    5c19:	3232                	fld	ft4,296(sp)
    5c1b:	3331                	jal	5927 <.LASF584+0x1>
    5c1d:	2d653237          	lui	tp,0x2d653
    5c21:	46343233          	0x46343233
    5c25:	3436                	fld	fs0,360(sp)
	...

00005c28 <.LASF664>:
    5c28:	495f 544e 3233      	0x3233544e495f
    5c2e:	455f 5f51 4f4c      	0x4f4c5f51455f
    5c34:	474e                	lw	a4,208(sp)
    5c36:	0020                	addi	s0,sp,8

00005c38 <.LASF537>:
    5c38:	475f 494c 4342      	0x4342494c475f
    5c3e:	5858                	lw	a4,52(s0)
    5c40:	485f 5641 5f45      	0x5f455641485f
    5c46:	414d                	li	sp,19
    5c48:	4e494843          	fmadd.q	fa6,fs2,ft4,fs1,rmm
    5c4c:	5f45                	li	t5,-15
    5c4e:	4e45                	li	t3,17
    5c50:	4944                	lw	s1,20(a0)
    5c52:	4e41                	li	t3,16
    5c54:	485f 3120       	0x5f003120485f

00005c59 <.LASF136>:
    5c59:	5f5f 4953 455a      	0x455a49535f5f
    5c5f:	4d5f 5841 5f5f      	0x5f5f58414d5f
    5c65:	3020                	fld	fs0,96(s0)
    5c67:	6678                	flw	fa4,76(a2)
    5c69:	6666                	flw	fa2,88(sp)
    5c6b:	6666                	flw	fa2,88(sp)
    5c6d:	6666                	flw	fa2,88(sp)
    5c6f:	5566                	lw	a0,120(sp)
	...

00005c72 <.LASF554>:
    5c72:	475f 494c 4342      	0x4342494c475f
    5c78:	5858                	lw	a4,52(s0)
    5c7a:	485f 5641 5f45      	0x5f455641485f
    5c80:	49525453          	0x49525453
    5c84:	474e                	lw	a4,208(sp)
    5c86:	485f 3120       	0x5f003120485f

00005c8b <.LASF521>:
    5c8b:	475f 494c 4342      	0x4342494c475f
    5c91:	5858                	lw	a4,52(s0)
    5c93:	485f 5641 5f45      	0x5f455641485f
    5c99:	4349                	li	t1,18
    5c9b:	20564e4f          	fnmadd.s	ft8,fa2,ft5,ft4,rmm
    5c9f:	0031                	c.nop	12

00005ca1 <.LASF707>:
    5ca1:	4955                	li	s2,21
    5ca3:	544e                	lw	s0,240(sp)
    5ca5:	5f38                	lw	a4,120(a4)
    5ca7:	414d                	li	sp,19
    5ca9:	2058                	fld	fa4,128(s0)
    5cab:	5f28                	lw	a0,120(a4)
    5cad:	555f 4e49 3854      	0x38544e49555f
    5cb3:	4d5f 5841 5f5f      	0x5f5f58414d5f
    5cb9:	0029                	c.nop	10

00005cbb <.LASF129>:
    5cbb:	5f5f 4f4c 474e      	0x474e4f4c5f5f
    5cc1:	4d5f 5841 5f5f      	0x5f5f58414d5f
    5cc7:	3020                	fld	fs0,96(s0)
    5cc9:	3778                	fld	fa4,232(a4)
    5ccb:	6666                	flw	fa2,88(sp)
    5ccd:	6666                	flw	fa2,88(sp)
    5ccf:	6666                	flw	fa2,88(sp)
    5cd1:	4c66                	lw	s8,88(sp)
	...

00005cd4 <.LASF384>:
    5cd4:	475f 494c 4342      	0x4342494c475f
    5cda:	5858                	lw	a4,52(s0)
    5cdc:	555f 4553 4e5f      	0x4e5f4553555f
    5ce2:	4358454f          	fnmadd.d	fa0,fa6,fs5,fs0,rmm
    5ce6:	5045                	c.li	zero,-15
    5ce8:	2054                	fld	fa3,128(s0)
    5cea:	6f6e                	flw	ft10,216(sp)
    5cec:	7865                	lui	a6,0xffff9
    5cee:	74706563          	bltu	zero,t2,6438 <.LASF439+0x3c9>
	...

00005cf3 <.LASF694>:
    5cf3:	5f5f 6e69 5f74      	0x5f746e695f5f
    5cf9:	656c                	flw	fa1,76(a0)
    5cfb:	7361                	lui	t1,0xffff8
    5cfd:	3874                	fld	fa3,240(s0)
    5cff:	745f 645f 6665      	0x6665645f745f
    5d05:	6e69                	lui	t3,0x1a
    5d07:	6465                	lui	s0,0x19
    5d09:	3120                	fld	fs0,96(a0)
	...

00005d0c <.LASF662>:
    5d0c:	6f6c                	flw	fa1,92(a4)
    5d0e:	676e                	flw	fa4,216(sp)
    5d10:	2b20                	fld	fs0,80(a4)
    5d12:	0034                	addi	a3,sp,8

00005d14 <.LASF773>:
    5d14:	5f5f 6e69 3374      	0x33746e695f5f
    5d1a:	5f32                	lw	t5,44(sp)
    5d1c:	0074                	addi	a3,sp,12

00005d1e <.LASF517>:
    5d1e:	475f 494c 4342      	0x4342494c475f
    5d24:	5858                	lw	a4,52(s0)
    5d26:	485f 5641 5f45      	0x5f455641485f
    5d2c:	5246                	lw	tp,112(sp)
    5d2e:	5845                	li	a6,-15
    5d30:	4650                	lw	a2,12(a2)
    5d32:	3120                	fld	fs0,96(a0)
	...

00005d35 <.LASF800>:
    5d35:	6e69                	lui	t3,0x1a
    5d37:	3674                	fld	fa3,232(a2)
    5d39:	5f34                	lw	a3,120(a4)
    5d3b:	0074                	addi	a3,sp,12

00005d3d <.LASF25>:
    5d3d:	5f5f 4942 4747      	0x474749425f5f
    5d43:	5345                	li	t1,-15
    5d45:	5f54                	lw	a3,60(a4)
    5d47:	4c41                	li	s8,16
    5d49:	4749                	li	a4,18
    5d4b:	4d4e                	lw	s10,208(sp)
    5d4d:	4e45                	li	t3,17
    5d4f:	5f54                	lw	a3,60(a4)
    5d51:	205f 3631       	0x5f003631205f

00005d56 <.LASF876>:
    5d56:	5f5f 6e69 635f      	0x635f6e695f5f
    5d5c:	7268                	flw	fa0,100(a2)
    5d5e:	          	jr	1525(t5) # 1a5f5 <.LASF439+0x14586>

00005d60 <.LASF93>:
    5d60:	5f5f 7063 5f70      	0x5f7070635f5f
    5d66:	656e6567          	0x656e6567
    5d6a:	6972                	flw	fs2,28(sp)
    5d6c:	616c5f63          	bge	s8,s6,638a <.LASF439+0x31b>
    5d70:	626d                	lui	tp,0x1b
    5d72:	6164                	flw	fs1,68(a0)
    5d74:	30322073          	csrs	mideleg,tp
    5d78:	3331                	jal	5a84 <.LASF134+0xc>
    5d7a:	3430                	fld	fa2,104(s0)
    5d7c:	004c                	addi	a1,sp,4

00005d7e <.LASF566>:
    5d7e:	475f 494c 4342      	0x4342494c475f
    5d84:	5858                	lw	a4,52(s0)
    5d86:	485f 5641 5f45      	0x5f455641485f
    5d8c:	5355                	li	t1,-11
    5d8e:	454c                	lw	a1,12(a0)
    5d90:	5045                	c.li	zero,-15
    5d92:	3120                	fld	fs0,96(a0)
	...

00005d95 <.LASF609>:
    5d95:	475f 4854 4552      	0x45524854475f
    5d9b:	4441                	li	s0,16
    5d9d:	555f 4553 4d5f      	0x4d5f4553555f
    5da3:	5455                	li	s0,-11
    5da5:	5845                	li	a6,-15
    5da7:	545f 4d49 4445      	0x44454d49545f
    5dad:	4f4c                	lw	a1,28(a4)
    5daf:	31204b43          	fmadd.s	fs6,ft0,fs2,ft6,rmm
	...

00005db4 <.LASF294>:
    5db4:	5f5f 4c46 3354      	0x33544c465f5f
    5dba:	5832                	lw	a6,44(sp)
    5dbc:	4d5f 4e41 5f54      	0x5f544e414d5f
    5dc2:	4944                	lw	s1,20(a0)
    5dc4:	205f5f47          	fmsub.s	ft10,ft10,ft5,ft4,unknown
    5dc8:	3335                	jal	5af4 <.LASF164+0x2>
	...

00005dcb <.LASF142>:
    5dcb:	5f5f 4357 4148      	0x414843575f5f
    5dd1:	5f52                	lw	t5,52(sp)
    5dd3:	54444957          	0x54444957
    5dd7:	5f48                	lw	a0,60(a4)
    5dd9:	205f 3233       	0x5f003233205f

00005dde <.LASF459>:
    5dde:	505f 5453 5f4c      	0x5f4c5453505f
    5de4:	5250                	lw	a2,36(a2)
    5de6:	4741                	li	a4,16
    5de8:	414d                	li	sp,19
    5dea:	535f 4d49 5f44      	0x5f444d49535f
    5df0:	4e49                	li	t3,18
    5df2:	53554c43          	fmadd.d	fs8,fa0,fs5,fa0,rmm
    5df6:	5649                	li	a2,-14
    5df8:	5f45                	li	t5,-15
    5dfa:	4e414353          	0x4e414353
    5dfe:	5028                	lw	a0,96(s0)
    5e00:	4d52                	lw	s10,20(sp)
    5e02:	2029                	jal	5e0c <.LASF459+0x2e>
    5e04:	505f 5453 5f4c      	0x5f4c5453505f
    5e0a:	5250                	lw	a2,36(a2)
    5e0c:	4741                	li	a4,16
    5e0e:	414d                	li	sp,19
    5e10:	6f28                	flw	fa0,88(a4)
    5e12:	706d                	c.lui	zero,0xffffb
    5e14:	7320                	flw	fs0,96(a4)
    5e16:	206e6163          	bltu	t3,t1,6018 <.LASF218+0x11>
    5e1a:	6e69                	lui	t3,0x1a
    5e1c:	73756c63          	bltu	a0,s7,6554 <.LASF439+0x4e5>
    5e20:	7669                	lui	a2,0xffffa
    5e22:	2865                	jal	5eda <.LASF441>
    5e24:	5250                	lw	a2,36(a2)
    5e26:	294d                	jal	62d8 <.LASF439+0x269>
    5e28:	0029                	c.nop	10

00005e2a <.LASF401>:
    5e2a:	475f 494c 4342      	0x4342494c475f
    5e30:	5858                	lw	a4,52(s0)
    5e32:	425f 4745 4e49      	0x4e494745425f
    5e38:	4e5f 4d41 5345      	0x53454d414e5f
    5e3e:	4150                	lw	a2,4(a0)
    5e40:	435f4543          	fmadd.d	fa0,ft10,fs5,fs0,rmm
    5e44:	41544e4f          	fnmadd.s	ft8,fs0,fs5,fs0,rmm
    5e48:	4e49                	li	t3,18
    5e4a:	5245                	li	tp,-15
    5e4c:	0020                	addi	s0,sp,8

00005e4e <.LASF141>:
    5e4e:	5f5f 4f4c 474e      	0x474e4f4c5f5f
    5e54:	4c5f 4e4f 5f47      	0x5f474e4f4c5f
    5e5a:	54444957          	0x54444957
    5e5e:	5f48                	lw	a0,60(a4)
    5e60:	205f 3436       	0x5f003436205f

00005e65 <.LASF106>:
    5e65:	5f5f 7063 5f70      	0x5f7070635f5f
    5e6b:	736e6f63          	bltu	t3,s6,65a9 <.LASF439+0x53a>
    5e6f:	6574                	flw	fa3,76(a0)
    5e71:	7078                	flw	fa4,100(s0)
    5e73:	2072                	fld	ft0,280(sp)
    5e75:	3032                	fld	ft0,296(sp)
    5e77:	3631                	jal	5983 <.LASF465+0x8>
    5e79:	3330                	fld	fa2,96(a4)
    5e7b:	004c                	addi	a1,sp,4

00005e7d <.LASF5>:
    5e7d:	5f5f 4e47 4355      	0x43554e475f5f
    5e83:	5f5f 3120 0030      	0x3031205f5f

00005e89 <.LASF572>:
    5e89:	475f 494c 4342      	0x4342494c475f
    5e8f:	5858                	lw	a4,52(s0)
    5e91:	485f 5641 5f45      	0x5f455641485f
    5e97:	54534357          	0x54534357
    5e9b:	3120464f          	fnmadd.s	fa2,ft0,fs2,ft6,rmm
	...

00005ea0 <.LASF13>:
    5ea0:	5f5f 5441 4d4f      	0x4d4f54415f5f
    5ea6:	4349                	li	t1,18
    5ea8:	415f 5143 525f      	0x525f5143415f
    5eae:	4c45                	li	s8,17
    5eb0:	3420                	fld	fs0,104(s0)
	...

00005eb3 <.LASF44>:
    5eb3:	5f5f 4e49 3354      	0x33544e495f5f
    5eb9:	5f32                	lw	t5,44(sp)
    5ebb:	5954                	lw	a3,52(a0)
    5ebd:	4550                	lw	a2,12(a0)
    5ebf:	5f5f 6c20 6e6f      	0x6e6f6c205f5f
    5ec5:	6e692067          	0x6e692067
    5ec9:	0074                	addi	a3,sp,12

00005ecb <.LASF859>:
    5ecb:	6e757273          	csrrci	tp,0x6e7,10
	...

00005ed0 <.LASF853>:
    5ed0:	656e                	flw	fa0,216(sp)
    5ed2:	7478                	flw	fa4,108(s0)
	...

00005ed5 <.LASF848>:
    5ed5:	6164                	flw	fs1,68(a0)
    5ed7:	6174                	flw	fa3,68(a0)
	...

00005eda <.LASF441>:
    5eda:	505f 5453 5f4c      	0x5f4c5453505f
    5ee0:	5341                	li	t1,-16
    5ee2:	54524553          	0x54524553
    5ee6:	5f28                	lw	a0,120(a4)
    5ee8:	646e6f43          	0x646e6f43
    5eec:	7469                	lui	s0,0xffffa
    5eee:	6f69                	lui	t5,0x1a
    5ef0:	296e                	fld	fs2,216(sp)
    5ef2:	5f20                	lw	s0,120(a4)
    5ef4:	675f 696c 6362      	0x6362696c675f
    5efa:	7878                	flw	fa4,116(s0)
    5efc:	615f 7373 7265      	0x72657373615f
    5f02:	2874                	fld	fa3,208(s0)
    5f04:	435f 6e6f 6964      	0x69646e6f435f
    5f0a:	6974                	flw	fa3,84(a0)
    5f0c:	00296e6f          	jal	t3,9bf0e <.LASF439+0x95e9f>

00005f10 <.LASF729>:
    5f10:	4e49                	li	t3,18
    5f12:	5f54                	lw	a3,60(a4)
    5f14:	4146                	lw	sp,80(sp)
    5f16:	5f385453          	0x5f385453
    5f1a:	494d                	li	s2,19
    5f1c:	204e                	fld	ft0,208(sp)
    5f1e:	2d28                	fld	fa0,88(a0)
    5f20:	5f5f 4e49 5f54      	0x5f544e495f5f
    5f26:	4146                	lw	sp,80(sp)
    5f28:	5f385453          	0x5f385453
    5f2c:	414d                	li	sp,19
    5f2e:	5f58                	lw	a4,60(a4)
    5f30:	205f 202d 2931      	0x2931202d205f
	...

00005f37 <.LASF679>:
    5f37:	555f 4e49 3854      	0x38544e49555f
    5f3d:	545f 445f 4345      	0x4345445f545f
    5f43:	414c                	lw	a1,4(a0)
    5f45:	4552                	lw	a0,20(sp)
    5f47:	2044                	fld	fs1,128(s0)
	...

00005f4a <.LASF88>:
    5f4a:	5f5f 7063 5f70      	0x5f7070635f5f
    5f50:	6e69                	lui	t3,0x1a
    5f52:	6568                	flw	fa0,76(a0)
    5f54:	6972                	flw	fs2,28(sp)
    5f56:	6974                	flw	fa3,84(a0)
    5f58:	676e                	flw	fa4,216(sp)
    5f5a:	635f 6e6f 7473      	0x74736e6f635f
    5f60:	7572                	flw	fa0,60(sp)
    5f62:	726f7463          	bgeu	t5,t1,668a <.LASF439+0x61b>
    5f66:	30322073          	csrs	mideleg,tp
    5f6a:	3531                	jal	5d76 <.LASF93+0x16>
    5f6c:	3131                	jal	5b78 <.LASF708+0x15>
    5f6e:	004c                	addi	a1,sp,4

00005f70 <.LASF234>:
    5f70:	5f5f 444c 4c42      	0x4c42444c5f5f
    5f76:	445f 4749 5f5f      	0x5f5f4749445f
    5f7c:	3320                	fld	fs0,96(a4)
    5f7e:	          	0x5f5f0033

00005f80 <.LASF652>:
    5f80:	5f5f 6e69 3274      	0x32746e695f5f
    5f86:	0030                	addi	a2,sp,8

00005f88 <.LASF526>:
    5f88:	475f 494c 4342      	0x4342494c475f
    5f8e:	5858                	lw	a4,52(s0)
    5f90:	485f 5641 5f45      	0x5f455641485f
    5f96:	5349                	li	t1,-14
    5f98:	414c4257          	0x414c4257
    5f9c:	4b4e                	lw	s6,208(sp)
    5f9e:	3120                	fld	fs0,96(a0)
	...

00005fa1 <.LASF736>:
    5fa1:	4e49                	li	t3,18
    5fa3:	5f54                	lw	a3,60(a4)
    5fa5:	4146                	lw	sp,80(sp)
    5fa7:	32335453          	0x32335453
    5fab:	4d5f 5841 2820      	0x282058414d5f
    5fb1:	5f5f 4e49 5f54      	0x5f544e495f5f
    5fb7:	4146                	lw	sp,80(sp)
    5fb9:	32335453          	0x32335453
    5fbd:	4d5f 5841 5f5f      	0x5f5f58414d5f
    5fc3:	0029                	c.nop	10

00005fc5 <.LASF852>:
    5fc5:	7270                	flw	fa2,100(a2)
    5fc7:	7665                	lui	a2,0xffff9
	...

00005fca <.LASF495>:
    5fca:	475f 494c 4342      	0x4342494c475f
    5fd0:	5858                	lw	a4,52(s0)
    5fd2:	485f 5641 5f45      	0x5f455641485f
    5fd8:	4e45                	li	t3,17
    5fda:	5441444f          	0x5441444f
    5fde:	2041                	jal	605e <.LASF374+0x2c>
    5fe0:	0031                	c.nop	12

00005fe2 <.LASF600>:
    5fe2:	475f 494c 4342      	0x4342494c475f
    5fe8:	5858                	lw	a4,52(s0)
    5fea:	555f 4553 435f      	0x435f4553555f
    5ff0:	3939                	jal	5c0e <.LASF275+0x29>
    5ff2:	465f 4e45 5f56      	0x5f564e45465f
    5ff8:	5254                	lw	a3,36(a2)
    5ffa:	2031                	jal	6006 <.LASF802+0x8>
    5ffc:	0031                	c.nop	12

00005ffe <.LASF802>:
    5ffe:	6e69                	lui	t3,0x1a
    6000:	6d74                	flw	fa3,92(a0)
    6002:	7861                	lui	a6,0xffff8
    6004:	745f        	0x445f5f00745f

00006007 <.LASF218>:
    6007:	5f5f 4244 5f4c      	0x5f4c42445f5f
    600d:	414d                	li	sp,19
    600f:	544e                	lw	s0,240(sp)
    6011:	445f 4749 5f5f      	0x5f5f4749445f
    6017:	3520                	fld	fs0,104(a0)
    6019:	          	0x5f5f0033

0000601b <.LASF128>:
    601b:	5f5f 4e49 5f54      	0x5f544e495f5f
    6021:	414d                	li	sp,19
    6023:	5f58                	lw	a4,60(a4)
    6025:	205f 7830 6637      	0x66377830205f
    602b:	6666                	flw	fa2,88(sp)
    602d:	6666                	flw	fa2,88(sp)
    602f:	6666                	flw	fa2,88(sp)
	...

00006032 <.LASF374>:
    6032:	475f 494c 4342      	0x4342494c475f
    6038:	5858                	lw	a4,52(s0)
    603a:	415f 4942 545f      	0x545f4942415f
    6040:	4741                	li	a4,16
    6042:	435f 5858 3131      	0x31315858435f
    6048:	5f20                	lw	s0,120(a4)
    604a:	615f 7474 6972      	0x69727474615f
    6050:	7562                	flw	fa0,56(sp)
    6052:	6574                	flw	fa3,76(a0)
    6054:	2820                	fld	fs0,80(s0)
    6056:	5f28                	lw	a0,120(a4)
    6058:	615f 6962 745f      	0x745f6962615f
    605e:	6761                	lui	a4,0x18
    6060:	5f5f 2820 6322      	0x632228205f5f
    6066:	7878                	flw	fa4,116(s0)
    6068:	3131                	jal	5c74 <.LASF554+0x2>
    606a:	2922                	fld	fs2,8(sp)
    606c:	2929                	jal	6486 <.LASF439+0x417>
	...

0000606f <.LASF439>:
    606f:	475f 494c 4342      	0x4342494c475f
    6075:	5858                	lw	a4,52(s0)
    6077:	555f 4553 545f      	0x545f4553555f
    607d:	4242                	lw	tp,16(sp)
    607f:	505f 5241 425f      	0x425f5241505f
    6085:	4341                	li	t1,16
    6087:	444e454b          	0x444e454b
    608b:	5f20                	lw	s0,120(a4)
    608d:	685f 7361 695f      	0x695f7361685f
    6093:	636e                	flw	ft6,216(sp)
    6095:	756c                	flw	fa1,108(a0)
    6097:	6564                	flw	fs1,76(a0)
    6099:	3c28                	fld	fa0,120(s0)
    609b:	6274                	flw	fa3,68(a2)
    609d:	2f62                	fld	ft10,24(sp)
    609f:	6274                	flw	fa3,68(a2)
    60a1:	2e62                	fld	ft8,24(sp)
    60a3:	3e68                	fld	fa0,248(a2)
    60a5:	0029                	c.nop	10

Disassembly of section .sdata.DW.ref.__gxx_personality_v0:

00000000 <DW.ref.__gxx_personality_v0>:
   0:	0000                	unimp
	...

Disassembly of section .comment:

00000000 <.comment>:
   0:	4700                	lw	s0,8(a4)
   2:	203a4343          	fmadd.s	ft6,fs4,ft3,ft4,rmm
   6:	4728                	lw	a0,72(a4)
   8:	554e                	lw	a0,240(sp)
   a:	2029                	jal	14 <sch::sproc_curr+0x10>
   c:	3031                	jal	fffff818 <.LASF439+0xffff97a9>
   e:	322e                	fld	ft4,232(sp)
  10:	302e                	fld	ft0,232(sp)
	...

Disassembly of section .eh_frame:

00000000 <.eh_frame>:
   0:	0010                	0x10
   2:	0000                	unimp
   4:	0000                	unimp
   6:	0000                	unimp
   8:	00527a03          	0x527a03
   c:	7c01                	lui	s8,0xfffe0
   e:	0101                	addi	sp,sp,0
  10:	00020d1b          	0x20d1b
  14:	0020                	addi	s0,sp,8
  16:	0000                	unimp
  18:	0018                	0x18
	...
  22:	0000                	unimp
  24:	4200                	lw	s0,0(a2)
  26:	300e                	fld	ft0,224(sp)
  28:	8842                	mv	a6,a6
  2a:	4201                	li	tp,0
  2c:	080c                	addi	a1,sp,16
  2e:	0200                	addi	s0,sp,256
  30:	c860                	sw	s0,84(s0)
  32:	020c                	addi	a1,sp,256
  34:	4230                	lw	a2,64(a2)
  36:	000e                	c.slli	zero,0x3
  38:	0020                	addi	s0,sp,8
  3a:	0000                	unimp
  3c:	003c                	addi	a5,sp,8
	...
  46:	0000                	unimp
  48:	4200                	lw	s0,0(a2)
  4a:	300e                	fld	ft0,224(sp)
  4c:	8842                	mv	a6,a6
  4e:	4201                	li	tp,0
  50:	080c                	addi	a1,sp,16
  52:	0200                	addi	s0,sp,256
  54:	c852                	sw	s4,16(sp)
  56:	020c                	addi	a1,sp,256
  58:	4230                	lw	a2,64(a2)
  5a:	000e                	c.slli	zero,0x3
  5c:	0018                	0x18
  5e:	0000                	unimp
  60:	0000                	unimp
  62:	0000                	unimp
  64:	4c507a03          	0x4c507a03
  68:	0052                	c.slli	zero,0x14
  6a:	7c01                	lui	s8,0xfffe0
  6c:	0701                	addi	a4,a4,0
  6e:	0000009b          	0x9b
  72:	1b00                	addi	s0,sp,432
  74:	00020d1b          	0x20d1b
  78:	0028                	addi	a0,sp,8
  7a:	0000                	unimp
  7c:	0020                	addi	s0,sp,8
	...
  86:	0000                	unimp
  88:	0004                	0x4
  8a:	0000                	unimp
  8c:	4200                	lw	s0,0(a2)
  8e:	200e                	fld	ft0,192(sp)
  90:	8144                	0x8144
  92:	8801                	andi	s0,s0,0
  94:	4202                	lw	tp,0(sp)
  96:	080c                	addi	a1,sp,16
  98:	5c00                	lw	s0,56(s0)
  9a:	42c1                	li	t0,16
  9c:	0cc8                	addi	a0,sp,596
  9e:	2002                	fld	ft0,0(sp)
  a0:	0e42                	slli	t3,t3,0x10
  a2:	0000                	unimp
  a4:	0024                	addi	s1,sp,8
  a6:	0000                	unimp
  a8:	00a8                	addi	a0,sp,72
	...
  b2:	0000                	unimp
  b4:	4200                	lw	s0,0(a2)
  b6:	200e                	fld	ft0,192(sp)
  b8:	8144                	0x8144
  ba:	8801                	andi	s0,s0,0
  bc:	4202                	lw	tp,0(sp)
  be:	080c                	addi	a1,sp,16
  c0:	0200                	addi	s0,sp,256
  c2:	c150                	sw	a2,4(a0)
  c4:	c842                	sw	a6,16(sp)
  c6:	020c                	addi	a1,sp,256
  c8:	4220                	lw	s0,64(a2)
  ca:	000e                	c.slli	zero,0x3
  cc:	0024                	addi	s1,sp,8
  ce:	0000                	unimp
  d0:	00d0                	addi	a2,sp,68
	...
  da:	0000                	unimp
  dc:	4200                	lw	s0,0(a2)
  de:	200e                	fld	ft0,192(sp)
  e0:	8144                	0x8144
  e2:	8801                	andi	s0,s0,0
  e4:	4202                	lw	tp,0(sp)
  e6:	080c                	addi	a1,sp,16
  e8:	5400                	lw	s0,40(s0)
  ea:	42c1                	li	t0,16
  ec:	0cc8                	addi	a0,sp,596
  ee:	2002                	fld	ft0,0(sp)
  f0:	0e42                	slli	t3,t3,0x10
  f2:	0000                	unimp
  f4:	0024                	addi	s1,sp,8
  f6:	0000                	unimp
  f8:	00f8                	addi	a4,sp,76
	...
 102:	0000                	unimp
 104:	4200                	lw	s0,0(a2)
 106:	200e                	fld	ft0,192(sp)
 108:	8144                	0x8144
 10a:	8801                	andi	s0,s0,0
 10c:	4202                	lw	tp,0(sp)
 10e:	080c                	addi	a1,sp,16
 110:	0200                	addi	s0,sp,256
 112:	c148                	sw	a0,4(a0)
 114:	c842                	sw	a6,16(sp)
 116:	020c                	addi	a1,sp,256
 118:	4220                	lw	s0,64(a2)
 11a:	000e                	c.slli	zero,0x3
 11c:	0024                	addi	s1,sp,8
 11e:	0000                	unimp
 120:	0120                	addi	s0,sp,136
	...
 12a:	0000                	unimp
 12c:	4200                	lw	s0,0(a2)
 12e:	100e                	c.slli	zero,0x23
 130:	8144                	0x8144
 132:	8801                	andi	s0,s0,0
 134:	4202                	lw	tp,0(sp)
 136:	080c                	addi	a1,sp,16
 138:	4c00                	lw	s0,24(s0)
 13a:	42c1                	li	t0,16
 13c:	0cc8                	addi	a0,sp,596
 13e:	1002                	c.slli	zero,0x20
 140:	0e42                	slli	t3,t3,0x10
 142:	0000                	unimp
 144:	001c                	0x1c
 146:	0000                	unimp
 148:	0148                	addi	a0,sp,132
	...
 152:	0000                	unimp
 154:	4200                	lw	s0,0(a2)
 156:	200e                	fld	ft0,192(sp)
 158:	8144                	0x8144
 15a:	8801                	andi	s0,s0,0
 15c:	4202                	lw	tp,0(sp)
 15e:	080c                	addi	a1,sp,16
 160:	0000                	unimp
 162:	0000                	unimp
 164:	0020                	addi	s0,sp,8
 166:	0000                	unimp
 168:	0168                	addi	a0,sp,140
	...
 172:	0000                	unimp
 174:	4200                	lw	s0,0(a2)
 176:	100e                	c.slli	zero,0x23
 178:	8842                	mv	a6,a6
 17a:	4201                	li	tp,0
 17c:	080c                	addi	a1,sp,16
 17e:	5e00                	lw	s0,56(a2)
 180:	0cc8                	addi	a0,sp,596
 182:	1002                	c.slli	zero,0x20
 184:	0e42                	slli	t3,t3,0x10
 186:	0000                	unimp
 188:	0030                	addi	a2,sp,8
 18a:	0000                	unimp
 18c:	018c                	addi	a1,sp,192
	...
 196:	0000                	unimp
 198:	4200                	lw	s0,0(a2)
 19a:	500e                	0x500e
 19c:	8148                	0x8148
 19e:	8801                	andi	s0,s0,0
 1a0:	9202                	jalr	tp
 1a2:	42049303          	lh	t1,1056(s1)
 1a6:	080c                	addi	a1,sp,16
 1a8:	0300                	addi	s0,sp,384
 1aa:	03f2                	slli	t2,t2,0x1c
 1ac:	42c1                	li	t0,16
 1ae:	0cc8                	addi	a0,sp,596
 1b0:	5002                	0x5002
 1b2:	d242                	sw	a6,36(sp)
 1b4:	d342                	sw	a6,164(sp)
 1b6:	0e42                	slli	t3,t3,0x10
 1b8:	0000                	unimp
 1ba:	0000                	unimp
 1bc:	0030                	addi	a2,sp,8
 1be:	0000                	unimp
 1c0:	01c0                	addi	s0,sp,196
	...
 1ca:	0000                	unimp
 1cc:	4200                	lw	s0,0(a2)
 1ce:	300e                	fld	ft0,224(sp)
 1d0:	8148                	0x8148
 1d2:	8801                	andi	s0,s0,0
 1d4:	9202                	jalr	tp
 1d6:	42049303          	lh	t1,1056(s1)
 1da:	080c                	addi	a1,sp,16
 1dc:	0300                	addi	s0,sp,384
 1de:	0260                	addi	s0,sp,268
 1e0:	42c1                	li	t0,16
 1e2:	0cc8                	addi	a0,sp,596
 1e4:	3002                	fld	ft0,32(sp)
 1e6:	d242                	sw	a6,36(sp)
 1e8:	d342                	sw	a6,164(sp)
 1ea:	0e42                	slli	t3,t3,0x10
 1ec:	0000                	unimp
	...

Disassembly of section .riscv.attributes:

00000000 <.riscv.attributes>:
   0:	2a41                	jal	190 <.LASF371+0x6>
   2:	0000                	unimp
   4:	7200                	flw	fs0,32(a2)
   6:	7369                	lui	t1,0xffffa
   8:	01007663          	bgeu	zero,a6,14 <.riscv.attributes+0x14>
   c:	0020                	addi	s0,sp,8
   e:	0000                	unimp
  10:	1004                	addi	s1,sp,32
  12:	7205                	lui	tp,0xfffe1
  14:	3376                	fld	ft6,376(sp)
  16:	6932                	flw	fs2,12(sp)
  18:	7032                	flw	ft0,44(sp)
  1a:	5f30                	lw	a2,120(a4)
  1c:	326d                	jal	fffff9c6 <.LASF439+0xffff9957>
  1e:	3070                	fld	fa2,224(s0)
  20:	615f 7032 5f30      	0x5f307032615f
  26:	30703263          	0x30703263
	...
